
f4_mic.elf:     file format elf32-littlearm

Sections:
Idx Name          Size      VMA       LMA       File off  Algn
  0 .isr_vector   00000194  08000000  08000000  00001000  2**0
                  CONTENTS, ALLOC, LOAD, READONLY, DATA
  1 .text         0000acf8  080001a0  080001a0  000011a0  2**4
                  CONTENTS, ALLOC, LOAD, READONLY, CODE
  2 .rodata       00013c54  0800ae98  0800ae98  0000be98  2**3
                  CONTENTS, ALLOC, LOAD, READONLY, DATA
  3 .ARM.extab    00000000  0801eaec  0801eaec  000221d8  2**0
                  CONTENTS, READONLY
  4 .ARM          00000008  0801eaec  0801eaec  0001faec  2**2
                  CONTENTS, ALLOC, LOAD, READONLY, DATA
  5 .preinit_array 00000000  0801eaf4  0801eaf4  000221d8  2**0
                  CONTENTS, ALLOC, LOAD, DATA
  6 .init_array   00000004  0801eaf4  0801eaf4  0001faf4  2**2
                  CONTENTS, ALLOC, LOAD, READONLY, DATA
  7 .fini_array   00000004  0801eaf8  0801eaf8  0001faf8  2**2
                  CONTENTS, ALLOC, LOAD, READONLY, DATA
  8 .data         000021d8  20000000  0801eafc  00020000  2**2
                  CONTENTS, ALLOC, LOAD, DATA
  9 .bss          0000b294  200021d8  08020cd4  000221d8  2**2
                  ALLOC
 10 ._user_heap_stack 00000604  2000d46c  08020cd4  0002246c  2**0
                  ALLOC
 11 .ARM.attributes 00000030  00000000  00000000  000221d8  2**0
                  CONTENTS, READONLY
 12 .debug_info   0000f77b  00000000  00000000  00022208  2**0
                  CONTENTS, READONLY, DEBUGGING, OCTETS
 13 .debug_abbrev 00002ceb  00000000  00000000  00031983  2**0
                  CONTENTS, READONLY, DEBUGGING, OCTETS
 14 .debug_aranges 00000c40  00000000  00000000  00034670  2**3
                  CONTENTS, READONLY, DEBUGGING, OCTETS
 15 .debug_rnglists 000008fe  00000000  00000000  000352b0  2**0
                  CONTENTS, READONLY, DEBUGGING, OCTETS
 16 .debug_macro  00019253  00000000  00000000  00035bae  2**0
                  CONTENTS, READONLY, DEBUGGING, OCTETS
 17 .debug_line   00013e75  00000000  00000000  0004ee01  2**0
                  CONTENTS, READONLY, DEBUGGING, OCTETS
 18 .debug_str    0008cfee  00000000  00000000  00062c76  2**0
                  CONTENTS, READONLY, DEBUGGING, OCTETS
 19 .comment      00000043  00000000  00000000  000efc64  2**0
                  CONTENTS, READONLY
 20 .debug_frame  00003f04  00000000  00000000  000efca8  2**2
                  CONTENTS, READONLY, DEBUGGING, OCTETS
 21 .debug_line_str 00000061  00000000  00000000  000f3bac  2**0
                  CONTENTS, READONLY, DEBUGGING, OCTETS

Disassembly of section .text:

080001a0 <__do_global_dtors_aux>:
 80001a0:	b510      	push	{r4, lr}
 80001a2:	4c05      	ldr	r4, [pc, #20]	@ (80001b8 <__do_global_dtors_aux+0x18>)
 80001a4:	7823      	ldrb	r3, [r4, #0]
 80001a6:	b933      	cbnz	r3, 80001b6 <__do_global_dtors_aux+0x16>
 80001a8:	4b04      	ldr	r3, [pc, #16]	@ (80001bc <__do_global_dtors_aux+0x1c>)
 80001aa:	b113      	cbz	r3, 80001b2 <__do_global_dtors_aux+0x12>
 80001ac:	4804      	ldr	r0, [pc, #16]	@ (80001c0 <__do_global_dtors_aux+0x20>)
 80001ae:	f3af 8000 	nop.w
 80001b2:	2301      	movs	r3, #1
 80001b4:	7023      	strb	r3, [r4, #0]
 80001b6:	bd10      	pop	{r4, pc}
 80001b8:	200021d8 	.word	0x200021d8
 80001bc:	00000000 	.word	0x00000000
 80001c0:	0800ae80 	.word	0x0800ae80

080001c4 <frame_dummy>:
 80001c4:	b508      	push	{r3, lr}
 80001c6:	4b03      	ldr	r3, [pc, #12]	@ (80001d4 <frame_dummy+0x10>)
 80001c8:	b11b      	cbz	r3, 80001d2 <frame_dummy+0xe>
 80001ca:	4903      	ldr	r1, [pc, #12]	@ (80001d8 <frame_dummy+0x14>)
 80001cc:	4803      	ldr	r0, [pc, #12]	@ (80001dc <frame_dummy+0x18>)
 80001ce:	f3af 8000 	nop.w
 80001d2:	bd08      	pop	{r3, pc}
 80001d4:	00000000 	.word	0x00000000
 80001d8:	200021dc 	.word	0x200021dc
 80001dc:	0800ae80 	.word	0x0800ae80

080001e0 <memchr>:
 80001e0:	f001 01ff 	and.w	r1, r1, #255	@ 0xff
 80001e4:	2a10      	cmp	r2, #16
 80001e6:	db2b      	blt.n	8000240 <memchr+0x60>
 80001e8:	f010 0f07 	tst.w	r0, #7
 80001ec:	d008      	beq.n	8000200 <memchr+0x20>
 80001ee:	f810 3b01 	ldrb.w	r3, [r0], #1
 80001f2:	3a01      	subs	r2, #1
 80001f4:	428b      	cmp	r3, r1
 80001f6:	d02d      	beq.n	8000254 <memchr+0x74>
 80001f8:	f010 0f07 	tst.w	r0, #7
 80001fc:	b342      	cbz	r2, 8000250 <memchr+0x70>
 80001fe:	d1f6      	bne.n	80001ee <memchr+0xe>
 8000200:	b4f0      	push	{r4, r5, r6, r7}
 8000202:	ea41 2101 	orr.w	r1, r1, r1, lsl #8
 8000206:	ea41 4101 	orr.w	r1, r1, r1, lsl #16
 800020a:	f022 0407 	bic.w	r4, r2, #7
 800020e:	f07f 0700 	mvns.w	r7, #0
 8000212:	2300      	movs	r3, #0
 8000214:	e8f0 5602 	ldrd	r5, r6, [r0], #8
 8000218:	3c08      	subs	r4, #8
 800021a:	ea85 0501 	eor.w	r5, r5, r1
 800021e:	ea86 0601 	eor.w	r6, r6, r1
 8000222:	fa85 f547 	uadd8	r5, r5, r7
 8000226:	faa3 f587 	sel	r5, r3, r7
 800022a:	fa86 f647 	uadd8	r6, r6, r7
 800022e:	faa5 f687 	sel	r6, r5, r7
 8000232:	b98e      	cbnz	r6, 8000258 <memchr+0x78>
 8000234:	d1ee      	bne.n	8000214 <memchr+0x34>
 8000236:	bcf0      	pop	{r4, r5, r6, r7}
 8000238:	f001 01ff 	and.w	r1, r1, #255	@ 0xff
 800023c:	f002 0207 	and.w	r2, r2, #7
 8000240:	b132      	cbz	r2, 8000250 <memchr+0x70>
 8000242:	f810 3b01 	ldrb.w	r3, [r0], #1
 8000246:	3a01      	subs	r2, #1
 8000248:	ea83 0301 	eor.w	r3, r3, r1
 800024c:	b113      	cbz	r3, 8000254 <memchr+0x74>
 800024e:	d1f8      	bne.n	8000242 <memchr+0x62>
 8000250:	2000      	movs	r0, #0
 8000252:	4770      	bx	lr
 8000254:	3801      	subs	r0, #1
 8000256:	4770      	bx	lr
 8000258:	2d00      	cmp	r5, #0
 800025a:	bf06      	itte	eq
 800025c:	4635      	moveq	r5, r6
 800025e:	3803      	subeq	r0, #3
 8000260:	3807      	subne	r0, #7
 8000262:	f015 0f01 	tst.w	r5, #1
 8000266:	d107      	bne.n	8000278 <memchr+0x98>
 8000268:	3001      	adds	r0, #1
 800026a:	f415 7f80 	tst.w	r5, #256	@ 0x100
 800026e:	bf02      	ittt	eq
 8000270:	3001      	addeq	r0, #1
 8000272:	f415 3fc0 	tsteq.w	r5, #98304	@ 0x18000
 8000276:	3001      	addeq	r0, #1
 8000278:	bcf0      	pop	{r4, r5, r6, r7}
 800027a:	3801      	subs	r0, #1
 800027c:	4770      	bx	lr
 800027e:	bf00      	nop

08000280 <strlen>:
 8000280:	4603      	mov	r3, r0
 8000282:	f813 2b01 	ldrb.w	r2, [r3], #1
 8000286:	2a00      	cmp	r2, #0
 8000288:	d1fb      	bne.n	8000282 <strlen+0x2>
 800028a:	1a18      	subs	r0, r3, r0
 800028c:	3801      	subs	r0, #1
 800028e:	4770      	bx	lr

08000290 <__aeabi_drsub>:
 8000290:	f081 4100 	eor.w	r1, r1, #2147483648	@ 0x80000000
 8000294:	e002      	b.n	800029c <__adddf3>
 8000296:	bf00      	nop

08000298 <__aeabi_dsub>:
 8000298:	f083 4300 	eor.w	r3, r3, #2147483648	@ 0x80000000

0800029c <__adddf3>:
 800029c:	b530      	push	{r4, r5, lr}
 800029e:	ea4f 0441 	mov.w	r4, r1, lsl #1
 80002a2:	ea4f 0543 	mov.w	r5, r3, lsl #1
 80002a6:	ea94 0f05 	teq	r4, r5
 80002aa:	bf08      	it	eq
 80002ac:	ea90 0f02 	teqeq	r0, r2
 80002b0:	bf1f      	itttt	ne
 80002b2:	ea54 0c00 	orrsne.w	ip, r4, r0
 80002b6:	ea55 0c02 	orrsne.w	ip, r5, r2
 80002ba:	ea7f 5c64 	mvnsne.w	ip, r4, asr #21
 80002be:	ea7f 5c65 	mvnsne.w	ip, r5, asr #21
 80002c2:	f000 80e2 	beq.w	800048a <__adddf3+0x1ee>
 80002c6:	ea4f 5454 	mov.w	r4, r4, lsr #21
 80002ca:	ebd4 5555 	rsbs	r5, r4, r5, lsr #21
 80002ce:	bfb8      	it	lt
 80002d0:	426d      	neglt	r5, r5
 80002d2:	dd0c      	ble.n	80002ee <__adddf3+0x52>
 80002d4:	442c      	add	r4, r5
 80002d6:	ea80 0202 	eor.w	r2, r0, r2
 80002da:	ea81 0303 	eor.w	r3, r1, r3
 80002de:	ea82 0000 	eor.w	r0, r2, r0
 80002e2:	ea83 0101 	eor.w	r1, r3, r1
 80002e6:	ea80 0202 	eor.w	r2, r0, r2
 80002ea:	ea81 0303 	eor.w	r3, r1, r3
 80002ee:	2d36      	cmp	r5, #54	@ 0x36
 80002f0:	bf88      	it	hi
 80002f2:	bd30      	pophi	{r4, r5, pc}
 80002f4:	f011 4f00 	tst.w	r1, #2147483648	@ 0x80000000
 80002f8:	ea4f 3101 	mov.w	r1, r1, lsl #12
 80002fc:	f44f 1c80 	mov.w	ip, #1048576	@ 0x100000
 8000300:	ea4c 3111 	orr.w	r1, ip, r1, lsr #12
 8000304:	d002      	beq.n	800030c <__adddf3+0x70>
 8000306:	4240      	negs	r0, r0
 8000308:	eb61 0141 	sbc.w	r1, r1, r1, lsl #1
 800030c:	f013 4f00 	tst.w	r3, #2147483648	@ 0x80000000
 8000310:	ea4f 3303 	mov.w	r3, r3, lsl #12
 8000314:	ea4c 3313 	orr.w	r3, ip, r3, lsr #12
 8000318:	d002      	beq.n	8000320 <__adddf3+0x84>
 800031a:	4252      	negs	r2, r2
 800031c:	eb63 0343 	sbc.w	r3, r3, r3, lsl #1
 8000320:	ea94 0f05 	teq	r4, r5
 8000324:	f000 80a7 	beq.w	8000476 <__adddf3+0x1da>
 8000328:	f1a4 0401 	sub.w	r4, r4, #1
 800032c:	f1d5 0e20 	rsbs	lr, r5, #32
 8000330:	db0d      	blt.n	800034e <__adddf3+0xb2>
 8000332:	fa02 fc0e 	lsl.w	ip, r2, lr
 8000336:	fa22 f205 	lsr.w	r2, r2, r5
 800033a:	1880      	adds	r0, r0, r2
 800033c:	f141 0100 	adc.w	r1, r1, #0
 8000340:	fa03 f20e 	lsl.w	r2, r3, lr
 8000344:	1880      	adds	r0, r0, r2
 8000346:	fa43 f305 	asr.w	r3, r3, r5
 800034a:	4159      	adcs	r1, r3
 800034c:	e00e      	b.n	800036c <__adddf3+0xd0>
 800034e:	f1a5 0520 	sub.w	r5, r5, #32
 8000352:	f10e 0e20 	add.w	lr, lr, #32
 8000356:	2a01      	cmp	r2, #1
 8000358:	fa03 fc0e 	lsl.w	ip, r3, lr
 800035c:	bf28      	it	cs
 800035e:	f04c 0c02 	orrcs.w	ip, ip, #2
 8000362:	fa43 f305 	asr.w	r3, r3, r5
 8000366:	18c0      	adds	r0, r0, r3
 8000368:	eb51 71e3 	adcs.w	r1, r1, r3, asr #31
 800036c:	f001 4500 	and.w	r5, r1, #2147483648	@ 0x80000000
 8000370:	d507      	bpl.n	8000382 <__adddf3+0xe6>
 8000372:	f04f 0e00 	mov.w	lr, #0
 8000376:	f1dc 0c00 	rsbs	ip, ip, #0
 800037a:	eb7e 0000 	sbcs.w	r0, lr, r0
 800037e:	eb6e 0101 	sbc.w	r1, lr, r1
 8000382:	f5b1 1f80 	cmp.w	r1, #1048576	@ 0x100000
 8000386:	d31b      	bcc.n	80003c0 <__adddf3+0x124>
 8000388:	f5b1 1f00 	cmp.w	r1, #2097152	@ 0x200000
 800038c:	d30c      	bcc.n	80003a8 <__adddf3+0x10c>
 800038e:	0849      	lsrs	r1, r1, #1
 8000390:	ea5f 0030 	movs.w	r0, r0, rrx
 8000394:	ea4f 0c3c 	mov.w	ip, ip, rrx
 8000398:	f104 0401 	add.w	r4, r4, #1
 800039c:	ea4f 5244 	mov.w	r2, r4, lsl #21
 80003a0:	f512 0f80 	cmn.w	r2, #4194304	@ 0x400000
 80003a4:	f080 809a 	bcs.w	80004dc <__adddf3+0x240>
 80003a8:	f1bc 4f00 	cmp.w	ip, #2147483648	@ 0x80000000
 80003ac:	bf08      	it	eq
 80003ae:	ea5f 0c50 	movseq.w	ip, r0, lsr #1
 80003b2:	f150 0000 	adcs.w	r0, r0, #0
 80003b6:	eb41 5104 	adc.w	r1, r1, r4, lsl #20
 80003ba:	ea41 0105 	orr.w	r1, r1, r5
 80003be:	bd30      	pop	{r4, r5, pc}
 80003c0:	ea5f 0c4c 	movs.w	ip, ip, lsl #1
 80003c4:	4140      	adcs	r0, r0
 80003c6:	eb41 0101 	adc.w	r1, r1, r1
 80003ca:	3c01      	subs	r4, #1
 80003cc:	bf28      	it	cs
 80003ce:	f5b1 1f80 	cmpcs.w	r1, #1048576	@ 0x100000
 80003d2:	d2e9      	bcs.n	80003a8 <__adddf3+0x10c>
 80003d4:	f091 0f00 	teq	r1, #0
 80003d8:	bf04      	itt	eq
 80003da:	4601      	moveq	r1, r0
 80003dc:	2000      	moveq	r0, #0
 80003de:	fab1 f381 	clz	r3, r1
 80003e2:	bf08      	it	eq
 80003e4:	3320      	addeq	r3, #32
 80003e6:	f1a3 030b 	sub.w	r3, r3, #11
 80003ea:	f1b3 0220 	subs.w	r2, r3, #32
 80003ee:	da0c      	bge.n	800040a <__adddf3+0x16e>
 80003f0:	320c      	adds	r2, #12
 80003f2:	dd08      	ble.n	8000406 <__adddf3+0x16a>
 80003f4:	f102 0c14 	add.w	ip, r2, #20
 80003f8:	f1c2 020c 	rsb	r2, r2, #12
 80003fc:	fa01 f00c 	lsl.w	r0, r1, ip
 8000400:	fa21 f102 	lsr.w	r1, r1, r2
 8000404:	e00c      	b.n	8000420 <__adddf3+0x184>
 8000406:	f102 0214 	add.w	r2, r2, #20
 800040a:	bfd8      	it	le
 800040c:	f1c2 0c20 	rsble	ip, r2, #32
 8000410:	fa01 f102 	lsl.w	r1, r1, r2
 8000414:	fa20 fc0c 	lsr.w	ip, r0, ip
 8000418:	bfdc      	itt	le
 800041a:	ea41 010c 	orrle.w	r1, r1, ip
 800041e:	4090      	lslle	r0, r2
 8000420:	1ae4      	subs	r4, r4, r3
 8000422:	bfa2      	ittt	ge
 8000424:	eb01 5104 	addge.w	r1, r1, r4, lsl #20
 8000428:	4329      	orrge	r1, r5
 800042a:	bd30      	popge	{r4, r5, pc}
 800042c:	ea6f 0404 	mvn.w	r4, r4
 8000430:	3c1f      	subs	r4, #31
 8000432:	da1c      	bge.n	800046e <__adddf3+0x1d2>
 8000434:	340c      	adds	r4, #12
 8000436:	dc0e      	bgt.n	8000456 <__adddf3+0x1ba>
 8000438:	f104 0414 	add.w	r4, r4, #20
 800043c:	f1c4 0220 	rsb	r2, r4, #32
 8000440:	fa20 f004 	lsr.w	r0, r0, r4
 8000444:	fa01 f302 	lsl.w	r3, r1, r2
 8000448:	ea40 0003 	orr.w	r0, r0, r3
 800044c:	fa21 f304 	lsr.w	r3, r1, r4
 8000450:	ea45 0103 	orr.w	r1, r5, r3
 8000454:	bd30      	pop	{r4, r5, pc}
 8000456:	f1c4 040c 	rsb	r4, r4, #12
 800045a:	f1c4 0220 	rsb	r2, r4, #32
 800045e:	fa20 f002 	lsr.w	r0, r0, r2
 8000462:	fa01 f304 	lsl.w	r3, r1, r4
 8000466:	ea40 0003 	orr.w	r0, r0, r3
 800046a:	4629      	mov	r1, r5
 800046c:	bd30      	pop	{r4, r5, pc}
 800046e:	fa21 f004 	lsr.w	r0, r1, r4
 8000472:	4629      	mov	r1, r5
 8000474:	bd30      	pop	{r4, r5, pc}
 8000476:	f094 0f00 	teq	r4, #0
 800047a:	f483 1380 	eor.w	r3, r3, #1048576	@ 0x100000
 800047e:	bf06      	itte	eq
 8000480:	f481 1180 	eoreq.w	r1, r1, #1048576	@ 0x100000
 8000484:	3401      	addeq	r4, #1
 8000486:	3d01      	subne	r5, #1
 8000488:	e74e      	b.n	8000328 <__adddf3+0x8c>
 800048a:	ea7f 5c64 	mvns.w	ip, r4, asr #21
 800048e:	bf18      	it	ne
 8000490:	ea7f 5c65 	mvnsne.w	ip, r5, asr #21
 8000494:	d029      	beq.n	80004ea <__adddf3+0x24e>
 8000496:	ea94 0f05 	teq	r4, r5
 800049a:	bf08      	it	eq
 800049c:	ea90 0f02 	teqeq	r0, r2
 80004a0:	d005      	beq.n	80004ae <__adddf3+0x212>
 80004a2:	ea54 0c00 	orrs.w	ip, r4, r0
 80004a6:	bf04      	itt	eq
 80004a8:	4619      	moveq	r1, r3
 80004aa:	4610      	moveq	r0, r2
 80004ac:	bd30      	pop	{r4, r5, pc}
 80004ae:	ea91 0f03 	teq	r1, r3
 80004b2:	bf1e      	ittt	ne
 80004b4:	2100      	movne	r1, #0
 80004b6:	2000      	movne	r0, #0
 80004b8:	bd30      	popne	{r4, r5, pc}
 80004ba:	ea5f 5c54 	movs.w	ip, r4, lsr #21
 80004be:	d105      	bne.n	80004cc <__adddf3+0x230>
 80004c0:	0040      	lsls	r0, r0, #1
 80004c2:	4149      	adcs	r1, r1
 80004c4:	bf28      	it	cs
 80004c6:	f041 4100 	orrcs.w	r1, r1, #2147483648	@ 0x80000000
 80004ca:	bd30      	pop	{r4, r5, pc}
 80004cc:	f514 0480 	adds.w	r4, r4, #4194304	@ 0x400000
 80004d0:	bf3c      	itt	cc
 80004d2:	f501 1180 	addcc.w	r1, r1, #1048576	@ 0x100000
 80004d6:	bd30      	popcc	{r4, r5, pc}
 80004d8:	f001 4500 	and.w	r5, r1, #2147483648	@ 0x80000000
 80004dc:	f045 41fe 	orr.w	r1, r5, #2130706432	@ 0x7f000000
 80004e0:	f441 0170 	orr.w	r1, r1, #15728640	@ 0xf00000
 80004e4:	f04f 0000 	mov.w	r0, #0
 80004e8:	bd30      	pop	{r4, r5, pc}
 80004ea:	ea7f 5c64 	mvns.w	ip, r4, asr #21
 80004ee:	bf1a      	itte	ne
 80004f0:	4619      	movne	r1, r3
 80004f2:	4610      	movne	r0, r2
 80004f4:	ea7f 5c65 	mvnseq.w	ip, r5, asr #21
 80004f8:	bf1c      	itt	ne
 80004fa:	460b      	movne	r3, r1
 80004fc:	4602      	movne	r2, r0
 80004fe:	ea50 3401 	orrs.w	r4, r0, r1, lsl #12
 8000502:	bf06      	itte	eq
 8000504:	ea52 3503 	orrseq.w	r5, r2, r3, lsl #12
 8000508:	ea91 0f03 	teqeq	r1, r3
 800050c:	f441 2100 	orrne.w	r1, r1, #524288	@ 0x80000
 8000510:	bd30      	pop	{r4, r5, pc}
 8000512:	bf00      	nop

08000514 <__aeabi_ui2d>:
 8000514:	f090 0f00 	teq	r0, #0
 8000518:	bf04      	itt	eq
 800051a:	2100      	moveq	r1, #0
 800051c:	4770      	bxeq	lr
 800051e:	b530      	push	{r4, r5, lr}
 8000520:	f44f 6480 	mov.w	r4, #1024	@ 0x400
 8000524:	f104 0432 	add.w	r4, r4, #50	@ 0x32
 8000528:	f04f 0500 	mov.w	r5, #0
 800052c:	f04f 0100 	mov.w	r1, #0
 8000530:	e750      	b.n	80003d4 <__adddf3+0x138>
 8000532:	bf00      	nop

08000534 <__aeabi_i2d>:
 8000534:	f090 0f00 	teq	r0, #0
 8000538:	bf04      	itt	eq
 800053a:	2100      	moveq	r1, #0
 800053c:	4770      	bxeq	lr
 800053e:	b530      	push	{r4, r5, lr}
 8000540:	f44f 6480 	mov.w	r4, #1024	@ 0x400
 8000544:	f104 0432 	add.w	r4, r4, #50	@ 0x32
 8000548:	f010 4500 	ands.w	r5, r0, #2147483648	@ 0x80000000
 800054c:	bf48      	it	mi
 800054e:	4240      	negmi	r0, r0
 8000550:	f04f 0100 	mov.w	r1, #0
 8000554:	e73e      	b.n	80003d4 <__adddf3+0x138>
 8000556:	bf00      	nop

08000558 <__aeabi_f2d>:
 8000558:	0042      	lsls	r2, r0, #1
 800055a:	ea4f 01e2 	mov.w	r1, r2, asr #3
 800055e:	ea4f 0131 	mov.w	r1, r1, rrx
 8000562:	ea4f 7002 	mov.w	r0, r2, lsl #28
 8000566:	bf1f      	itttt	ne
 8000568:	f012 437f 	andsne.w	r3, r2, #4278190080	@ 0xff000000
 800056c:	f093 4f7f 	teqne	r3, #4278190080	@ 0xff000000
 8000570:	f081 5160 	eorne.w	r1, r1, #939524096	@ 0x38000000
 8000574:	4770      	bxne	lr
 8000576:	f032 427f 	bics.w	r2, r2, #4278190080	@ 0xff000000
 800057a:	bf08      	it	eq
 800057c:	4770      	bxeq	lr
 800057e:	f093 4f7f 	teq	r3, #4278190080	@ 0xff000000
 8000582:	bf04      	itt	eq
 8000584:	f441 2100 	orreq.w	r1, r1, #524288	@ 0x80000
 8000588:	4770      	bxeq	lr
 800058a:	b530      	push	{r4, r5, lr}
 800058c:	f44f 7460 	mov.w	r4, #896	@ 0x380
 8000590:	f001 4500 	and.w	r5, r1, #2147483648	@ 0x80000000
 8000594:	f021 4100 	bic.w	r1, r1, #2147483648	@ 0x80000000
 8000598:	e71c      	b.n	80003d4 <__adddf3+0x138>
 800059a:	bf00      	nop

0800059c <__aeabi_ul2d>:
 800059c:	ea50 0201 	orrs.w	r2, r0, r1
 80005a0:	bf08      	it	eq
 80005a2:	4770      	bxeq	lr
 80005a4:	b530      	push	{r4, r5, lr}
 80005a6:	f04f 0500 	mov.w	r5, #0
 80005aa:	e00a      	b.n	80005c2 <__aeabi_l2d+0x16>

080005ac <__aeabi_l2d>:
 80005ac:	ea50 0201 	orrs.w	r2, r0, r1
 80005b0:	bf08      	it	eq
 80005b2:	4770      	bxeq	lr
 80005b4:	b530      	push	{r4, r5, lr}
 80005b6:	f011 4500 	ands.w	r5, r1, #2147483648	@ 0x80000000
 80005ba:	d502      	bpl.n	80005c2 <__aeabi_l2d+0x16>
 80005bc:	4240      	negs	r0, r0
 80005be:	eb61 0141 	sbc.w	r1, r1, r1, lsl #1
 80005c2:	f44f 6480 	mov.w	r4, #1024	@ 0x400
 80005c6:	f104 0432 	add.w	r4, r4, #50	@ 0x32
 80005ca:	ea5f 5c91 	movs.w	ip, r1, lsr #22
 80005ce:	f43f aed8 	beq.w	8000382 <__adddf3+0xe6>
 80005d2:	f04f 0203 	mov.w	r2, #3
 80005d6:	ea5f 0cdc 	movs.w	ip, ip, lsr #3
 80005da:	bf18      	it	ne
 80005dc:	3203      	addne	r2, #3
 80005de:	ea5f 0cdc 	movs.w	ip, ip, lsr #3
 80005e2:	bf18      	it	ne
 80005e4:	3203      	addne	r2, #3
 80005e6:	eb02 02dc 	add.w	r2, r2, ip, lsr #3
 80005ea:	f1c2 0320 	rsb	r3, r2, #32
 80005ee:	fa00 fc03 	lsl.w	ip, r0, r3
 80005f2:	fa20 f002 	lsr.w	r0, r0, r2
 80005f6:	fa01 fe03 	lsl.w	lr, r1, r3
 80005fa:	ea40 000e 	orr.w	r0, r0, lr
 80005fe:	fa21 f102 	lsr.w	r1, r1, r2
 8000602:	4414      	add	r4, r2
 8000604:	e6bd      	b.n	8000382 <__adddf3+0xe6>
 8000606:	bf00      	nop

08000608 <__aeabi_dmul>:
 8000608:	b570      	push	{r4, r5, r6, lr}
 800060a:	f04f 0cff 	mov.w	ip, #255	@ 0xff
 800060e:	f44c 6ce0 	orr.w	ip, ip, #1792	@ 0x700
 8000612:	ea1c 5411 	ands.w	r4, ip, r1, lsr #20
 8000616:	bf1d      	ittte	ne
 8000618:	ea1c 5513 	andsne.w	r5, ip, r3, lsr #20
 800061c:	ea94 0f0c 	teqne	r4, ip
 8000620:	ea95 0f0c 	teqne	r5, ip
 8000624:	f000 f8de 	bleq	80007e4 <__aeabi_dmul+0x1dc>
 8000628:	442c      	add	r4, r5
 800062a:	ea81 0603 	eor.w	r6, r1, r3
 800062e:	ea21 514c 	bic.w	r1, r1, ip, lsl #21
 8000632:	ea23 534c 	bic.w	r3, r3, ip, lsl #21
 8000636:	ea50 3501 	orrs.w	r5, r0, r1, lsl #12
 800063a:	bf18      	it	ne
 800063c:	ea52 3503 	orrsne.w	r5, r2, r3, lsl #12
 8000640:	f441 1180 	orr.w	r1, r1, #1048576	@ 0x100000
 8000644:	f443 1380 	orr.w	r3, r3, #1048576	@ 0x100000
 8000648:	d038      	beq.n	80006bc <__aeabi_dmul+0xb4>
 800064a:	fba0 ce02 	umull	ip, lr, r0, r2
 800064e:	f04f 0500 	mov.w	r5, #0
 8000652:	fbe1 e502 	umlal	lr, r5, r1, r2
 8000656:	f006 4200 	and.w	r2, r6, #2147483648	@ 0x80000000
 800065a:	fbe0 e503 	umlal	lr, r5, r0, r3
 800065e:	f04f 0600 	mov.w	r6, #0
 8000662:	fbe1 5603 	umlal	r5, r6, r1, r3
 8000666:	f09c 0f00 	teq	ip, #0
 800066a:	bf18      	it	ne
 800066c:	f04e 0e01 	orrne.w	lr, lr, #1
 8000670:	f1a4 04ff 	sub.w	r4, r4, #255	@ 0xff
 8000674:	f5b6 7f00 	cmp.w	r6, #512	@ 0x200
 8000678:	f564 7440 	sbc.w	r4, r4, #768	@ 0x300
 800067c:	d204      	bcs.n	8000688 <__aeabi_dmul+0x80>
 800067e:	ea5f 0e4e 	movs.w	lr, lr, lsl #1
 8000682:	416d      	adcs	r5, r5
 8000684:	eb46 0606 	adc.w	r6, r6, r6
 8000688:	ea42 21c6 	orr.w	r1, r2, r6, lsl #11
 800068c:	ea41 5155 	orr.w	r1, r1, r5, lsr #21
 8000690:	ea4f 20c5 	mov.w	r0, r5, lsl #11
 8000694:	ea40 505e 	orr.w	r0, r0, lr, lsr #21
 8000698:	ea4f 2ece 	mov.w	lr, lr, lsl #11
 800069c:	f1b4 0cfd 	subs.w	ip, r4, #253	@ 0xfd
 80006a0:	bf88      	it	hi
 80006a2:	f5bc 6fe0 	cmphi.w	ip, #1792	@ 0x700
 80006a6:	d81e      	bhi.n	80006e6 <__aeabi_dmul+0xde>
 80006a8:	f1be 4f00 	cmp.w	lr, #2147483648	@ 0x80000000
 80006ac:	bf08      	it	eq
 80006ae:	ea5f 0e50 	movseq.w	lr, r0, lsr #1
 80006b2:	f150 0000 	adcs.w	r0, r0, #0
 80006b6:	eb41 5104 	adc.w	r1, r1, r4, lsl #20
 80006ba:	bd70      	pop	{r4, r5, r6, pc}
 80006bc:	f006 4600 	and.w	r6, r6, #2147483648	@ 0x80000000
 80006c0:	ea46 0101 	orr.w	r1, r6, r1
 80006c4:	ea40 0002 	orr.w	r0, r0, r2
 80006c8:	ea81 0103 	eor.w	r1, r1, r3
 80006cc:	ebb4 045c 	subs.w	r4, r4, ip, lsr #1
 80006d0:	bfc2      	ittt	gt
 80006d2:	ebd4 050c 	rsbsgt	r5, r4, ip
 80006d6:	ea41 5104 	orrgt.w	r1, r1, r4, lsl #20
 80006da:	bd70      	popgt	{r4, r5, r6, pc}
 80006dc:	f441 1180 	orr.w	r1, r1, #1048576	@ 0x100000
 80006e0:	f04f 0e00 	mov.w	lr, #0
 80006e4:	3c01      	subs	r4, #1
 80006e6:	f300 80ab 	bgt.w	8000840 <__aeabi_dmul+0x238>
 80006ea:	f114 0f36 	cmn.w	r4, #54	@ 0x36
 80006ee:	bfde      	ittt	le
 80006f0:	2000      	movle	r0, #0
 80006f2:	f001 4100 	andle.w	r1, r1, #2147483648	@ 0x80000000
 80006f6:	bd70      	pople	{r4, r5, r6, pc}
 80006f8:	f1c4 0400 	rsb	r4, r4, #0
 80006fc:	3c20      	subs	r4, #32
 80006fe:	da35      	bge.n	800076c <__aeabi_dmul+0x164>
 8000700:	340c      	adds	r4, #12
 8000702:	dc1b      	bgt.n	800073c <__aeabi_dmul+0x134>
 8000704:	f104 0414 	add.w	r4, r4, #20
 8000708:	f1c4 0520 	rsb	r5, r4, #32
 800070c:	fa00 f305 	lsl.w	r3, r0, r5
 8000710:	fa20 f004 	lsr.w	r0, r0, r4
 8000714:	fa01 f205 	lsl.w	r2, r1, r5
 8000718:	ea40 0002 	orr.w	r0, r0, r2
 800071c:	f001 4200 	and.w	r2, r1, #2147483648	@ 0x80000000
 8000720:	f021 4100 	bic.w	r1, r1, #2147483648	@ 0x80000000
 8000724:	eb10 70d3 	adds.w	r0, r0, r3, lsr #31
 8000728:	fa21 f604 	lsr.w	r6, r1, r4
 800072c:	eb42 0106 	adc.w	r1, r2, r6
 8000730:	ea5e 0e43 	orrs.w	lr, lr, r3, lsl #1
 8000734:	bf08      	it	eq
 8000736:	ea20 70d3 	biceq.w	r0, r0, r3, lsr #31
 800073a:	bd70      	pop	{r4, r5, r6, pc}
 800073c:	f1c4 040c 	rsb	r4, r4, #12
 8000740:	f1c4 0520 	rsb	r5, r4, #32
 8000744:	fa00 f304 	lsl.w	r3, r0, r4
 8000748:	fa20 f005 	lsr.w	r0, r0, r5
 800074c:	fa01 f204 	lsl.w	r2, r1, r4
 8000750:	ea40 0002 	orr.w	r0, r0, r2
 8000754:	f001 4100 	and.w	r1, r1, #2147483648	@ 0x80000000
 8000758:	eb10 70d3 	adds.w	r0, r0, r3, lsr #31
 800075c:	f141 0100 	adc.w	r1, r1, #0
 8000760:	ea5e 0e43 	orrs.w	lr, lr, r3, lsl #1
 8000764:	bf08      	it	eq
 8000766:	ea20 70d3 	biceq.w	r0, r0, r3, lsr #31
 800076a:	bd70      	pop	{r4, r5, r6, pc}
 800076c:	f1c4 0520 	rsb	r5, r4, #32
 8000770:	fa00 f205 	lsl.w	r2, r0, r5
 8000774:	ea4e 0e02 	orr.w	lr, lr, r2
 8000778:	fa20 f304 	lsr.w	r3, r0, r4
 800077c:	fa01 f205 	lsl.w	r2, r1, r5
 8000780:	ea43 0302 	orr.w	r3, r3, r2
 8000784:	fa21 f004 	lsr.w	r0, r1, r4
 8000788:	f001 4100 	and.w	r1, r1, #2147483648	@ 0x80000000
 800078c:	fa21 f204 	lsr.w	r2, r1, r4
 8000790:	ea20 0002 	bic.w	r0, r0, r2
 8000794:	eb00 70d3 	add.w	r0, r0, r3, lsr #31
 8000798:	ea5e 0e43 	orrs.w	lr, lr, r3, lsl #1
 800079c:	bf08      	it	eq
 800079e:	ea20 70d3 	biceq.w	r0, r0, r3, lsr #31
 80007a2:	bd70      	pop	{r4, r5, r6, pc}
 80007a4:	f094 0f00 	teq	r4, #0
 80007a8:	d10f      	bne.n	80007ca <__aeabi_dmul+0x1c2>
 80007aa:	f001 4600 	and.w	r6, r1, #2147483648	@ 0x80000000
 80007ae:	0040      	lsls	r0, r0, #1
 80007b0:	eb41 0101 	adc.w	r1, r1, r1
 80007b4:	f411 1f80 	tst.w	r1, #1048576	@ 0x100000
 80007b8:	bf08      	it	eq
 80007ba:	3c01      	subeq	r4, #1
 80007bc:	d0f7      	beq.n	80007ae <__aeabi_dmul+0x1a6>
 80007be:	ea41 0106 	orr.w	r1, r1, r6
 80007c2:	f095 0f00 	teq	r5, #0
 80007c6:	bf18      	it	ne
 80007c8:	4770      	bxne	lr
 80007ca:	f003 4600 	and.w	r6, r3, #2147483648	@ 0x80000000
 80007ce:	0052      	lsls	r2, r2, #1
 80007d0:	eb43 0303 	adc.w	r3, r3, r3
 80007d4:	f413 1f80 	tst.w	r3, #1048576	@ 0x100000
 80007d8:	bf08      	it	eq
 80007da:	3d01      	subeq	r5, #1
 80007dc:	d0f7      	beq.n	80007ce <__aeabi_dmul+0x1c6>
 80007de:	ea43 0306 	orr.w	r3, r3, r6
 80007e2:	4770      	bx	lr
 80007e4:	ea94 0f0c 	teq	r4, ip
 80007e8:	ea0c 5513 	and.w	r5, ip, r3, lsr #20
 80007ec:	bf18      	it	ne
 80007ee:	ea95 0f0c 	teqne	r5, ip
 80007f2:	d00c      	beq.n	800080e <__aeabi_dmul+0x206>
 80007f4:	ea50 0641 	orrs.w	r6, r0, r1, lsl #1
 80007f8:	bf18      	it	ne
 80007fa:	ea52 0643 	orrsne.w	r6, r2, r3, lsl #1
 80007fe:	d1d1      	bne.n	80007a4 <__aeabi_dmul+0x19c>
 8000800:	ea81 0103 	eor.w	r1, r1, r3
 8000804:	f001 4100 	and.w	r1, r1, #2147483648	@ 0x80000000
 8000808:	f04f 0000 	mov.w	r0, #0
 800080c:	bd70      	pop	{r4, r5, r6, pc}
 800080e:	ea50 0641 	orrs.w	r6, r0, r1, lsl #1
 8000812:	bf06      	itte	eq
 8000814:	4610      	moveq	r0, r2
 8000816:	4619      	moveq	r1, r3
 8000818:	ea52 0643 	orrsne.w	r6, r2, r3, lsl #1
 800081c:	d019      	beq.n	8000852 <__aeabi_dmul+0x24a>
 800081e:	ea94 0f0c 	teq	r4, ip
 8000822:	d102      	bne.n	800082a <__aeabi_dmul+0x222>
 8000824:	ea50 3601 	orrs.w	r6, r0, r1, lsl #12
 8000828:	d113      	bne.n	8000852 <__aeabi_dmul+0x24a>
 800082a:	ea95 0f0c 	teq	r5, ip
 800082e:	d105      	bne.n	800083c <__aeabi_dmul+0x234>
 8000830:	ea52 3603 	orrs.w	r6, r2, r3, lsl #12
 8000834:	bf1c      	itt	ne
 8000836:	4610      	movne	r0, r2
 8000838:	4619      	movne	r1, r3
 800083a:	d10a      	bne.n	8000852 <__aeabi_dmul+0x24a>
 800083c:	ea81 0103 	eor.w	r1, r1, r3
 8000840:	f001 4100 	and.w	r1, r1, #2147483648	@ 0x80000000
 8000844:	f041 41fe 	orr.w	r1, r1, #2130706432	@ 0x7f000000
 8000848:	f441 0170 	orr.w	r1, r1, #15728640	@ 0xf00000
 800084c:	f04f 0000 	mov.w	r0, #0
 8000850:	bd70      	pop	{r4, r5, r6, pc}
 8000852:	f041 41fe 	orr.w	r1, r1, #2130706432	@ 0x7f000000
 8000856:	f441 0178 	orr.w	r1, r1, #16252928	@ 0xf80000
 800085a:	bd70      	pop	{r4, r5, r6, pc}

0800085c <__aeabi_ddiv>:
 800085c:	b570      	push	{r4, r5, r6, lr}
 800085e:	f04f 0cff 	mov.w	ip, #255	@ 0xff
 8000862:	f44c 6ce0 	orr.w	ip, ip, #1792	@ 0x700
 8000866:	ea1c 5411 	ands.w	r4, ip, r1, lsr #20
 800086a:	bf1d      	ittte	ne
 800086c:	ea1c 5513 	andsne.w	r5, ip, r3, lsr #20
 8000870:	ea94 0f0c 	teqne	r4, ip
 8000874:	ea95 0f0c 	teqne	r5, ip
 8000878:	f000 f8a7 	bleq	80009ca <__aeabi_ddiv+0x16e>
 800087c:	eba4 0405 	sub.w	r4, r4, r5
 8000880:	ea81 0e03 	eor.w	lr, r1, r3
 8000884:	ea52 3503 	orrs.w	r5, r2, r3, lsl #12
 8000888:	ea4f 3101 	mov.w	r1, r1, lsl #12
 800088c:	f000 8088 	beq.w	80009a0 <__aeabi_ddiv+0x144>
 8000890:	ea4f 3303 	mov.w	r3, r3, lsl #12
 8000894:	f04f 5580 	mov.w	r5, #268435456	@ 0x10000000
 8000898:	ea45 1313 	orr.w	r3, r5, r3, lsr #4
 800089c:	ea43 6312 	orr.w	r3, r3, r2, lsr #24
 80008a0:	ea4f 2202 	mov.w	r2, r2, lsl #8
 80008a4:	ea45 1511 	orr.w	r5, r5, r1, lsr #4
 80008a8:	ea45 6510 	orr.w	r5, r5, r0, lsr #24
 80008ac:	ea4f 2600 	mov.w	r6, r0, lsl #8
 80008b0:	f00e 4100 	and.w	r1, lr, #2147483648	@ 0x80000000
 80008b4:	429d      	cmp	r5, r3
 80008b6:	bf08      	it	eq
 80008b8:	4296      	cmpeq	r6, r2
 80008ba:	f144 04fd 	adc.w	r4, r4, #253	@ 0xfd
 80008be:	f504 7440 	add.w	r4, r4, #768	@ 0x300
 80008c2:	d202      	bcs.n	80008ca <__aeabi_ddiv+0x6e>
 80008c4:	085b      	lsrs	r3, r3, #1
 80008c6:	ea4f 0232 	mov.w	r2, r2, rrx
 80008ca:	1ab6      	subs	r6, r6, r2
 80008cc:	eb65 0503 	sbc.w	r5, r5, r3
 80008d0:	085b      	lsrs	r3, r3, #1
 80008d2:	ea4f 0232 	mov.w	r2, r2, rrx
 80008d6:	f44f 1080 	mov.w	r0, #1048576	@ 0x100000
 80008da:	f44f 2c00 	mov.w	ip, #524288	@ 0x80000
 80008de:	ebb6 0e02 	subs.w	lr, r6, r2
 80008e2:	eb75 0e03 	sbcs.w	lr, r5, r3
 80008e6:	bf22      	ittt	cs
 80008e8:	1ab6      	subcs	r6, r6, r2
 80008ea:	4675      	movcs	r5, lr
 80008ec:	ea40 000c 	orrcs.w	r0, r0, ip
 80008f0:	085b      	lsrs	r3, r3, #1
 80008f2:	ea4f 0232 	mov.w	r2, r2, rrx
 80008f6:	ebb6 0e02 	subs.w	lr, r6, r2
 80008fa:	eb75 0e03 	sbcs.w	lr, r5, r3
 80008fe:	bf22      	ittt	cs
 8000900:	1ab6      	subcs	r6, r6, r2
 8000902:	4675      	movcs	r5, lr
 8000904:	ea40 005c 	orrcs.w	r0, r0, ip, lsr #1
 8000908:	085b      	lsrs	r3, r3, #1
 800090a:	ea4f 0232 	mov.w	r2, r2, rrx
 800090e:	ebb6 0e02 	subs.w	lr, r6, r2
 8000912:	eb75 0e03 	sbcs.w	lr, r5, r3
 8000916:	bf22      	ittt	cs
 8000918:	1ab6      	subcs	r6, r6, r2
 800091a:	4675      	movcs	r5, lr
 800091c:	ea40 009c 	orrcs.w	r0, r0, ip, lsr #2
 8000920:	085b      	lsrs	r3, r3, #1
 8000922:	ea4f 0232 	mov.w	r2, r2, rrx
 8000926:	ebb6 0e02 	subs.w	lr, r6, r2
 800092a:	eb75 0e03 	sbcs.w	lr, r5, r3
 800092e:	bf22      	ittt	cs
 8000930:	1ab6      	subcs	r6, r6, r2
 8000932:	4675      	movcs	r5, lr
 8000934:	ea40 00dc 	orrcs.w	r0, r0, ip, lsr #3
 8000938:	ea55 0e06 	orrs.w	lr, r5, r6
 800093c:	d018      	beq.n	8000970 <__aeabi_ddiv+0x114>
 800093e:	ea4f 1505 	mov.w	r5, r5, lsl #4
 8000942:	ea45 7516 	orr.w	r5, r5, r6, lsr #28
 8000946:	ea4f 1606 	mov.w	r6, r6, lsl #4
 800094a:	ea4f 03c3 	mov.w	r3, r3, lsl #3
 800094e:	ea43 7352 	orr.w	r3, r3, r2, lsr #29
 8000952:	ea4f 02c2 	mov.w	r2, r2, lsl #3
 8000956:	ea5f 1c1c 	movs.w	ip, ip, lsr #4
 800095a:	d1c0      	bne.n	80008de <__aeabi_ddiv+0x82>
 800095c:	f411 1f80 	tst.w	r1, #1048576	@ 0x100000
 8000960:	d10b      	bne.n	800097a <__aeabi_ddiv+0x11e>
 8000962:	ea41 0100 	orr.w	r1, r1, r0
 8000966:	f04f 0000 	mov.w	r0, #0
 800096a:	f04f 4c00 	mov.w	ip, #2147483648	@ 0x80000000
 800096e:	e7b6      	b.n	80008de <__aeabi_ddiv+0x82>
 8000970:	f411 1f80 	tst.w	r1, #1048576	@ 0x100000
 8000974:	bf04      	itt	eq
 8000976:	4301      	orreq	r1, r0
 8000978:	2000      	moveq	r0, #0
 800097a:	f1b4 0cfd 	subs.w	ip, r4, #253	@ 0xfd
 800097e:	bf88      	it	hi
 8000980:	f5bc 6fe0 	cmphi.w	ip, #1792	@ 0x700
 8000984:	f63f aeaf 	bhi.w	80006e6 <__aeabi_dmul+0xde>
 8000988:	ebb5 0c03 	subs.w	ip, r5, r3
 800098c:	bf04      	itt	eq
 800098e:	ebb6 0c02 	subseq.w	ip, r6, r2
 8000992:	ea5f 0c50 	movseq.w	ip, r0, lsr #1
 8000996:	f150 0000 	adcs.w	r0, r0, #0
 800099a:	eb41 5104 	adc.w	r1, r1, r4, lsl #20
 800099e:	bd70      	pop	{r4, r5, r6, pc}
 80009a0:	f00e 4e00 	and.w	lr, lr, #2147483648	@ 0x80000000
 80009a4:	ea4e 3111 	orr.w	r1, lr, r1, lsr #12
 80009a8:	eb14 045c 	adds.w	r4, r4, ip, lsr #1
 80009ac:	bfc2      	ittt	gt
 80009ae:	ebd4 050c 	rsbsgt	r5, r4, ip
 80009b2:	ea41 5104 	orrgt.w	r1, r1, r4, lsl #20
 80009b6:	bd70      	popgt	{r4, r5, r6, pc}
 80009b8:	f441 1180 	orr.w	r1, r1, #1048576	@ 0x100000
 80009bc:	f04f 0e00 	mov.w	lr, #0
 80009c0:	3c01      	subs	r4, #1
 80009c2:	e690      	b.n	80006e6 <__aeabi_dmul+0xde>
 80009c4:	ea45 0e06 	orr.w	lr, r5, r6
 80009c8:	e68d      	b.n	80006e6 <__aeabi_dmul+0xde>
 80009ca:	ea0c 5513 	and.w	r5, ip, r3, lsr #20
 80009ce:	ea94 0f0c 	teq	r4, ip
 80009d2:	bf08      	it	eq
 80009d4:	ea95 0f0c 	teqeq	r5, ip
 80009d8:	f43f af3b 	beq.w	8000852 <__aeabi_dmul+0x24a>
 80009dc:	ea94 0f0c 	teq	r4, ip
 80009e0:	d10a      	bne.n	80009f8 <__aeabi_ddiv+0x19c>
 80009e2:	ea50 3401 	orrs.w	r4, r0, r1, lsl #12
 80009e6:	f47f af34 	bne.w	8000852 <__aeabi_dmul+0x24a>
 80009ea:	ea95 0f0c 	teq	r5, ip
 80009ee:	f47f af25 	bne.w	800083c <__aeabi_dmul+0x234>
 80009f2:	4610      	mov	r0, r2
 80009f4:	4619      	mov	r1, r3
 80009f6:	e72c      	b.n	8000852 <__aeabi_dmul+0x24a>
 80009f8:	ea95 0f0c 	teq	r5, ip
 80009fc:	d106      	bne.n	8000a0c <__aeabi_ddiv+0x1b0>
 80009fe:	ea52 3503 	orrs.w	r5, r2, r3, lsl #12
 8000a02:	f43f aefd 	beq.w	8000800 <__aeabi_dmul+0x1f8>
 8000a06:	4610      	mov	r0, r2
 8000a08:	4619      	mov	r1, r3
 8000a0a:	e722      	b.n	8000852 <__aeabi_dmul+0x24a>
 8000a0c:	ea50 0641 	orrs.w	r6, r0, r1, lsl #1
 8000a10:	bf18      	it	ne
 8000a12:	ea52 0643 	orrsne.w	r6, r2, r3, lsl #1
 8000a16:	f47f aec5 	bne.w	80007a4 <__aeabi_dmul+0x19c>
 8000a1a:	ea50 0441 	orrs.w	r4, r0, r1, lsl #1
 8000a1e:	f47f af0d 	bne.w	800083c <__aeabi_dmul+0x234>
 8000a22:	ea52 0543 	orrs.w	r5, r2, r3, lsl #1
 8000a26:	f47f aeeb 	bne.w	8000800 <__aeabi_dmul+0x1f8>
 8000a2a:	e712      	b.n	8000852 <__aeabi_dmul+0x24a>

08000a2c <__gedf2>:
 8000a2c:	f04f 3cff 	mov.w	ip, #4294967295
 8000a30:	e006      	b.n	8000a40 <__cmpdf2+0x4>
 8000a32:	bf00      	nop

08000a34 <__ledf2>:
 8000a34:	f04f 0c01 	mov.w	ip, #1
 8000a38:	e002      	b.n	8000a40 <__cmpdf2+0x4>
 8000a3a:	bf00      	nop

08000a3c <__cmpdf2>:
 8000a3c:	f04f 0c01 	mov.w	ip, #1
 8000a40:	f84d cd04 	str.w	ip, [sp, #-4]!
 8000a44:	ea4f 0c41 	mov.w	ip, r1, lsl #1
 8000a48:	ea7f 5c6c 	mvns.w	ip, ip, asr #21
 8000a4c:	ea4f 0c43 	mov.w	ip, r3, lsl #1
 8000a50:	bf18      	it	ne
 8000a52:	ea7f 5c6c 	mvnsne.w	ip, ip, asr #21
 8000a56:	d01b      	beq.n	8000a90 <__cmpdf2+0x54>
 8000a58:	b001      	add	sp, #4
 8000a5a:	ea50 0c41 	orrs.w	ip, r0, r1, lsl #1
 8000a5e:	bf0c      	ite	eq
 8000a60:	ea52 0c43 	orrseq.w	ip, r2, r3, lsl #1
 8000a64:	ea91 0f03 	teqne	r1, r3
 8000a68:	bf02      	ittt	eq
 8000a6a:	ea90 0f02 	teqeq	r0, r2
 8000a6e:	2000      	moveq	r0, #0
 8000a70:	4770      	bxeq	lr
 8000a72:	f110 0f00 	cmn.w	r0, #0
 8000a76:	ea91 0f03 	teq	r1, r3
 8000a7a:	bf58      	it	pl
 8000a7c:	4299      	cmppl	r1, r3
 8000a7e:	bf08      	it	eq
 8000a80:	4290      	cmpeq	r0, r2
 8000a82:	bf2c      	ite	cs
 8000a84:	17d8      	asrcs	r0, r3, #31
 8000a86:	ea6f 70e3 	mvncc.w	r0, r3, asr #31
 8000a8a:	f040 0001 	orr.w	r0, r0, #1
 8000a8e:	4770      	bx	lr
 8000a90:	ea4f 0c41 	mov.w	ip, r1, lsl #1
 8000a94:	ea7f 5c6c 	mvns.w	ip, ip, asr #21
 8000a98:	d102      	bne.n	8000aa0 <__cmpdf2+0x64>
 8000a9a:	ea50 3c01 	orrs.w	ip, r0, r1, lsl #12
 8000a9e:	d107      	bne.n	8000ab0 <__cmpdf2+0x74>
 8000aa0:	ea4f 0c43 	mov.w	ip, r3, lsl #1
 8000aa4:	ea7f 5c6c 	mvns.w	ip, ip, asr #21
 8000aa8:	d1d6      	bne.n	8000a58 <__cmpdf2+0x1c>
 8000aaa:	ea52 3c03 	orrs.w	ip, r2, r3, lsl #12
 8000aae:	d0d3      	beq.n	8000a58 <__cmpdf2+0x1c>
 8000ab0:	f85d 0b04 	ldr.w	r0, [sp], #4
 8000ab4:	4770      	bx	lr
 8000ab6:	bf00      	nop

08000ab8 <__aeabi_cdrcmple>:
 8000ab8:	4684      	mov	ip, r0
 8000aba:	4610      	mov	r0, r2
 8000abc:	4662      	mov	r2, ip
 8000abe:	468c      	mov	ip, r1
 8000ac0:	4619      	mov	r1, r3
 8000ac2:	4663      	mov	r3, ip
 8000ac4:	e000      	b.n	8000ac8 <__aeabi_cdcmpeq>
 8000ac6:	bf00      	nop

08000ac8 <__aeabi_cdcmpeq>:
 8000ac8:	b501      	push	{r0, lr}
 8000aca:	f7ff ffb7 	bl	8000a3c <__cmpdf2>
 8000ace:	2800      	cmp	r0, #0
 8000ad0:	bf48      	it	mi
 8000ad2:	f110 0f00 	cmnmi.w	r0, #0
 8000ad6:	bd01      	pop	{r0, pc}

08000ad8 <__aeabi_dcmpeq>:
 8000ad8:	f84d ed08 	str.w	lr, [sp, #-8]!
 8000adc:	f7ff fff4 	bl	8000ac8 <__aeabi_cdcmpeq>
 8000ae0:	bf0c      	ite	eq
 8000ae2:	2001      	moveq	r0, #1
 8000ae4:	2000      	movne	r0, #0
 8000ae6:	f85d fb08 	ldr.w	pc, [sp], #8
 8000aea:	bf00      	nop

08000aec <__aeabi_dcmplt>:
 8000aec:	f84d ed08 	str.w	lr, [sp, #-8]!
 8000af0:	f7ff ffea 	bl	8000ac8 <__aeabi_cdcmpeq>
 8000af4:	bf34      	ite	cc
 8000af6:	2001      	movcc	r0, #1
 8000af8:	2000      	movcs	r0, #0
 8000afa:	f85d fb08 	ldr.w	pc, [sp], #8
 8000afe:	bf00      	nop

08000b00 <__aeabi_dcmple>:
 8000b00:	f84d ed08 	str.w	lr, [sp, #-8]!
 8000b04:	f7ff ffe0 	bl	8000ac8 <__aeabi_cdcmpeq>
 8000b08:	bf94      	ite	ls
 8000b0a:	2001      	movls	r0, #1
 8000b0c:	2000      	movhi	r0, #0
 8000b0e:	f85d fb08 	ldr.w	pc, [sp], #8
 8000b12:	bf00      	nop

08000b14 <__aeabi_dcmpge>:
 8000b14:	f84d ed08 	str.w	lr, [sp, #-8]!
 8000b18:	f7ff ffce 	bl	8000ab8 <__aeabi_cdrcmple>
 8000b1c:	bf94      	ite	ls
 8000b1e:	2001      	movls	r0, #1
 8000b20:	2000      	movhi	r0, #0
 8000b22:	f85d fb08 	ldr.w	pc, [sp], #8
 8000b26:	bf00      	nop

08000b28 <__aeabi_dcmpgt>:
 8000b28:	f84d ed08 	str.w	lr, [sp, #-8]!
 8000b2c:	f7ff ffc4 	bl	8000ab8 <__aeabi_cdrcmple>
 8000b30:	bf34      	ite	cc
 8000b32:	2001      	movcc	r0, #1
 8000b34:	2000      	movcs	r0, #0
 8000b36:	f85d fb08 	ldr.w	pc, [sp], #8
 8000b3a:	bf00      	nop

08000b3c <__aeabi_dcmpun>:
 8000b3c:	ea4f 0c41 	mov.w	ip, r1, lsl #1
 8000b40:	ea7f 5c6c 	mvns.w	ip, ip, asr #21
 8000b44:	d102      	bne.n	8000b4c <__aeabi_dcmpun+0x10>
 8000b46:	ea50 3c01 	orrs.w	ip, r0, r1, lsl #12
 8000b4a:	d10a      	bne.n	8000b62 <__aeabi_dcmpun+0x26>
 8000b4c:	ea4f 0c43 	mov.w	ip, r3, lsl #1
 8000b50:	ea7f 5c6c 	mvns.w	ip, ip, asr #21
 8000b54:	d102      	bne.n	8000b5c <__aeabi_dcmpun+0x20>
 8000b56:	ea52 3c03 	orrs.w	ip, r2, r3, lsl #12
 8000b5a:	d102      	bne.n	8000b62 <__aeabi_dcmpun+0x26>
 8000b5c:	f04f 0000 	mov.w	r0, #0
 8000b60:	4770      	bx	lr
 8000b62:	f04f 0001 	mov.w	r0, #1
 8000b66:	4770      	bx	lr

08000b68 <__aeabi_d2iz>:
 8000b68:	ea4f 0241 	mov.w	r2, r1, lsl #1
 8000b6c:	f512 1200 	adds.w	r2, r2, #2097152	@ 0x200000
 8000b70:	d215      	bcs.n	8000b9e <__aeabi_d2iz+0x36>
 8000b72:	d511      	bpl.n	8000b98 <__aeabi_d2iz+0x30>
 8000b74:	f46f 7378 	mvn.w	r3, #992	@ 0x3e0
 8000b78:	ebb3 5262 	subs.w	r2, r3, r2, asr #21
 8000b7c:	d912      	bls.n	8000ba4 <__aeabi_d2iz+0x3c>
 8000b7e:	ea4f 23c1 	mov.w	r3, r1, lsl #11
 8000b82:	f043 4300 	orr.w	r3, r3, #2147483648	@ 0x80000000
 8000b86:	ea43 5350 	orr.w	r3, r3, r0, lsr #21
 8000b8a:	f011 4f00 	tst.w	r1, #2147483648	@ 0x80000000
 8000b8e:	fa23 f002 	lsr.w	r0, r3, r2
 8000b92:	bf18      	it	ne
 8000b94:	4240      	negne	r0, r0
 8000b96:	4770      	bx	lr
 8000b98:	f04f 0000 	mov.w	r0, #0
 8000b9c:	4770      	bx	lr
 8000b9e:	ea50 3001 	orrs.w	r0, r0, r1, lsl #12
 8000ba2:	d105      	bne.n	8000bb0 <__aeabi_d2iz+0x48>
 8000ba4:	f011 4000 	ands.w	r0, r1, #2147483648	@ 0x80000000
 8000ba8:	bf08      	it	eq
 8000baa:	f06f 4000 	mvneq.w	r0, #2147483648	@ 0x80000000
 8000bae:	4770      	bx	lr
 8000bb0:	f04f 0000 	mov.w	r0, #0
 8000bb4:	4770      	bx	lr
 8000bb6:	bf00      	nop

08000bb8 <__aeabi_uldivmod>:
 8000bb8:	b953      	cbnz	r3, 8000bd0 <__aeabi_uldivmod+0x18>
 8000bba:	b94a      	cbnz	r2, 8000bd0 <__aeabi_uldivmod+0x18>
 8000bbc:	2900      	cmp	r1, #0
 8000bbe:	bf08      	it	eq
 8000bc0:	2800      	cmpeq	r0, #0
 8000bc2:	bf1c      	itt	ne
 8000bc4:	f04f 31ff 	movne.w	r1, #4294967295
 8000bc8:	f04f 30ff 	movne.w	r0, #4294967295
 8000bcc:	f000 b988 	b.w	8000ee0 <__aeabi_idiv0>
 8000bd0:	f1ad 0c08 	sub.w	ip, sp, #8
 8000bd4:	e96d ce04 	strd	ip, lr, [sp, #-16]!
 8000bd8:	f000 f806 	bl	8000be8 <__udivmoddi4>
 8000bdc:	f8dd e004 	ldr.w	lr, [sp, #4]
 8000be0:	e9dd 2302 	ldrd	r2, r3, [sp, #8]
 8000be4:	b004      	add	sp, #16
 8000be6:	4770      	bx	lr

08000be8 <__udivmoddi4>:
 8000be8:	e92d 47f0 	stmdb	sp!, {r4, r5, r6, r7, r8, r9, sl, lr}
 8000bec:	9d08      	ldr	r5, [sp, #32]
 8000bee:	460f      	mov	r7, r1
 8000bf0:	4604      	mov	r4, r0
 8000bf2:	468c      	mov	ip, r1
 8000bf4:	2b00      	cmp	r3, #0
 8000bf6:	d148      	bne.n	8000c8a <__udivmoddi4+0xa2>
 8000bf8:	428a      	cmp	r2, r1
 8000bfa:	4616      	mov	r6, r2
 8000bfc:	d961      	bls.n	8000cc2 <__udivmoddi4+0xda>
 8000bfe:	fab2 f382 	clz	r3, r2
 8000c02:	b14b      	cbz	r3, 8000c18 <__udivmoddi4+0x30>
 8000c04:	f1c3 0220 	rsb	r2, r3, #32
 8000c08:	fa01 fc03 	lsl.w	ip, r1, r3
 8000c0c:	fa20 f202 	lsr.w	r2, r0, r2
 8000c10:	409e      	lsls	r6, r3
 8000c12:	ea42 0c0c 	orr.w	ip, r2, ip
 8000c16:	409c      	lsls	r4, r3
 8000c18:	ea4f 4e16 	mov.w	lr, r6, lsr #16
 8000c1c:	b2b7      	uxth	r7, r6
 8000c1e:	fbbc f1fe 	udiv	r1, ip, lr
 8000c22:	0c22      	lsrs	r2, r4, #16
 8000c24:	fb0e cc11 	mls	ip, lr, r1, ip
 8000c28:	ea42 420c 	orr.w	r2, r2, ip, lsl #16
 8000c2c:	fb01 f007 	mul.w	r0, r1, r7
 8000c30:	4290      	cmp	r0, r2
 8000c32:	d909      	bls.n	8000c48 <__udivmoddi4+0x60>
 8000c34:	18b2      	adds	r2, r6, r2
 8000c36:	f101 3cff 	add.w	ip, r1, #4294967295
 8000c3a:	f080 80ee 	bcs.w	8000e1a <__udivmoddi4+0x232>
 8000c3e:	4290      	cmp	r0, r2
 8000c40:	f240 80eb 	bls.w	8000e1a <__udivmoddi4+0x232>
 8000c44:	3902      	subs	r1, #2
 8000c46:	4432      	add	r2, r6
 8000c48:	1a12      	subs	r2, r2, r0
 8000c4a:	b2a4      	uxth	r4, r4
 8000c4c:	fbb2 f0fe 	udiv	r0, r2, lr
 8000c50:	fb0e 2210 	mls	r2, lr, r0, r2
 8000c54:	ea44 4402 	orr.w	r4, r4, r2, lsl #16
 8000c58:	fb00 f707 	mul.w	r7, r0, r7
 8000c5c:	42a7      	cmp	r7, r4
 8000c5e:	d909      	bls.n	8000c74 <__udivmoddi4+0x8c>
 8000c60:	1934      	adds	r4, r6, r4
 8000c62:	f100 32ff 	add.w	r2, r0, #4294967295
 8000c66:	f080 80da 	bcs.w	8000e1e <__udivmoddi4+0x236>
 8000c6a:	42a7      	cmp	r7, r4
 8000c6c:	f240 80d7 	bls.w	8000e1e <__udivmoddi4+0x236>
 8000c70:	4434      	add	r4, r6
 8000c72:	3802      	subs	r0, #2
 8000c74:	ea40 4001 	orr.w	r0, r0, r1, lsl #16
 8000c78:	1be4      	subs	r4, r4, r7
 8000c7a:	2100      	movs	r1, #0
 8000c7c:	b11d      	cbz	r5, 8000c86 <__udivmoddi4+0x9e>
 8000c7e:	40dc      	lsrs	r4, r3
 8000c80:	2300      	movs	r3, #0
 8000c82:	e9c5 4300 	strd	r4, r3, [r5]
 8000c86:	e8bd 87f0 	ldmia.w	sp!, {r4, r5, r6, r7, r8, r9, sl, pc}
 8000c8a:	428b      	cmp	r3, r1
 8000c8c:	d906      	bls.n	8000c9c <__udivmoddi4+0xb4>
 8000c8e:	b10d      	cbz	r5, 8000c94 <__udivmoddi4+0xac>
 8000c90:	e9c5 0100 	strd	r0, r1, [r5]
 8000c94:	2100      	movs	r1, #0
 8000c96:	4608      	mov	r0, r1
 8000c98:	e8bd 87f0 	ldmia.w	sp!, {r4, r5, r6, r7, r8, r9, sl, pc}
 8000c9c:	fab3 f183 	clz	r1, r3
 8000ca0:	2900      	cmp	r1, #0
 8000ca2:	d148      	bne.n	8000d36 <__udivmoddi4+0x14e>
 8000ca4:	42bb      	cmp	r3, r7
 8000ca6:	d302      	bcc.n	8000cae <__udivmoddi4+0xc6>
 8000ca8:	4282      	cmp	r2, r0
 8000caa:	f200 8107 	bhi.w	8000ebc <__udivmoddi4+0x2d4>
 8000cae:	1a84      	subs	r4, r0, r2
 8000cb0:	eb67 0203 	sbc.w	r2, r7, r3
 8000cb4:	2001      	movs	r0, #1
 8000cb6:	4694      	mov	ip, r2
 8000cb8:	2d00      	cmp	r5, #0
 8000cba:	d0e4      	beq.n	8000c86 <__udivmoddi4+0x9e>
 8000cbc:	e9c5 4c00 	strd	r4, ip, [r5]
 8000cc0:	e7e1      	b.n	8000c86 <__udivmoddi4+0x9e>
 8000cc2:	2a00      	cmp	r2, #0
 8000cc4:	f000 8092 	beq.w	8000dec <__udivmoddi4+0x204>
 8000cc8:	fab2 f382 	clz	r3, r2
 8000ccc:	2b00      	cmp	r3, #0
 8000cce:	f040 80a8 	bne.w	8000e22 <__udivmoddi4+0x23a>
 8000cd2:	1a8a      	subs	r2, r1, r2
 8000cd4:	ea4f 4e16 	mov.w	lr, r6, lsr #16
 8000cd8:	fa1f fc86 	uxth.w	ip, r6
 8000cdc:	2101      	movs	r1, #1
 8000cde:	0c20      	lsrs	r0, r4, #16
 8000ce0:	fbb2 f7fe 	udiv	r7, r2, lr
 8000ce4:	fb0e 2217 	mls	r2, lr, r7, r2
 8000ce8:	ea40 4202 	orr.w	r2, r0, r2, lsl #16
 8000cec:	fb0c f007 	mul.w	r0, ip, r7
 8000cf0:	4290      	cmp	r0, r2
 8000cf2:	d907      	bls.n	8000d04 <__udivmoddi4+0x11c>
 8000cf4:	18b2      	adds	r2, r6, r2
 8000cf6:	f107 38ff 	add.w	r8, r7, #4294967295
 8000cfa:	d202      	bcs.n	8000d02 <__udivmoddi4+0x11a>
 8000cfc:	4290      	cmp	r0, r2
 8000cfe:	f200 80e2 	bhi.w	8000ec6 <__udivmoddi4+0x2de>
 8000d02:	4647      	mov	r7, r8
 8000d04:	1a12      	subs	r2, r2, r0
 8000d06:	b2a4      	uxth	r4, r4
 8000d08:	fbb2 f0fe 	udiv	r0, r2, lr
 8000d0c:	fb0e 2210 	mls	r2, lr, r0, r2
 8000d10:	ea44 4402 	orr.w	r4, r4, r2, lsl #16
 8000d14:	fb0c fc00 	mul.w	ip, ip, r0
 8000d18:	45a4      	cmp	ip, r4
 8000d1a:	d907      	bls.n	8000d2c <__udivmoddi4+0x144>
 8000d1c:	1934      	adds	r4, r6, r4
 8000d1e:	f100 32ff 	add.w	r2, r0, #4294967295
 8000d22:	d202      	bcs.n	8000d2a <__udivmoddi4+0x142>
 8000d24:	45a4      	cmp	ip, r4
 8000d26:	f200 80cb 	bhi.w	8000ec0 <__udivmoddi4+0x2d8>
 8000d2a:	4610      	mov	r0, r2
 8000d2c:	eba4 040c 	sub.w	r4, r4, ip
 8000d30:	ea40 4007 	orr.w	r0, r0, r7, lsl #16
 8000d34:	e7a2      	b.n	8000c7c <__udivmoddi4+0x94>
 8000d36:	f1c1 0620 	rsb	r6, r1, #32
 8000d3a:	408b      	lsls	r3, r1
 8000d3c:	fa22 fc06 	lsr.w	ip, r2, r6
 8000d40:	ea4c 0c03 	orr.w	ip, ip, r3
 8000d44:	fa07 f401 	lsl.w	r4, r7, r1
 8000d48:	fa20 f306 	lsr.w	r3, r0, r6
 8000d4c:	40f7      	lsrs	r7, r6
 8000d4e:	ea4f 491c 	mov.w	r9, ip, lsr #16
 8000d52:	4323      	orrs	r3, r4
 8000d54:	fa00 f801 	lsl.w	r8, r0, r1
 8000d58:	fa1f fe8c 	uxth.w	lr, ip
 8000d5c:	fbb7 f0f9 	udiv	r0, r7, r9
 8000d60:	0c1c      	lsrs	r4, r3, #16
 8000d62:	fb09 7710 	mls	r7, r9, r0, r7
 8000d66:	ea44 4407 	orr.w	r4, r4, r7, lsl #16
 8000d6a:	fb00 f70e 	mul.w	r7, r0, lr
 8000d6e:	42a7      	cmp	r7, r4
 8000d70:	fa02 f201 	lsl.w	r2, r2, r1
 8000d74:	d90a      	bls.n	8000d8c <__udivmoddi4+0x1a4>
 8000d76:	eb1c 0404 	adds.w	r4, ip, r4
 8000d7a:	f100 3aff 	add.w	sl, r0, #4294967295
 8000d7e:	f080 809b 	bcs.w	8000eb8 <__udivmoddi4+0x2d0>
 8000d82:	42a7      	cmp	r7, r4
 8000d84:	f240 8098 	bls.w	8000eb8 <__udivmoddi4+0x2d0>
 8000d88:	3802      	subs	r0, #2
 8000d8a:	4464      	add	r4, ip
 8000d8c:	1be4      	subs	r4, r4, r7
 8000d8e:	b29f      	uxth	r7, r3
 8000d90:	fbb4 f3f9 	udiv	r3, r4, r9
 8000d94:	fb09 4413 	mls	r4, r9, r3, r4
 8000d98:	ea47 4404 	orr.w	r4, r7, r4, lsl #16
 8000d9c:	fb03 fe0e 	mul.w	lr, r3, lr
 8000da0:	45a6      	cmp	lr, r4
 8000da2:	d909      	bls.n	8000db8 <__udivmoddi4+0x1d0>
 8000da4:	eb1c 0404 	adds.w	r4, ip, r4
 8000da8:	f103 37ff 	add.w	r7, r3, #4294967295
 8000dac:	f080 8082 	bcs.w	8000eb4 <__udivmoddi4+0x2cc>
 8000db0:	45a6      	cmp	lr, r4
 8000db2:	d97f      	bls.n	8000eb4 <__udivmoddi4+0x2cc>
 8000db4:	3b02      	subs	r3, #2
 8000db6:	4464      	add	r4, ip
 8000db8:	ea43 4000 	orr.w	r0, r3, r0, lsl #16
 8000dbc:	eba4 040e 	sub.w	r4, r4, lr
 8000dc0:	fba0 e702 	umull	lr, r7, r0, r2
 8000dc4:	42bc      	cmp	r4, r7
 8000dc6:	4673      	mov	r3, lr
 8000dc8:	46b9      	mov	r9, r7
 8000dca:	d363      	bcc.n	8000e94 <__udivmoddi4+0x2ac>
 8000dcc:	d060      	beq.n	8000e90 <__udivmoddi4+0x2a8>
 8000dce:	b15d      	cbz	r5, 8000de8 <__udivmoddi4+0x200>
 8000dd0:	ebb8 0203 	subs.w	r2, r8, r3
 8000dd4:	eb64 0409 	sbc.w	r4, r4, r9
 8000dd8:	fa04 f606 	lsl.w	r6, r4, r6
 8000ddc:	fa22 f301 	lsr.w	r3, r2, r1
 8000de0:	431e      	orrs	r6, r3
 8000de2:	40cc      	lsrs	r4, r1
 8000de4:	e9c5 6400 	strd	r6, r4, [r5]
 8000de8:	2100      	movs	r1, #0
 8000dea:	e74c      	b.n	8000c86 <__udivmoddi4+0x9e>
 8000dec:	0862      	lsrs	r2, r4, #1
 8000dee:	0848      	lsrs	r0, r1, #1
 8000df0:	ea42 71c1 	orr.w	r1, r2, r1, lsl #31
 8000df4:	0c0b      	lsrs	r3, r1, #16
 8000df6:	ea43 4300 	orr.w	r3, r3, r0, lsl #16
 8000dfa:	b28a      	uxth	r2, r1
 8000dfc:	ea42 4203 	orr.w	r2, r2, r3, lsl #16
 8000e00:	fbb3 f1f6 	udiv	r1, r3, r6
 8000e04:	07e4      	lsls	r4, r4, #31
 8000e06:	46b4      	mov	ip, r6
 8000e08:	4637      	mov	r7, r6
 8000e0a:	46b6      	mov	lr, r6
 8000e0c:	231f      	movs	r3, #31
 8000e0e:	fbb0 f0f6 	udiv	r0, r0, r6
 8000e12:	1bd2      	subs	r2, r2, r7
 8000e14:	ea41 4100 	orr.w	r1, r1, r0, lsl #16
 8000e18:	e761      	b.n	8000cde <__udivmoddi4+0xf6>
 8000e1a:	4661      	mov	r1, ip
 8000e1c:	e714      	b.n	8000c48 <__udivmoddi4+0x60>
 8000e1e:	4610      	mov	r0, r2
 8000e20:	e728      	b.n	8000c74 <__udivmoddi4+0x8c>
 8000e22:	f1c3 0120 	rsb	r1, r3, #32
 8000e26:	fa20 f201 	lsr.w	r2, r0, r1
 8000e2a:	409e      	lsls	r6, r3
 8000e2c:	fa27 f101 	lsr.w	r1, r7, r1
 8000e30:	409f      	lsls	r7, r3
 8000e32:	433a      	orrs	r2, r7
 8000e34:	ea4f 4e16 	mov.w	lr, r6, lsr #16
 8000e38:	fa1f fc86 	uxth.w	ip, r6
 8000e3c:	fbb1 f7fe 	udiv	r7, r1, lr
 8000e40:	fb0e 1017 	mls	r0, lr, r7, r1
 8000e44:	0c11      	lsrs	r1, r2, #16
 8000e46:	ea41 4100 	orr.w	r1, r1, r0, lsl #16
 8000e4a:	fb07 f80c 	mul.w	r8, r7, ip
 8000e4e:	4588      	cmp	r8, r1
 8000e50:	fa04 f403 	lsl.w	r4, r4, r3
 8000e54:	d93a      	bls.n	8000ecc <__udivmoddi4+0x2e4>
 8000e56:	1871      	adds	r1, r6, r1
 8000e58:	f107 30ff 	add.w	r0, r7, #4294967295
 8000e5c:	d201      	bcs.n	8000e62 <__udivmoddi4+0x27a>
 8000e5e:	4588      	cmp	r8, r1
 8000e60:	d81f      	bhi.n	8000ea2 <__udivmoddi4+0x2ba>
 8000e62:	eba1 0108 	sub.w	r1, r1, r8
 8000e66:	fbb1 f8fe 	udiv	r8, r1, lr
 8000e6a:	fb08 f70c 	mul.w	r7, r8, ip
 8000e6e:	fb0e 1118 	mls	r1, lr, r8, r1
 8000e72:	b292      	uxth	r2, r2
 8000e74:	ea42 4201 	orr.w	r2, r2, r1, lsl #16
 8000e78:	42ba      	cmp	r2, r7
 8000e7a:	d22f      	bcs.n	8000edc <__udivmoddi4+0x2f4>
 8000e7c:	18b2      	adds	r2, r6, r2
 8000e7e:	f108 31ff 	add.w	r1, r8, #4294967295
 8000e82:	d2c6      	bcs.n	8000e12 <__udivmoddi4+0x22a>
 8000e84:	42ba      	cmp	r2, r7
 8000e86:	d2c4      	bcs.n	8000e12 <__udivmoddi4+0x22a>
 8000e88:	f1a8 0102 	sub.w	r1, r8, #2
 8000e8c:	4432      	add	r2, r6
 8000e8e:	e7c0      	b.n	8000e12 <__udivmoddi4+0x22a>
 8000e90:	45f0      	cmp	r8, lr
 8000e92:	d29c      	bcs.n	8000dce <__udivmoddi4+0x1e6>
 8000e94:	ebbe 0302 	subs.w	r3, lr, r2
 8000e98:	eb67 070c 	sbc.w	r7, r7, ip
 8000e9c:	3801      	subs	r0, #1
 8000e9e:	46b9      	mov	r9, r7
 8000ea0:	e795      	b.n	8000dce <__udivmoddi4+0x1e6>
 8000ea2:	eba6 0808 	sub.w	r8, r6, r8
 8000ea6:	4441      	add	r1, r8
 8000ea8:	1eb8      	subs	r0, r7, #2
 8000eaa:	fbb1 f8fe 	udiv	r8, r1, lr
 8000eae:	fb08 f70c 	mul.w	r7, r8, ip
 8000eb2:	e7dc      	b.n	8000e6e <__udivmoddi4+0x286>
 8000eb4:	463b      	mov	r3, r7
 8000eb6:	e77f      	b.n	8000db8 <__udivmoddi4+0x1d0>
 8000eb8:	4650      	mov	r0, sl
 8000eba:	e767      	b.n	8000d8c <__udivmoddi4+0x1a4>
 8000ebc:	4608      	mov	r0, r1
 8000ebe:	e6fb      	b.n	8000cb8 <__udivmoddi4+0xd0>
 8000ec0:	4434      	add	r4, r6
 8000ec2:	3802      	subs	r0, #2
 8000ec4:	e732      	b.n	8000d2c <__udivmoddi4+0x144>
 8000ec6:	3f02      	subs	r7, #2
 8000ec8:	4432      	add	r2, r6
 8000eca:	e71b      	b.n	8000d04 <__udivmoddi4+0x11c>
 8000ecc:	eba1 0108 	sub.w	r1, r1, r8
 8000ed0:	4638      	mov	r0, r7
 8000ed2:	fbb1 f8fe 	udiv	r8, r1, lr
 8000ed6:	fb08 f70c 	mul.w	r7, r8, ip
 8000eda:	e7c8      	b.n	8000e6e <__udivmoddi4+0x286>
 8000edc:	4641      	mov	r1, r8
 8000ede:	e798      	b.n	8000e12 <__udivmoddi4+0x22a>

08000ee0 <__aeabi_idiv0>:
 8000ee0:	4770      	bx	lr
 8000ee2:	bf00      	nop

08000ee4 <__io_putchar>:
static void MX_DMA_Init(void);
static void MX_I2S3_Init(void);
static void MX_USART2_UART_Init(void);
static void MX_CRC_Init(void);
/* USER CODE BEGIN PFP */
PUTCHAR_PROTOTYPE {
 8000ee4:	b580      	push	{r7, lr}
 8000ee6:	b082      	sub	sp, #8
 8000ee8:	af00      	add	r7, sp, #0
 8000eea:	6078      	str	r0, [r7, #4]
	HAL_UART_Transmit(&PRINT_UART, (uint8_t*) &ch, 1, 1000);
 8000eec:	1d39      	adds	r1, r7, #4
 8000eee:	f44f 737a 	mov.w	r3, #1000	@ 0x3e8
 8000ef2:	2201      	movs	r2, #1
 8000ef4:	4803      	ldr	r0, [pc, #12]	@ (8000f04 <__io_putchar+0x20>)
 8000ef6:	f005 ff41 	bl	8006d7c <HAL_UART_Transmit>

	return ch;
 8000efa:	687b      	ldr	r3, [r7, #4]
}
 8000efc:	4618      	mov	r0, r3
 8000efe:	3708      	adds	r7, #8
 8000f00:	46bd      	mov	sp, r7
 8000f02:	bd80      	pop	{r7, pc}
 8000f04:	200022a4 	.word	0x200022a4

08000f08 <main>:
/**
  * @brief  The application entry point.
  * @retval int
  */
int main(void)
{
 8000f08:	b580      	push	{r7, lr}
 8000f0a:	af00      	add	r7, sp, #0
  /* USER CODE END 1 */

  /* MCU Configuration--------------------------------------------------------*/

  /* Reset of all peripherals, Initializes the Flash interface and the Systick. */
  HAL_Init();
 8000f0c:	f003 fcce 	bl	80048ac <HAL_Init>
  /* USER CODE BEGIN Init */

  /* USER CODE END Init */

  /* Configure the system clock */
  SystemClock_Config();
 8000f10:	f000 f85e 	bl	8000fd0 <SystemClock_Config>
  /* USER CODE BEGIN SysInit */

  /* USER CODE END SysInit */

  /* Initialize all configured peripherals */
  MX_GPIO_Init();
 8000f14:	f000 f952 	bl	80011bc <MX_GPIO_Init>
  MX_DMA_Init();
 8000f18:	f000 f930 	bl	800117c <MX_DMA_Init>
  MX_I2S3_Init();
 8000f1c:	f000 f8d6 	bl	80010cc <MX_I2S3_Init>
  MX_USART2_UART_Init();
 8000f20:	f000 f902 	bl	8001128 <MX_USART2_UART_Init>
  MX_CRC_Init();
 8000f24:	f000 f8be 	bl	80010a4 <MX_CRC_Init>
  /* USER CODE BEGIN 2 */
  HAL_Delay(1000);
 8000f28:	f44f 707a 	mov.w	r0, #1000	@ 0x3e8
 8000f2c:	f003 fd30 	bl	8004990 <HAL_Delay>
  HAL_GPIO_WritePin(LED1_GPIO_Port,LED1_Pin,GPIO_PIN_RESET);
 8000f30:	2200      	movs	r2, #0
 8000f32:	2120      	movs	r1, #32
 8000f34:	481e      	ldr	r0, [pc, #120]	@ (8000fb0 <main+0xa8>)
 8000f36:	f004 fb71 	bl	800561c <HAL_GPIO_WritePin>
  HAL_Delay(1000);
 8000f3a:	f44f 707a 	mov.w	r0, #1000	@ 0x3e8
 8000f3e:	f003 fd27 	bl	8004990 <HAL_Delay>
  HAL_GPIO_WritePin(LED1_GPIO_Port,LED1_Pin,GPIO_PIN_SET);
 8000f42:	2201      	movs	r2, #1
 8000f44:	2120      	movs	r1, #32
 8000f46:	481a      	ldr	r0, [pc, #104]	@ (8000fb0 <main+0xa8>)
 8000f48:	f004 fb68 	bl	800561c <HAL_GPIO_WritePin>
  //HAL_Delay(1000);

  arm_rfft_fast_init_f32(&hfft, FFT_SIZE);
 8000f4c:	f44f 6100 	mov.w	r1, #2048	@ 0x800
 8000f50:	4818      	ldr	r0, [pc, #96]	@ (8000fb4 <main+0xac>)
 8000f52:	f003 fbfd 	bl	8004750 <arm_rfft_fast_init_f32>
  if(HAL_I2S_Receive_DMA(&hi2s3,mic_data,HALF_DOUBLE_BUFFER_SIZE) != HAL_OK){
 8000f56:	f44f 5280 	mov.w	r2, #4096	@ 0x1000
 8000f5a:	4917      	ldr	r1, [pc, #92]	@ (8000fb8 <main+0xb0>)
 8000f5c:	4817      	ldr	r0, [pc, #92]	@ (8000fbc <main+0xb4>)
 8000f5e:	f004 fcb7 	bl	80058d0 <HAL_I2S_Receive_DMA>
 8000f62:	4603      	mov	r3, r0
 8000f64:	2b00      	cmp	r3, #0
 8000f66:	d001      	beq.n	8000f6c <main+0x64>
	  Error_Handler();
 8000f68:	f000 fb6a 	bl	8001640 <Error_Handler>
  }

  arm_hanning_f32(fft_window,FFT_SIZE);
 8000f6c:	f44f 6100 	mov.w	r1, #2048	@ 0x800
 8000f70:	4813      	ldr	r0, [pc, #76]	@ (8000fc0 <main+0xb8>)
 8000f72:	f003 fc55 	bl	8004820 <arm_hanning_f32>

  /* Infinite loop */
  /* USER CODE BEGIN WHILE */
  while (1)
  {
	  if(data_ready_flag){
 8000f76:	4b13      	ldr	r3, [pc, #76]	@ (8000fc4 <main+0xbc>)
 8000f78:	781b      	ldrb	r3, [r3, #0]
 8000f7a:	b2db      	uxtb	r3, r3
 8000f7c:	2b00      	cmp	r3, #0
 8000f7e:	d001      	beq.n	8000f84 <main+0x7c>
		  process_data();
 8000f80:	f000 f9d0 	bl	8001324 <process_data>
	  }

	  if(buffer_filled){
 8000f84:	4b10      	ldr	r3, [pc, #64]	@ (8000fc8 <main+0xc0>)
 8000f86:	781b      	ldrb	r3, [r3, #0]
 8000f88:	b2db      	uxtb	r3, r3
 8000f8a:	2b00      	cmp	r3, #0
 8000f8c:	d004      	beq.n	8000f98 <main+0x90>
		  buffer_filled = false;
 8000f8e:	4b0e      	ldr	r3, [pc, #56]	@ (8000fc8 <main+0xc0>)
 8000f90:	2200      	movs	r2, #0
 8000f92:	701a      	strb	r2, [r3, #0]
		  find_max_frequency();
 8000f94:	f000 fa3e 	bl	8001414 <find_max_frequency>
	  }

	  if(fft_done){
 8000f98:	4b0c      	ldr	r3, [pc, #48]	@ (8000fcc <main+0xc4>)
 8000f9a:	781b      	ldrb	r3, [r3, #0]
 8000f9c:	b2db      	uxtb	r3, r3
 8000f9e:	2b00      	cmp	r3, #0
 8000fa0:	d0e9      	beq.n	8000f76 <main+0x6e>
		  fft_done = false;
 8000fa2:	4b0a      	ldr	r3, [pc, #40]	@ (8000fcc <main+0xc4>)
 8000fa4:	2200      	movs	r2, #0
 8000fa6:	701a      	strb	r2, [r3, #0]
		  show_values();
 8000fa8:	f000 fa6e 	bl	8001488 <show_values>
	  if(data_ready_flag){
 8000fac:	e7e3      	b.n	8000f76 <main+0x6e>
 8000fae:	bf00      	nop
 8000fb0:	40020000 	.word	0x40020000
 8000fb4:	200062f0 	.word	0x200062f0
 8000fb8:	200022ec 	.word	0x200022ec
 8000fbc:	200021fc 	.word	0x200021fc
 8000fc0:	2000b30c 	.word	0x2000b30c
 8000fc4:	200062ec 	.word	0x200062ec
 8000fc8:	200062ed 	.word	0x200062ed
 8000fcc:	200062ee 	.word	0x200062ee

08000fd0 <SystemClock_Config>:
/**
  * @brief System Clock Configuration
  * @retval None
  */
void SystemClock_Config(void)
{
 8000fd0:	b580      	push	{r7, lr}
 8000fd2:	b094      	sub	sp, #80	@ 0x50
 8000fd4:	af00      	add	r7, sp, #0
  RCC_OscInitTypeDef RCC_OscInitStruct = {0};
 8000fd6:	f107 0320 	add.w	r3, r7, #32
 8000fda:	2230      	movs	r2, #48	@ 0x30
 8000fdc:	2100      	movs	r1, #0
 8000fde:	4618      	mov	r0, r3
 8000fe0:	f007 f834 	bl	800804c <memset>
  RCC_ClkInitTypeDef RCC_ClkInitStruct = {0};
 8000fe4:	f107 030c 	add.w	r3, r7, #12
 8000fe8:	2200      	movs	r2, #0
 8000fea:	601a      	str	r2, [r3, #0]
 8000fec:	605a      	str	r2, [r3, #4]
 8000fee:	609a      	str	r2, [r3, #8]
 8000ff0:	60da      	str	r2, [r3, #12]
 8000ff2:	611a      	str	r2, [r3, #16]

  /** Configure the main internal regulator output voltage
  */
  __HAL_RCC_PWR_CLK_ENABLE();
 8000ff4:	2300      	movs	r3, #0
 8000ff6:	60bb      	str	r3, [r7, #8]
 8000ff8:	4b28      	ldr	r3, [pc, #160]	@ (800109c <SystemClock_Config+0xcc>)
 8000ffa:	6c1b      	ldr	r3, [r3, #64]	@ 0x40
 8000ffc:	4a27      	ldr	r2, [pc, #156]	@ (800109c <SystemClock_Config+0xcc>)
 8000ffe:	f043 5380 	orr.w	r3, r3, #268435456	@ 0x10000000
 8001002:	6413      	str	r3, [r2, #64]	@ 0x40
 8001004:	4b25      	ldr	r3, [pc, #148]	@ (800109c <SystemClock_Config+0xcc>)
 8001006:	6c1b      	ldr	r3, [r3, #64]	@ 0x40
 8001008:	f003 5380 	and.w	r3, r3, #268435456	@ 0x10000000
 800100c:	60bb      	str	r3, [r7, #8]
 800100e:	68bb      	ldr	r3, [r7, #8]
  __HAL_PWR_VOLTAGESCALING_CONFIG(PWR_REGULATOR_VOLTAGE_SCALE2);
 8001010:	2300      	movs	r3, #0
 8001012:	607b      	str	r3, [r7, #4]
 8001014:	4b22      	ldr	r3, [pc, #136]	@ (80010a0 <SystemClock_Config+0xd0>)
 8001016:	681b      	ldr	r3, [r3, #0]
 8001018:	f423 4340 	bic.w	r3, r3, #49152	@ 0xc000
 800101c:	4a20      	ldr	r2, [pc, #128]	@ (80010a0 <SystemClock_Config+0xd0>)
 800101e:	f443 4300 	orr.w	r3, r3, #32768	@ 0x8000
 8001022:	6013      	str	r3, [r2, #0]
 8001024:	4b1e      	ldr	r3, [pc, #120]	@ (80010a0 <SystemClock_Config+0xd0>)
 8001026:	681b      	ldr	r3, [r3, #0]
 8001028:	f403 4340 	and.w	r3, r3, #49152	@ 0xc000
 800102c:	607b      	str	r3, [r7, #4]
 800102e:	687b      	ldr	r3, [r7, #4]

  /** Initializes the RCC Oscillators according to the specified parameters
  * in the RCC_OscInitTypeDef structure.
  */
  RCC_OscInitStruct.OscillatorType = RCC_OSCILLATORTYPE_HSI;
 8001030:	2302      	movs	r3, #2
 8001032:	623b      	str	r3, [r7, #32]
  RCC_OscInitStruct.HSIState = RCC_HSI_ON;
 8001034:	2301      	movs	r3, #1
 8001036:	62fb      	str	r3, [r7, #44]	@ 0x2c
  RCC_OscInitStruct.HSICalibrationValue = RCC_HSICALIBRATION_DEFAULT;
 8001038:	2310      	movs	r3, #16
 800103a:	633b      	str	r3, [r7, #48]	@ 0x30
  RCC_OscInitStruct.PLL.PLLState = RCC_PLL_ON;
 800103c:	2302      	movs	r3, #2
 800103e:	63bb      	str	r3, [r7, #56]	@ 0x38
  RCC_OscInitStruct.PLL.PLLSource = RCC_PLLSOURCE_HSI;
 8001040:	2300      	movs	r3, #0
 8001042:	63fb      	str	r3, [r7, #60]	@ 0x3c
  RCC_OscInitStruct.PLL.PLLM = 8;
 8001044:	2308      	movs	r3, #8
 8001046:	643b      	str	r3, [r7, #64]	@ 0x40
  RCC_OscInitStruct.PLL.PLLN = 84;
 8001048:	2354      	movs	r3, #84	@ 0x54
 800104a:	647b      	str	r3, [r7, #68]	@ 0x44
  RCC_OscInitStruct.PLL.PLLP = RCC_PLLP_DIV2;
 800104c:	2302      	movs	r3, #2
 800104e:	64bb      	str	r3, [r7, #72]	@ 0x48
  RCC_OscInitStruct.PLL.PLLQ = 4;
 8001050:	2304      	movs	r3, #4
 8001052:	64fb      	str	r3, [r7, #76]	@ 0x4c
  if (HAL_RCC_OscConfig(&RCC_OscInitStruct) != HAL_OK)
 8001054:	f107 0320 	add.w	r3, r7, #32
 8001058:	4618      	mov	r0, r3
 800105a:	f005 f89b 	bl	8006194 <HAL_RCC_OscConfig>
 800105e:	4603      	mov	r3, r0
 8001060:	2b00      	cmp	r3, #0
 8001062:	d001      	beq.n	8001068 <SystemClock_Config+0x98>
  {
    Error_Handler();
 8001064:	f000 faec 	bl	8001640 <Error_Handler>
  }

  /** Initializes the CPU, AHB and APB buses clocks
  */
  RCC_ClkInitStruct.ClockType = RCC_CLOCKTYPE_HCLK|RCC_CLOCKTYPE_SYSCLK
 8001068:	230f      	movs	r3, #15
 800106a:	60fb      	str	r3, [r7, #12]
                              |RCC_CLOCKTYPE_PCLK1|RCC_CLOCKTYPE_PCLK2;
  RCC_ClkInitStruct.SYSCLKSource = RCC_SYSCLKSOURCE_PLLCLK;
 800106c:	2302      	movs	r3, #2
 800106e:	613b      	str	r3, [r7, #16]
  RCC_ClkInitStruct.AHBCLKDivider = RCC_SYSCLK_DIV1;
 8001070:	2300      	movs	r3, #0
 8001072:	617b      	str	r3, [r7, #20]
  RCC_ClkInitStruct.APB1CLKDivider = RCC_HCLK_DIV2;
 8001074:	f44f 5380 	mov.w	r3, #4096	@ 0x1000
 8001078:	61bb      	str	r3, [r7, #24]
  RCC_ClkInitStruct.APB2CLKDivider = RCC_HCLK_DIV1;
 800107a:	2300      	movs	r3, #0
 800107c:	61fb      	str	r3, [r7, #28]

  if (HAL_RCC_ClockConfig(&RCC_ClkInitStruct, FLASH_LATENCY_2) != HAL_OK)
 800107e:	f107 030c 	add.w	r3, r7, #12
 8001082:	2102      	movs	r1, #2
 8001084:	4618      	mov	r0, r3
 8001086:	f005 fafd 	bl	8006684 <HAL_RCC_ClockConfig>
 800108a:	4603      	mov	r3, r0
 800108c:	2b00      	cmp	r3, #0
 800108e:	d001      	beq.n	8001094 <SystemClock_Config+0xc4>
  {
    Error_Handler();
 8001090:	f000 fad6 	bl	8001640 <Error_Handler>
  }
}
 8001094:	bf00      	nop
 8001096:	3750      	adds	r7, #80	@ 0x50
 8001098:	46bd      	mov	sp, r7
 800109a:	bd80      	pop	{r7, pc}
 800109c:	40023800 	.word	0x40023800
 80010a0:	40007000 	.word	0x40007000

080010a4 <MX_CRC_Init>:
  * @brief CRC Initialization Function
  * @param None
  * @retval None
  */
static void MX_CRC_Init(void)
{
 80010a4:	b580      	push	{r7, lr}
 80010a6:	af00      	add	r7, sp, #0
  /* USER CODE END CRC_Init 0 */

  /* USER CODE BEGIN CRC_Init 1 */

  /* USER CODE END CRC_Init 1 */
  hcrc.Instance = CRC;
 80010a8:	4b06      	ldr	r3, [pc, #24]	@ (80010c4 <MX_CRC_Init+0x20>)
 80010aa:	4a07      	ldr	r2, [pc, #28]	@ (80010c8 <MX_CRC_Init+0x24>)
 80010ac:	601a      	str	r2, [r3, #0]
  if (HAL_CRC_Init(&hcrc) != HAL_OK)
 80010ae:	4805      	ldr	r0, [pc, #20]	@ (80010c4 <MX_CRC_Init+0x20>)
 80010b0:	f003 fda3 	bl	8004bfa <HAL_CRC_Init>
 80010b4:	4603      	mov	r3, r0
 80010b6:	2b00      	cmp	r3, #0
 80010b8:	d001      	beq.n	80010be <MX_CRC_Init+0x1a>
  {
    Error_Handler();
 80010ba:	f000 fac1 	bl	8001640 <Error_Handler>
  }
  /* USER CODE BEGIN CRC_Init 2 */

  /* USER CODE END CRC_Init 2 */

}
 80010be:	bf00      	nop
 80010c0:	bd80      	pop	{r7, pc}
 80010c2:	bf00      	nop
 80010c4:	200021f4 	.word	0x200021f4
 80010c8:	40023000 	.word	0x40023000

080010cc <MX_I2S3_Init>:
  * @brief I2S3 Initialization Function
  * @param None
  * @retval None
  */
static void MX_I2S3_Init(void)
{
 80010cc:	b580      	push	{r7, lr}
 80010ce:	af00      	add	r7, sp, #0
  /* USER CODE END I2S3_Init 0 */

  /* USER CODE BEGIN I2S3_Init 1 */

  /* USER CODE END I2S3_Init 1 */
  hi2s3.Instance = SPI3;
 80010d0:	4b13      	ldr	r3, [pc, #76]	@ (8001120 <MX_I2S3_Init+0x54>)
 80010d2:	4a14      	ldr	r2, [pc, #80]	@ (8001124 <MX_I2S3_Init+0x58>)
 80010d4:	601a      	str	r2, [r3, #0]
  hi2s3.Init.Mode = I2S_MODE_MASTER_RX;
 80010d6:	4b12      	ldr	r3, [pc, #72]	@ (8001120 <MX_I2S3_Init+0x54>)
 80010d8:	f44f 7240 	mov.w	r2, #768	@ 0x300
 80010dc:	605a      	str	r2, [r3, #4]
  hi2s3.Init.Standard = I2S_STANDARD_PHILIPS;
 80010de:	4b10      	ldr	r3, [pc, #64]	@ (8001120 <MX_I2S3_Init+0x54>)
 80010e0:	2200      	movs	r2, #0
 80010e2:	609a      	str	r2, [r3, #8]
  hi2s3.Init.DataFormat = I2S_DATAFORMAT_24B;
 80010e4:	4b0e      	ldr	r3, [pc, #56]	@ (8001120 <MX_I2S3_Init+0x54>)
 80010e6:	2203      	movs	r2, #3
 80010e8:	60da      	str	r2, [r3, #12]
  hi2s3.Init.MCLKOutput = I2S_MCLKOUTPUT_DISABLE;
 80010ea:	4b0d      	ldr	r3, [pc, #52]	@ (8001120 <MX_I2S3_Init+0x54>)
 80010ec:	2200      	movs	r2, #0
 80010ee:	611a      	str	r2, [r3, #16]
  hi2s3.Init.AudioFreq = I2S_AUDIOFREQ_48K;
 80010f0:	4b0b      	ldr	r3, [pc, #44]	@ (8001120 <MX_I2S3_Init+0x54>)
 80010f2:	f64b 3280 	movw	r2, #48000	@ 0xbb80
 80010f6:	615a      	str	r2, [r3, #20]
  hi2s3.Init.CPOL = I2S_CPOL_LOW;
 80010f8:	4b09      	ldr	r3, [pc, #36]	@ (8001120 <MX_I2S3_Init+0x54>)
 80010fa:	2200      	movs	r2, #0
 80010fc:	619a      	str	r2, [r3, #24]
  hi2s3.Init.ClockSource = I2S_CLOCK_PLL;
 80010fe:	4b08      	ldr	r3, [pc, #32]	@ (8001120 <MX_I2S3_Init+0x54>)
 8001100:	2200      	movs	r2, #0
 8001102:	61da      	str	r2, [r3, #28]
  hi2s3.Init.FullDuplexMode = I2S_FULLDUPLEXMODE_DISABLE;
 8001104:	4b06      	ldr	r3, [pc, #24]	@ (8001120 <MX_I2S3_Init+0x54>)
 8001106:	2200      	movs	r2, #0
 8001108:	621a      	str	r2, [r3, #32]
  if (HAL_I2S_Init(&hi2s3) != HAL_OK)
 800110a:	4805      	ldr	r0, [pc, #20]	@ (8001120 <MX_I2S3_Init+0x54>)
 800110c:	f004 faa0 	bl	8005650 <HAL_I2S_Init>
 8001110:	4603      	mov	r3, r0
 8001112:	2b00      	cmp	r3, #0
 8001114:	d001      	beq.n	800111a <MX_I2S3_Init+0x4e>
  {
    Error_Handler();
 8001116:	f000 fa93 	bl	8001640 <Error_Handler>
  }
  /* USER CODE BEGIN I2S3_Init 2 */

  /* USER CODE END I2S3_Init 2 */

}
 800111a:	bf00      	nop
 800111c:	bd80      	pop	{r7, pc}
 800111e:	bf00      	nop
 8001120:	200021fc 	.word	0x200021fc
 8001124:	40003c00 	.word	0x40003c00

08001128 <MX_USART2_UART_Init>:
  * @brief USART2 Initialization Function
  * @param None
  * @retval None
  */
static void MX_USART2_UART_Init(void)
{
 8001128:	b580      	push	{r7, lr}
 800112a:	af00      	add	r7, sp, #0
  /* USER CODE END USART2_Init 0 */

  /* USER CODE BEGIN USART2_Init 1 */

  /* USER CODE END USART2_Init 1 */
  huart2.Instance = USART2;
 800112c:	4b11      	ldr	r3, [pc, #68]	@ (8001174 <MX_USART2_UART_Init+0x4c>)
 800112e:	4a12      	ldr	r2, [pc, #72]	@ (8001178 <MX_USART2_UART_Init+0x50>)
 8001130:	601a      	str	r2, [r3, #0]
  huart2.Init.BaudRate = 115200;
 8001132:	4b10      	ldr	r3, [pc, #64]	@ (8001174 <MX_USART2_UART_Init+0x4c>)
 8001134:	f44f 32e1 	mov.w	r2, #115200	@ 0x1c200
 8001138:	605a      	str	r2, [r3, #4]
  huart2.Init.WordLength = UART_WORDLENGTH_8B;
 800113a:	4b0e      	ldr	r3, [pc, #56]	@ (8001174 <MX_USART2_UART_Init+0x4c>)
 800113c:	2200      	movs	r2, #0
 800113e:	609a      	str	r2, [r3, #8]
  huart2.Init.StopBits = UART_STOPBITS_1;
 8001140:	4b0c      	ldr	r3, [pc, #48]	@ (8001174 <MX_USART2_UART_Init+0x4c>)
 8001142:	2200      	movs	r2, #0
 8001144:	60da      	str	r2, [r3, #12]
  huart2.Init.Parity = UART_PARITY_NONE;
 8001146:	4b0b      	ldr	r3, [pc, #44]	@ (8001174 <MX_USART2_UART_Init+0x4c>)
 8001148:	2200      	movs	r2, #0
 800114a:	611a      	str	r2, [r3, #16]
  huart2.Init.Mode = UART_MODE_TX_RX;
 800114c:	4b09      	ldr	r3, [pc, #36]	@ (8001174 <MX_USART2_UART_Init+0x4c>)
 800114e:	220c      	movs	r2, #12
 8001150:	615a      	str	r2, [r3, #20]
  huart2.Init.HwFlowCtl = UART_HWCONTROL_NONE;
 8001152:	4b08      	ldr	r3, [pc, #32]	@ (8001174 <MX_USART2_UART_Init+0x4c>)
 8001154:	2200      	movs	r2, #0
 8001156:	619a      	str	r2, [r3, #24]
  huart2.Init.OverSampling = UART_OVERSAMPLING_16;
 8001158:	4b06      	ldr	r3, [pc, #24]	@ (8001174 <MX_USART2_UART_Init+0x4c>)
 800115a:	2200      	movs	r2, #0
 800115c:	61da      	str	r2, [r3, #28]
  if (HAL_UART_Init(&huart2) != HAL_OK)
 800115e:	4805      	ldr	r0, [pc, #20]	@ (8001174 <MX_USART2_UART_Init+0x4c>)
 8001160:	f005 fdbc 	bl	8006cdc <HAL_UART_Init>
 8001164:	4603      	mov	r3, r0
 8001166:	2b00      	cmp	r3, #0
 8001168:	d001      	beq.n	800116e <MX_USART2_UART_Init+0x46>
  {
    Error_Handler();
 800116a:	f000 fa69 	bl	8001640 <Error_Handler>
  }
  /* USER CODE BEGIN USART2_Init 2 */

  /* USER CODE END USART2_Init 2 */

}
 800116e:	bf00      	nop
 8001170:	bd80      	pop	{r7, pc}
 8001172:	bf00      	nop
 8001174:	200022a4 	.word	0x200022a4
 8001178:	40004400 	.word	0x40004400

0800117c <MX_DMA_Init>:

/**
  * Enable DMA controller clock
  */
static void MX_DMA_Init(void)
{
 800117c:	b580      	push	{r7, lr}
 800117e:	b082      	sub	sp, #8
 8001180:	af00      	add	r7, sp, #0

  /* DMA controller clock enable */
  __HAL_RCC_DMA1_CLK_ENABLE();
 8001182:	2300      	movs	r3, #0
 8001184:	607b      	str	r3, [r7, #4]
 8001186:	4b0c      	ldr	r3, [pc, #48]	@ (80011b8 <MX_DMA_Init+0x3c>)
 8001188:	6b1b      	ldr	r3, [r3, #48]	@ 0x30
 800118a:	4a0b      	ldr	r2, [pc, #44]	@ (80011b8 <MX_DMA_Init+0x3c>)
 800118c:	f443 1300 	orr.w	r3, r3, #2097152	@ 0x200000
 8001190:	6313      	str	r3, [r2, #48]	@ 0x30
 8001192:	4b09      	ldr	r3, [pc, #36]	@ (80011b8 <MX_DMA_Init+0x3c>)
 8001194:	6b1b      	ldr	r3, [r3, #48]	@ 0x30
 8001196:	f403 1300 	and.w	r3, r3, #2097152	@ 0x200000
 800119a:	607b      	str	r3, [r7, #4]
 800119c:	687b      	ldr	r3, [r7, #4]

  /* DMA interrupt init */
  /* DMA1_Stream0_IRQn interrupt configuration */
  HAL_NVIC_SetPriority(DMA1_Stream0_IRQn, 0, 0);
 800119e:	2200      	movs	r2, #0
 80011a0:	2100      	movs	r1, #0
 80011a2:	200b      	movs	r0, #11
 80011a4:	f003 fcf3 	bl	8004b8e <HAL_NVIC_SetPriority>
  HAL_NVIC_EnableIRQ(DMA1_Stream0_IRQn);
 80011a8:	200b      	movs	r0, #11
 80011aa:	f003 fd0c 	bl	8004bc6 <HAL_NVIC_EnableIRQ>

}
 80011ae:	bf00      	nop
 80011b0:	3708      	adds	r7, #8
 80011b2:	46bd      	mov	sp, r7
 80011b4:	bd80      	pop	{r7, pc}
 80011b6:	bf00      	nop
 80011b8:	40023800 	.word	0x40023800

080011bc <MX_GPIO_Init>:
  * @brief GPIO Initialization Function
  * @param None
  * @retval None
  */
static void MX_GPIO_Init(void)
{
 80011bc:	b580      	push	{r7, lr}
 80011be:	b08a      	sub	sp, #40	@ 0x28
 80011c0:	af00      	add	r7, sp, #0
  GPIO_InitTypeDef GPIO_InitStruct = {0};
 80011c2:	f107 0314 	add.w	r3, r7, #20
 80011c6:	2200      	movs	r2, #0
 80011c8:	601a      	str	r2, [r3, #0]
 80011ca:	605a      	str	r2, [r3, #4]
 80011cc:	609a      	str	r2, [r3, #8]
 80011ce:	60da      	str	r2, [r3, #12]
 80011d0:	611a      	str	r2, [r3, #16]
  /* USER CODE BEGIN MX_GPIO_Init_1 */

  /* USER CODE END MX_GPIO_Init_1 */

  /* GPIO Ports Clock Enable */
  __HAL_RCC_GPIOC_CLK_ENABLE();
 80011d2:	2300      	movs	r3, #0
 80011d4:	613b      	str	r3, [r7, #16]
 80011d6:	4b4d      	ldr	r3, [pc, #308]	@ (800130c <MX_GPIO_Init+0x150>)
 80011d8:	6b1b      	ldr	r3, [r3, #48]	@ 0x30
 80011da:	4a4c      	ldr	r2, [pc, #304]	@ (800130c <MX_GPIO_Init+0x150>)
 80011dc:	f043 0304 	orr.w	r3, r3, #4
 80011e0:	6313      	str	r3, [r2, #48]	@ 0x30
 80011e2:	4b4a      	ldr	r3, [pc, #296]	@ (800130c <MX_GPIO_Init+0x150>)
 80011e4:	6b1b      	ldr	r3, [r3, #48]	@ 0x30
 80011e6:	f003 0304 	and.w	r3, r3, #4
 80011ea:	613b      	str	r3, [r7, #16]
 80011ec:	693b      	ldr	r3, [r7, #16]
  __HAL_RCC_GPIOH_CLK_ENABLE();
 80011ee:	2300      	movs	r3, #0
 80011f0:	60fb      	str	r3, [r7, #12]
 80011f2:	4b46      	ldr	r3, [pc, #280]	@ (800130c <MX_GPIO_Init+0x150>)
 80011f4:	6b1b      	ldr	r3, [r3, #48]	@ 0x30
 80011f6:	4a45      	ldr	r2, [pc, #276]	@ (800130c <MX_GPIO_Init+0x150>)
 80011f8:	f043 0380 	orr.w	r3, r3, #128	@ 0x80
 80011fc:	6313      	str	r3, [r2, #48]	@ 0x30
 80011fe:	4b43      	ldr	r3, [pc, #268]	@ (800130c <MX_GPIO_Init+0x150>)
 8001200:	6b1b      	ldr	r3, [r3, #48]	@ 0x30
 8001202:	f003 0380 	and.w	r3, r3, #128	@ 0x80
 8001206:	60fb      	str	r3, [r7, #12]
 8001208:	68fb      	ldr	r3, [r7, #12]
  __HAL_RCC_GPIOA_CLK_ENABLE();
 800120a:	2300      	movs	r3, #0
 800120c:	60bb      	str	r3, [r7, #8]
 800120e:	4b3f      	ldr	r3, [pc, #252]	@ (800130c <MX_GPIO_Init+0x150>)
 8001210:	6b1b      	ldr	r3, [r3, #48]	@ 0x30
 8001212:	4a3e      	ldr	r2, [pc, #248]	@ (800130c <MX_GPIO_Init+0x150>)
 8001214:	f043 0301 	orr.w	r3, r3, #1
 8001218:	6313      	str	r3, [r2, #48]	@ 0x30
 800121a:	4b3c      	ldr	r3, [pc, #240]	@ (800130c <MX_GPIO_Init+0x150>)
 800121c:	6b1b      	ldr	r3, [r3, #48]	@ 0x30
 800121e:	f003 0301 	and.w	r3, r3, #1
 8001222:	60bb      	str	r3, [r7, #8]
 8001224:	68bb      	ldr	r3, [r7, #8]
  __HAL_RCC_GPIOB_CLK_ENABLE();
 8001226:	2300      	movs	r3, #0
 8001228:	607b      	str	r3, [r7, #4]
 800122a:	4b38      	ldr	r3, [pc, #224]	@ (800130c <MX_GPIO_Init+0x150>)
 800122c:	6b1b      	ldr	r3, [r3, #48]	@ 0x30
 800122e:	4a37      	ldr	r2, [pc, #220]	@ (800130c <MX_GPIO_Init+0x150>)
 8001230:	f043 0302 	orr.w	r3, r3, #2
 8001234:	6313      	str	r3, [r2, #48]	@ 0x30
 8001236:	4b35      	ldr	r3, [pc, #212]	@ (800130c <MX_GPIO_Init+0x150>)
 8001238:	6b1b      	ldr	r3, [r3, #48]	@ 0x30
 800123a:	f003 0302 	and.w	r3, r3, #2
 800123e:	607b      	str	r3, [r7, #4]
 8001240:	687b      	ldr	r3, [r7, #4]
  __HAL_RCC_GPIOD_CLK_ENABLE();
 8001242:	2300      	movs	r3, #0
 8001244:	603b      	str	r3, [r7, #0]
 8001246:	4b31      	ldr	r3, [pc, #196]	@ (800130c <MX_GPIO_Init+0x150>)
 8001248:	6b1b      	ldr	r3, [r3, #48]	@ 0x30
 800124a:	4a30      	ldr	r2, [pc, #192]	@ (800130c <MX_GPIO_Init+0x150>)
 800124c:	f043 0308 	orr.w	r3, r3, #8
 8001250:	6313      	str	r3, [r2, #48]	@ 0x30
 8001252:	4b2e      	ldr	r3, [pc, #184]	@ (800130c <MX_GPIO_Init+0x150>)
 8001254:	6b1b      	ldr	r3, [r3, #48]	@ 0x30
 8001256:	f003 0308 	and.w	r3, r3, #8
 800125a:	603b      	str	r3, [r7, #0]
 800125c:	683b      	ldr	r3, [r7, #0]

  /*Configure GPIO pin Output Level */
  HAL_GPIO_WritePin(LED1_GPIO_Port, LED1_Pin, GPIO_PIN_RESET);
 800125e:	2200      	movs	r2, #0
 8001260:	2120      	movs	r1, #32
 8001262:	482b      	ldr	r0, [pc, #172]	@ (8001310 <MX_GPIO_Init+0x154>)
 8001264:	f004 f9da 	bl	800561c <HAL_GPIO_WritePin>

  /*Configure GPIO pins : PC13 PC14 PC15 PC0
                           PC1 PC2 PC3 PC4
                           PC5 PC6 PC7 PC8
                           PC9 PC11 */
  GPIO_InitStruct.Pin = GPIO_PIN_13|GPIO_PIN_14|GPIO_PIN_15|GPIO_PIN_0
 8001268:	f64e 33ff 	movw	r3, #60415	@ 0xebff
 800126c:	617b      	str	r3, [r7, #20]
                          |GPIO_PIN_1|GPIO_PIN_2|GPIO_PIN_3|GPIO_PIN_4
                          |GPIO_PIN_5|GPIO_PIN_6|GPIO_PIN_7|GPIO_PIN_8
                          |GPIO_PIN_9|GPIO_PIN_11;
  GPIO_InitStruct.Mode = GPIO_MODE_ANALOG;
 800126e:	2303      	movs	r3, #3
 8001270:	61bb      	str	r3, [r7, #24]
  GPIO_InitStruct.Pull = GPIO_NOPULL;
 8001272:	2300      	movs	r3, #0
 8001274:	61fb      	str	r3, [r7, #28]
  HAL_GPIO_Init(GPIOC, &GPIO_InitStruct);
 8001276:	f107 0314 	add.w	r3, r7, #20
 800127a:	4619      	mov	r1, r3
 800127c:	4825      	ldr	r0, [pc, #148]	@ (8001314 <MX_GPIO_Init+0x158>)
 800127e:	f004 f849 	bl	8005314 <HAL_GPIO_Init>

  /*Configure GPIO pins : PH0 PH1 */
  GPIO_InitStruct.Pin = GPIO_PIN_0|GPIO_PIN_1;
 8001282:	2303      	movs	r3, #3
 8001284:	617b      	str	r3, [r7, #20]
  GPIO_InitStruct.Mode = GPIO_MODE_ANALOG;
 8001286:	2303      	movs	r3, #3
 8001288:	61bb      	str	r3, [r7, #24]
  GPIO_InitStruct.Pull = GPIO_NOPULL;
 800128a:	2300      	movs	r3, #0
 800128c:	61fb      	str	r3, [r7, #28]
  HAL_GPIO_Init(GPIOH, &GPIO_InitStruct);
 800128e:	f107 0314 	add.w	r3, r7, #20
 8001292:	4619      	mov	r1, r3
 8001294:	4820      	ldr	r0, [pc, #128]	@ (8001318 <MX_GPIO_Init+0x15c>)
 8001296:	f004 f83d 	bl	8005314 <HAL_GPIO_Init>

  /*Configure GPIO pins : PA0 PA1 PA6 PA7
                           PA8 PA9 PA10 PA11
                           PA12 PA15 */
  GPIO_InitStruct.Pin = GPIO_PIN_0|GPIO_PIN_1|GPIO_PIN_6|GPIO_PIN_7
 800129a:	f649 73c3 	movw	r3, #40899	@ 0x9fc3
 800129e:	617b      	str	r3, [r7, #20]
                          |GPIO_PIN_8|GPIO_PIN_9|GPIO_PIN_10|GPIO_PIN_11
                          |GPIO_PIN_12|GPIO_PIN_15;
  GPIO_InitStruct.Mode = GPIO_MODE_ANALOG;
 80012a0:	2303      	movs	r3, #3
 80012a2:	61bb      	str	r3, [r7, #24]
  GPIO_InitStruct.Pull = GPIO_NOPULL;
 80012a4:	2300      	movs	r3, #0
 80012a6:	61fb      	str	r3, [r7, #28]
  HAL_GPIO_Init(GPIOA, &GPIO_InitStruct);
 80012a8:	f107 0314 	add.w	r3, r7, #20
 80012ac:	4619      	mov	r1, r3
 80012ae:	4818      	ldr	r0, [pc, #96]	@ (8001310 <MX_GPIO_Init+0x154>)
 80012b0:	f004 f830 	bl	8005314 <HAL_GPIO_Init>

  /*Configure GPIO pin : LED1_Pin */
  GPIO_InitStruct.Pin = LED1_Pin;
 80012b4:	2320      	movs	r3, #32
 80012b6:	617b      	str	r3, [r7, #20]
  GPIO_InitStruct.Mode = GPIO_MODE_OUTPUT_PP;
 80012b8:	2301      	movs	r3, #1
 80012ba:	61bb      	str	r3, [r7, #24]
  GPIO_InitStruct.Pull = GPIO_NOPULL;
 80012bc:	2300      	movs	r3, #0
 80012be:	61fb      	str	r3, [r7, #28]
  GPIO_InitStruct.Speed = GPIO_SPEED_FREQ_LOW;
 80012c0:	2300      	movs	r3, #0
 80012c2:	623b      	str	r3, [r7, #32]
  HAL_GPIO_Init(LED1_GPIO_Port, &GPIO_InitStruct);
 80012c4:	f107 0314 	add.w	r3, r7, #20
 80012c8:	4619      	mov	r1, r3
 80012ca:	4811      	ldr	r0, [pc, #68]	@ (8001310 <MX_GPIO_Init+0x154>)
 80012cc:	f004 f822 	bl	8005314 <HAL_GPIO_Init>

  /*Configure GPIO pins : PB0 PB1 PB2 PB10
                           PB12 PB13 PB14 PB15
                           PB3 PB4 PB5 PB6
                           PB7 PB8 PB9 */
  GPIO_InitStruct.Pin = GPIO_PIN_0|GPIO_PIN_1|GPIO_PIN_2|GPIO_PIN_10
 80012d0:	f24f 73ff 	movw	r3, #63487	@ 0xf7ff
 80012d4:	617b      	str	r3, [r7, #20]
                          |GPIO_PIN_12|GPIO_PIN_13|GPIO_PIN_14|GPIO_PIN_15
                          |GPIO_PIN_3|GPIO_PIN_4|GPIO_PIN_5|GPIO_PIN_6
                          |GPIO_PIN_7|GPIO_PIN_8|GPIO_PIN_9;
  GPIO_InitStruct.Mode = GPIO_MODE_ANALOG;
 80012d6:	2303      	movs	r3, #3
 80012d8:	61bb      	str	r3, [r7, #24]
  GPIO_InitStruct.Pull = GPIO_NOPULL;
 80012da:	2300      	movs	r3, #0
 80012dc:	61fb      	str	r3, [r7, #28]
  HAL_GPIO_Init(GPIOB, &GPIO_InitStruct);
 80012de:	f107 0314 	add.w	r3, r7, #20
 80012e2:	4619      	mov	r1, r3
 80012e4:	480d      	ldr	r0, [pc, #52]	@ (800131c <MX_GPIO_Init+0x160>)
 80012e6:	f004 f815 	bl	8005314 <HAL_GPIO_Init>

  /*Configure GPIO pin : PD2 */
  GPIO_InitStruct.Pin = GPIO_PIN_2;
 80012ea:	2304      	movs	r3, #4
 80012ec:	617b      	str	r3, [r7, #20]
  GPIO_InitStruct.Mode = GPIO_MODE_ANALOG;
 80012ee:	2303      	movs	r3, #3
 80012f0:	61bb      	str	r3, [r7, #24]
  GPIO_InitStruct.Pull = GPIO_NOPULL;
 80012f2:	2300      	movs	r3, #0
 80012f4:	61fb      	str	r3, [r7, #28]
  HAL_GPIO_Init(GPIOD, &GPIO_InitStruct);
 80012f6:	f107 0314 	add.w	r3, r7, #20
 80012fa:	4619      	mov	r1, r3
 80012fc:	4808      	ldr	r0, [pc, #32]	@ (8001320 <MX_GPIO_Init+0x164>)
 80012fe:	f004 f809 	bl	8005314 <HAL_GPIO_Init>

  /* USER CODE BEGIN MX_GPIO_Init_2 */

  /* USER CODE END MX_GPIO_Init_2 */
}
 8001302:	bf00      	nop
 8001304:	3728      	adds	r7, #40	@ 0x28
 8001306:	46bd      	mov	sp, r7
 8001308:	bd80      	pop	{r7, pc}
 800130a:	bf00      	nop
 800130c:	40023800 	.word	0x40023800
 8001310:	40020000 	.word	0x40020000
 8001314:	40020800 	.word	0x40020800
 8001318:	40021c00 	.word	0x40021c00
 800131c:	40020400 	.word	0x40020400
 8001320:	40020c00 	.word	0x40020c00

08001324 <process_data>:

/* USER CODE BEGIN 4 */
/**
 * @brief Reform incoming data from microphone into float or Q.15, to prepare them for FFT
 */
static void process_data(void){
 8001324:	b480      	push	{r7}
 8001326:	b085      	sub	sp, #20
 8001328:	af00      	add	r7, sp, #0
#if 1
	static int index = 0;
	for(size_t i=0; i < HALF_DOUBLE_BUFFER_SIZE; i=i+4){
 800132a:	2300      	movs	r3, #0
 800132c:	60fb      	str	r3, [r7, #12]
 800132e:	e04d      	b.n	80013cc <process_data+0xa8>
#if defined(USE_FLOAT32)
		float left_channel = (float) ((int32_t) ((int32_t)buf_ptr[i]<<16)|buf_ptr[i+1]);
		float right_channel = (float) ((int32_t) ((int32_t)buf_ptr[i+2]<<16)|buf_ptr[i+3]);
#elif defined(USE_Q31)
		float left_channel = (float) INT32_TO_FLOAT * ((((int32_t)buf_ptr[i]<<16)|buf_ptr[i+1])<<8);
 8001330:	4b32      	ldr	r3, [pc, #200]	@ (80013fc <process_data+0xd8>)
 8001332:	681a      	ldr	r2, [r3, #0]
 8001334:	68fb      	ldr	r3, [r7, #12]
 8001336:	005b      	lsls	r3, r3, #1
 8001338:	4413      	add	r3, r2
 800133a:	881b      	ldrh	r3, [r3, #0]
 800133c:	b29b      	uxth	r3, r3
 800133e:	041b      	lsls	r3, r3, #16
 8001340:	4a2e      	ldr	r2, [pc, #184]	@ (80013fc <process_data+0xd8>)
 8001342:	6811      	ldr	r1, [r2, #0]
 8001344:	68fa      	ldr	r2, [r7, #12]
 8001346:	3201      	adds	r2, #1
 8001348:	0052      	lsls	r2, r2, #1
 800134a:	440a      	add	r2, r1
 800134c:	8812      	ldrh	r2, [r2, #0]
 800134e:	b292      	uxth	r2, r2
 8001350:	4313      	orrs	r3, r2
 8001352:	021b      	lsls	r3, r3, #8
 8001354:	ee07 3a90 	vmov	s15, r3
 8001358:	eef8 7ae7 	vcvt.f32.s32	s15, s15
 800135c:	ed9f 7a28 	vldr	s14, [pc, #160]	@ 8001400 <process_data+0xdc>
 8001360:	ee67 7a87 	vmul.f32	s15, s15, s14
 8001364:	edc7 7a02 	vstr	s15, [r7, #8]
		float right_channel = (float) INT32_TO_FLOAT *((((int32_t)buf_ptr[i+2]<<16)|buf_ptr[i+3])<<8);
 8001368:	4b24      	ldr	r3, [pc, #144]	@ (80013fc <process_data+0xd8>)
 800136a:	681a      	ldr	r2, [r3, #0]
 800136c:	68fb      	ldr	r3, [r7, #12]
 800136e:	3302      	adds	r3, #2
 8001370:	005b      	lsls	r3, r3, #1
 8001372:	4413      	add	r3, r2
 8001374:	881b      	ldrh	r3, [r3, #0]
 8001376:	b29b      	uxth	r3, r3
 8001378:	041b      	lsls	r3, r3, #16
 800137a:	4a20      	ldr	r2, [pc, #128]	@ (80013fc <process_data+0xd8>)
 800137c:	6811      	ldr	r1, [r2, #0]
 800137e:	68fa      	ldr	r2, [r7, #12]
 8001380:	3203      	adds	r2, #3
 8001382:	0052      	lsls	r2, r2, #1
 8001384:	440a      	add	r2, r1
 8001386:	8812      	ldrh	r2, [r2, #0]
 8001388:	b292      	uxth	r2, r2
 800138a:	4313      	orrs	r3, r2
 800138c:	021b      	lsls	r3, r3, #8
 800138e:	ee07 3a90 	vmov	s15, r3
 8001392:	eef8 7ae7 	vcvt.f32.s32	s15, s15
 8001396:	ed9f 7a1a 	vldr	s14, [pc, #104]	@ 8001400 <process_data+0xdc>
 800139a:	ee67 7a87 	vmul.f32	s15, s15, s14
 800139e:	edc7 7a01 	vstr	s15, [r7, #4]
#endif

		fft_in[index] = left_channel + right_channel;
 80013a2:	4b18      	ldr	r3, [pc, #96]	@ (8001404 <process_data+0xe0>)
 80013a4:	681b      	ldr	r3, [r3, #0]
 80013a6:	ed97 7a02 	vldr	s14, [r7, #8]
 80013aa:	edd7 7a01 	vldr	s15, [r7, #4]
 80013ae:	ee77 7a27 	vadd.f32	s15, s14, s15
 80013b2:	4a15      	ldr	r2, [pc, #84]	@ (8001408 <process_data+0xe4>)
 80013b4:	009b      	lsls	r3, r3, #2
 80013b6:	4413      	add	r3, r2
 80013b8:	edc3 7a00 	vstr	s15, [r3]
		index++;
 80013bc:	4b11      	ldr	r3, [pc, #68]	@ (8001404 <process_data+0xe0>)
 80013be:	681b      	ldr	r3, [r3, #0]
 80013c0:	3301      	adds	r3, #1
 80013c2:	4a10      	ldr	r2, [pc, #64]	@ (8001404 <process_data+0xe0>)
 80013c4:	6013      	str	r3, [r2, #0]
	for(size_t i=0; i < HALF_DOUBLE_BUFFER_SIZE; i=i+4){
 80013c6:	68fb      	ldr	r3, [r7, #12]
 80013c8:	3304      	adds	r3, #4
 80013ca:	60fb      	str	r3, [r7, #12]
 80013cc:	68fb      	ldr	r3, [r7, #12]
 80013ce:	f5b3 5f80 	cmp.w	r3, #4096	@ 0x1000
 80013d2:	d3ad      	bcc.n	8001330 <process_data+0xc>
	}
#endif
	data_ready_flag = false;
 80013d4:	4b0d      	ldr	r3, [pc, #52]	@ (800140c <process_data+0xe8>)
 80013d6:	2200      	movs	r2, #0
 80013d8:	701a      	strb	r2, [r3, #0]

	if(index == FFT_SIZE){
 80013da:	4b0a      	ldr	r3, [pc, #40]	@ (8001404 <process_data+0xe0>)
 80013dc:	681b      	ldr	r3, [r3, #0]
 80013de:	f5b3 6f00 	cmp.w	r3, #2048	@ 0x800
 80013e2:	d105      	bne.n	80013f0 <process_data+0xcc>
		buffer_filled = true;
 80013e4:	4b0a      	ldr	r3, [pc, #40]	@ (8001410 <process_data+0xec>)
 80013e6:	2201      	movs	r2, #1
 80013e8:	701a      	strb	r2, [r3, #0]
		index = 0;
 80013ea:	4b06      	ldr	r3, [pc, #24]	@ (8001404 <process_data+0xe0>)
 80013ec:	2200      	movs	r2, #0
 80013ee:	601a      	str	r2, [r3, #0]
	}
}
 80013f0:	bf00      	nop
 80013f2:	3714      	adds	r7, #20
 80013f4:	46bd      	mov	sp, r7
 80013f6:	f85d 7b04 	ldr.w	r7, [sp], #4
 80013fa:	4770      	bx	lr
 80013fc:	20002000 	.word	0x20002000
 8001400:	2e4ccccd 	.word	0x2e4ccccd
 8001404:	2000d314 	.word	0x2000d314
 8001408:	2000630c 	.word	0x2000630c
 800140c:	200062ec 	.word	0x200062ec
 8001410:	200062ed 	.word	0x200062ed

08001414 <find_max_frequency>:

/**
 * @brief Apply Fast Fourier Trasnformation to incoming data, compute magnitude and choose the highest index bin
 */
static void find_max_frequency(void){
 8001414:	b580      	push	{r7, lr}
 8001416:	f5ad 5d00 	sub.w	sp, sp, #8192	@ 0x2000
 800141a:	af00      	add	r7, sp, #0

	float fft_in_filtered[FFT_SIZE];

	//Apply windowing to time data
	arm_mult_f32(fft_in,hanning_window,fft_in_filtered,FFT_SIZE);
 800141c:	463a      	mov	r2, r7
 800141e:	f44f 6300 	mov.w	r3, #2048	@ 0x800
 8001422:	4910      	ldr	r1, [pc, #64]	@ (8001464 <find_max_frequency+0x50>)
 8001424:	4810      	ldr	r0, [pc, #64]	@ (8001468 <find_max_frequency+0x54>)
 8001426:	f000 fb94 	bl	8001b52 <arm_mult_f32>

	//Apply (Real) Fast fft to input array
	arm_rfft_fast_f32(&hfft, fft_in_filtered, fft_out, ifft_flag);
 800142a:	4b10      	ldr	r3, [pc, #64]	@ (800146c <find_max_frequency+0x58>)
 800142c:	781b      	ldrb	r3, [r3, #0]
 800142e:	4639      	mov	r1, r7
 8001430:	4a0f      	ldr	r2, [pc, #60]	@ (8001470 <find_max_frequency+0x5c>)
 8001432:	4810      	ldr	r0, [pc, #64]	@ (8001474 <find_max_frequency+0x60>)
 8001434:	f003 f83b 	bl	80044ae <arm_rfft_fast_f32>
	//arm_rfft_fast_f32(&hfft, fft_in, fft_out, ifft_flag);

	//Convert complex array from output buffer to magnitude
	arm_cmplx_mag_f32(fft_out, fft_power, HALF_FFT_SIZE);
 8001438:	f44f 6280 	mov.w	r2, #1024	@ 0x400
 800143c:	490e      	ldr	r1, [pc, #56]	@ (8001478 <find_max_frequency+0x64>)
 800143e:	480c      	ldr	r0, [pc, #48]	@ (8001470 <find_max_frequency+0x5c>)
 8001440:	f000 fbaf 	bl	8001ba2 <arm_cmplx_mag_f32>

	//Compute maximum value from previous array
    arm_max_f32(fft_power, HALF_FFT_SIZE, &maxValue, &maxIndex);
 8001444:	4b0d      	ldr	r3, [pc, #52]	@ (800147c <find_max_frequency+0x68>)
 8001446:	4a0e      	ldr	r2, [pc, #56]	@ (8001480 <find_max_frequency+0x6c>)
 8001448:	f44f 6180 	mov.w	r1, #1024	@ 0x400
 800144c:	480a      	ldr	r0, [pc, #40]	@ (8001478 <find_max_frequency+0x64>)
 800144e:	f000 fbec 	bl	8001c2a <arm_max_f32>

    fft_done = true;
 8001452:	4b0c      	ldr	r3, [pc, #48]	@ (8001484 <find_max_frequency+0x70>)
 8001454:	2201      	movs	r2, #1
 8001456:	701a      	strb	r2, [r3, #0]
}
 8001458:	bf00      	nop
 800145a:	f507 5700 	add.w	r7, r7, #8192	@ 0x2000
 800145e:	46bd      	mov	sp, r7
 8001460:	bd80      	pop	{r7, pc}
 8001462:	bf00      	nop
 8001464:	20000000 	.word	0x20000000
 8001468:	2000630c 	.word	0x2000630c
 800146c:	20006308 	.word	0x20006308
 8001470:	2000830c 	.word	0x2000830c
 8001474:	200062f0 	.word	0x200062f0
 8001478:	2000a30c 	.word	0x2000a30c
 800147c:	2000d310 	.word	0x2000d310
 8001480:	2000d30c 	.word	0x2000d30c
 8001484:	200062ee 	.word	0x200062ee

08001488 <show_values>:

/**
 * @brief Display the results of the frequency transformation
 */
static void show_values(void){
 8001488:	b5b0      	push	{r4, r5, r7, lr}
 800148a:	f5ad 5d1c 	sub.w	sp, sp, #9984	@ 0x2700
 800148e:	b088      	sub	sp, #32
 8001490:	af02      	add	r7, sp, #8
//    	printf("frequency: None\r\n");
//    }else{
//    	printf("frequency: %f\r\n", (maxIndex * frequency_resolution));
//    }
#if 1
	char ch[10000] = {0};
 8001492:	f507 63e3 	add.w	r3, r7, #1816	@ 0x718
 8001496:	f5a3 63e3 	sub.w	r3, r3, #1816	@ 0x718
 800149a:	4618      	mov	r0, r3
 800149c:	f242 7310 	movw	r3, #10000	@ 0x2710
 80014a0:	461a      	mov	r2, r3
 80014a2:	2100      	movs	r1, #0
 80014a4:	f006 fdd2 	bl	800804c <memset>
	int len=0;
 80014a8:	2300      	movs	r3, #0
 80014aa:	f507 521c 	add.w	r2, r7, #9984	@ 0x2700
 80014ae:	f102 0214 	add.w	r2, r2, #20
 80014b2:	6013      	str	r3, [r2, #0]
	len+= snprintf(ch+len,sizeof(ch) - len,"[");
 80014b4:	f507 531c 	add.w	r3, r7, #9984	@ 0x2700
 80014b8:	f103 0314 	add.w	r3, r3, #20
 80014bc:	681a      	ldr	r2, [r3, #0]
 80014be:	f107 0318 	add.w	r3, r7, #24
 80014c2:	3b18      	subs	r3, #24
 80014c4:	1898      	adds	r0, r3, r2
 80014c6:	f507 531c 	add.w	r3, r7, #9984	@ 0x2700
 80014ca:	f103 0314 	add.w	r3, r3, #20
 80014ce:	681b      	ldr	r3, [r3, #0]
 80014d0:	f5c3 531c 	rsb	r3, r3, #9984	@ 0x2700
 80014d4:	3310      	adds	r3, #16
 80014d6:	4a3f      	ldr	r2, [pc, #252]	@ (80015d4 <show_values+0x14c>)
 80014d8:	4619      	mov	r1, r3
 80014da:	f006 fd3d 	bl	8007f58 <sniprintf>
 80014de:	4602      	mov	r2, r0
 80014e0:	f507 531c 	add.w	r3, r7, #9984	@ 0x2700
 80014e4:	f103 0314 	add.w	r3, r3, #20
 80014e8:	681b      	ldr	r3, [r3, #0]
 80014ea:	4413      	add	r3, r2
 80014ec:	f507 521c 	add.w	r2, r7, #9984	@ 0x2700
 80014f0:	f102 0214 	add.w	r2, r2, #20
 80014f4:	6013      	str	r3, [r2, #0]
	for(int i=0;i<HALF_FFT_SIZE;i++){
 80014f6:	2300      	movs	r3, #0
 80014f8:	f507 521c 	add.w	r2, r7, #9984	@ 0x2700
 80014fc:	f102 0210 	add.w	r2, r2, #16
 8001500:	6013      	str	r3, [r2, #0]
 8001502:	e03c      	b.n	800157e <show_values+0xf6>
		len+= snprintf(ch+len,sizeof(ch) - len,"%.1f,",fft_power[i]);
 8001504:	f507 531c 	add.w	r3, r7, #9984	@ 0x2700
 8001508:	f103 0314 	add.w	r3, r3, #20
 800150c:	681a      	ldr	r2, [r3, #0]
 800150e:	f107 0318 	add.w	r3, r7, #24
 8001512:	3b18      	subs	r3, #24
 8001514:	189d      	adds	r5, r3, r2
 8001516:	f507 531c 	add.w	r3, r7, #9984	@ 0x2700
 800151a:	f103 0314 	add.w	r3, r3, #20
 800151e:	681b      	ldr	r3, [r3, #0]
 8001520:	f5c3 541c 	rsb	r4, r3, #9984	@ 0x2700
 8001524:	3410      	adds	r4, #16
 8001526:	4a2c      	ldr	r2, [pc, #176]	@ (80015d8 <show_values+0x150>)
 8001528:	f507 531c 	add.w	r3, r7, #9984	@ 0x2700
 800152c:	f103 0310 	add.w	r3, r3, #16
 8001530:	681b      	ldr	r3, [r3, #0]
 8001532:	009b      	lsls	r3, r3, #2
 8001534:	4413      	add	r3, r2
 8001536:	681b      	ldr	r3, [r3, #0]
 8001538:	4618      	mov	r0, r3
 800153a:	f7ff f80d 	bl	8000558 <__aeabi_f2d>
 800153e:	4602      	mov	r2, r0
 8001540:	460b      	mov	r3, r1
 8001542:	e9cd 2300 	strd	r2, r3, [sp]
 8001546:	4a25      	ldr	r2, [pc, #148]	@ (80015dc <show_values+0x154>)
 8001548:	4621      	mov	r1, r4
 800154a:	4628      	mov	r0, r5
 800154c:	f006 fd04 	bl	8007f58 <sniprintf>
 8001550:	4602      	mov	r2, r0
 8001552:	f507 531c 	add.w	r3, r7, #9984	@ 0x2700
 8001556:	f103 0314 	add.w	r3, r3, #20
 800155a:	681b      	ldr	r3, [r3, #0]
 800155c:	4413      	add	r3, r2
 800155e:	f507 521c 	add.w	r2, r7, #9984	@ 0x2700
 8001562:	f102 0214 	add.w	r2, r2, #20
 8001566:	6013      	str	r3, [r2, #0]
	for(int i=0;i<HALF_FFT_SIZE;i++){
 8001568:	f507 531c 	add.w	r3, r7, #9984	@ 0x2700
 800156c:	f103 0310 	add.w	r3, r3, #16
 8001570:	681b      	ldr	r3, [r3, #0]
 8001572:	3301      	adds	r3, #1
 8001574:	f507 521c 	add.w	r2, r7, #9984	@ 0x2700
 8001578:	f102 0210 	add.w	r2, r2, #16
 800157c:	6013      	str	r3, [r2, #0]
 800157e:	f507 531c 	add.w	r3, r7, #9984	@ 0x2700
 8001582:	f103 0310 	add.w	r3, r3, #16
 8001586:	681b      	ldr	r3, [r3, #0]
 8001588:	f5b3 6f80 	cmp.w	r3, #1024	@ 0x400
 800158c:	dbba      	blt.n	8001504 <show_values+0x7c>
	}
	snprintf(ch+len-1,sizeof(ch)-len,"]\n");
 800158e:	f507 531c 	add.w	r3, r7, #9984	@ 0x2700
 8001592:	f103 0314 	add.w	r3, r3, #20
 8001596:	681b      	ldr	r3, [r3, #0]
 8001598:	1e5a      	subs	r2, r3, #1
 800159a:	f107 0318 	add.w	r3, r7, #24
 800159e:	3b18      	subs	r3, #24
 80015a0:	1898      	adds	r0, r3, r2
 80015a2:	f507 531c 	add.w	r3, r7, #9984	@ 0x2700
 80015a6:	f103 0314 	add.w	r3, r3, #20
 80015aa:	681b      	ldr	r3, [r3, #0]
 80015ac:	f5c3 531c 	rsb	r3, r3, #9984	@ 0x2700
 80015b0:	3310      	adds	r3, #16
 80015b2:	4a0b      	ldr	r2, [pc, #44]	@ (80015e0 <show_values+0x158>)
 80015b4:	4619      	mov	r1, r3
 80015b6:	f006 fccf 	bl	8007f58 <sniprintf>

	printf("%s",ch);
 80015ba:	f107 0318 	add.w	r3, r7, #24
 80015be:	3b18      	subs	r3, #24
 80015c0:	4619      	mov	r1, r3
 80015c2:	4808      	ldr	r0, [pc, #32]	@ (80015e4 <show_values+0x15c>)
 80015c4:	f006 fcb6 	bl	8007f34 <iprintf>
#else
	printf("[1,2,3,4,5,4,3,2,1,2]\n");
#endif

}
 80015c8:	bf00      	nop
 80015ca:	f507 571c 	add.w	r7, r7, #9984	@ 0x2700
 80015ce:	3718      	adds	r7, #24
 80015d0:	46bd      	mov	sp, r7
 80015d2:	bdb0      	pop	{r4, r5, r7, pc}
 80015d4:	0800ae98 	.word	0x0800ae98
 80015d8:	2000a30c 	.word	0x2000a30c
 80015dc:	0800ae9c 	.word	0x0800ae9c
 80015e0:	0800aea4 	.word	0x0800aea4
 80015e4:	0800aea8 	.word	0x0800aea8

080015e8 <HAL_I2S_RxHalfCpltCallback>:




void HAL_I2S_RxHalfCpltCallback(I2S_HandleTypeDef *hi2s){
 80015e8:	b480      	push	{r7}
 80015ea:	b083      	sub	sp, #12
 80015ec:	af00      	add	r7, sp, #0
 80015ee:	6078      	str	r0, [r7, #4]
	// Choose first half of double buffer
	buf_ptr = &mic_data[0];
 80015f0:	4b05      	ldr	r3, [pc, #20]	@ (8001608 <HAL_I2S_RxHalfCpltCallback+0x20>)
 80015f2:	4a06      	ldr	r2, [pc, #24]	@ (800160c <HAL_I2S_RxHalfCpltCallback+0x24>)
 80015f4:	601a      	str	r2, [r3, #0]

	data_ready_flag = true;
 80015f6:	4b06      	ldr	r3, [pc, #24]	@ (8001610 <HAL_I2S_RxHalfCpltCallback+0x28>)
 80015f8:	2201      	movs	r2, #1
 80015fa:	701a      	strb	r2, [r3, #0]
}
 80015fc:	bf00      	nop
 80015fe:	370c      	adds	r7, #12
 8001600:	46bd      	mov	sp, r7
 8001602:	f85d 7b04 	ldr.w	r7, [sp], #4
 8001606:	4770      	bx	lr
 8001608:	20002000 	.word	0x20002000
 800160c:	200022ec 	.word	0x200022ec
 8001610:	200062ec 	.word	0x200062ec

08001614 <HAL_I2S_RxCpltCallback>:

void HAL_I2S_RxCpltCallback(I2S_HandleTypeDef *hi2s){
 8001614:	b480      	push	{r7}
 8001616:	b083      	sub	sp, #12
 8001618:	af00      	add	r7, sp, #0
 800161a:	6078      	str	r0, [r7, #4]
	// Choose second half of double buffer
	buf_ptr = &mic_data[HALF_DOUBLE_BUFFER_SIZE];
 800161c:	4b05      	ldr	r3, [pc, #20]	@ (8001634 <HAL_I2S_RxCpltCallback+0x20>)
 800161e:	4a06      	ldr	r2, [pc, #24]	@ (8001638 <HAL_I2S_RxCpltCallback+0x24>)
 8001620:	601a      	str	r2, [r3, #0]

	data_ready_flag = true;
 8001622:	4b06      	ldr	r3, [pc, #24]	@ (800163c <HAL_I2S_RxCpltCallback+0x28>)
 8001624:	2201      	movs	r2, #1
 8001626:	701a      	strb	r2, [r3, #0]
}
 8001628:	bf00      	nop
 800162a:	370c      	adds	r7, #12
 800162c:	46bd      	mov	sp, r7
 800162e:	f85d 7b04 	ldr.w	r7, [sp], #4
 8001632:	4770      	bx	lr
 8001634:	20002000 	.word	0x20002000
 8001638:	200042ec 	.word	0x200042ec
 800163c:	200062ec 	.word	0x200062ec

08001640 <Error_Handler>:
/**
  * @brief  This function is executed in case of error occurrence.
  * @retval None
  */
void Error_Handler(void)
{
 8001640:	b480      	push	{r7}
 8001642:	af00      	add	r7, sp, #0
  \details Disables IRQ interrupts by setting special-purpose register PRIMASK.
           Can only be executed in Privileged modes.
 */
__STATIC_FORCEINLINE void __disable_irq(void)
{
  __ASM volatile ("cpsid i" : : : "memory");
 8001644:	b672      	cpsid	i
}
 8001646:	bf00      	nop
  /* USER CODE BEGIN Error_Handler_Debug */
  /* User can add his own implementation to report the HAL error return state */
  __disable_irq();
  while (1)
 8001648:	bf00      	nop
 800164a:	e7fd      	b.n	8001648 <Error_Handler+0x8>

0800164c <HAL_MspInit>:
/* USER CODE END 0 */
/**
  * Initializes the Global MSP.
  */
void HAL_MspInit(void)
{
 800164c:	b480      	push	{r7}
 800164e:	b083      	sub	sp, #12
 8001650:	af00      	add	r7, sp, #0

  /* USER CODE BEGIN MspInit 0 */

  /* USER CODE END MspInit 0 */

  __HAL_RCC_SYSCFG_CLK_ENABLE();
 8001652:	2300      	movs	r3, #0
 8001654:	607b      	str	r3, [r7, #4]
 8001656:	4b10      	ldr	r3, [pc, #64]	@ (8001698 <HAL_MspInit+0x4c>)
 8001658:	6c5b      	ldr	r3, [r3, #68]	@ 0x44
 800165a:	4a0f      	ldr	r2, [pc, #60]	@ (8001698 <HAL_MspInit+0x4c>)
 800165c:	f443 4380 	orr.w	r3, r3, #16384	@ 0x4000
 8001660:	6453      	str	r3, [r2, #68]	@ 0x44
 8001662:	4b0d      	ldr	r3, [pc, #52]	@ (8001698 <HAL_MspInit+0x4c>)
 8001664:	6c5b      	ldr	r3, [r3, #68]	@ 0x44
 8001666:	f403 4380 	and.w	r3, r3, #16384	@ 0x4000
 800166a:	607b      	str	r3, [r7, #4]
 800166c:	687b      	ldr	r3, [r7, #4]
  __HAL_RCC_PWR_CLK_ENABLE();
 800166e:	2300      	movs	r3, #0
 8001670:	603b      	str	r3, [r7, #0]
 8001672:	4b09      	ldr	r3, [pc, #36]	@ (8001698 <HAL_MspInit+0x4c>)
 8001674:	6c1b      	ldr	r3, [r3, #64]	@ 0x40
 8001676:	4a08      	ldr	r2, [pc, #32]	@ (8001698 <HAL_MspInit+0x4c>)
 8001678:	f043 5380 	orr.w	r3, r3, #268435456	@ 0x10000000
 800167c:	6413      	str	r3, [r2, #64]	@ 0x40
 800167e:	4b06      	ldr	r3, [pc, #24]	@ (8001698 <HAL_MspInit+0x4c>)
 8001680:	6c1b      	ldr	r3, [r3, #64]	@ 0x40
 8001682:	f003 5380 	and.w	r3, r3, #268435456	@ 0x10000000
 8001686:	603b      	str	r3, [r7, #0]
 8001688:	683b      	ldr	r3, [r7, #0]
  /* System interrupt init*/

  /* USER CODE BEGIN MspInit 1 */

  /* USER CODE END MspInit 1 */
}
 800168a:	bf00      	nop
 800168c:	370c      	adds	r7, #12
 800168e:	46bd      	mov	sp, r7
 8001690:	f85d 7b04 	ldr.w	r7, [sp], #4
 8001694:	4770      	bx	lr
 8001696:	bf00      	nop
 8001698:	40023800 	.word	0x40023800

0800169c <HAL_CRC_MspInit>:
  * This function configures the hardware resources used in this example
  * @param hcrc: CRC handle pointer
  * @retval None
  */
void HAL_CRC_MspInit(CRC_HandleTypeDef* hcrc)
{
 800169c:	b480      	push	{r7}
 800169e:	b085      	sub	sp, #20
 80016a0:	af00      	add	r7, sp, #0
 80016a2:	6078      	str	r0, [r7, #4]
  if(hcrc->Instance==CRC)
 80016a4:	687b      	ldr	r3, [r7, #4]
 80016a6:	681b      	ldr	r3, [r3, #0]
 80016a8:	4a0b      	ldr	r2, [pc, #44]	@ (80016d8 <HAL_CRC_MspInit+0x3c>)
 80016aa:	4293      	cmp	r3, r2
 80016ac:	d10d      	bne.n	80016ca <HAL_CRC_MspInit+0x2e>
  {
    /* USER CODE BEGIN CRC_MspInit 0 */

    /* USER CODE END CRC_MspInit 0 */
    /* Peripheral clock enable */
    __HAL_RCC_CRC_CLK_ENABLE();
 80016ae:	2300      	movs	r3, #0
 80016b0:	60fb      	str	r3, [r7, #12]
 80016b2:	4b0a      	ldr	r3, [pc, #40]	@ (80016dc <HAL_CRC_MspInit+0x40>)
 80016b4:	6b1b      	ldr	r3, [r3, #48]	@ 0x30
 80016b6:	4a09      	ldr	r2, [pc, #36]	@ (80016dc <HAL_CRC_MspInit+0x40>)
 80016b8:	f443 5380 	orr.w	r3, r3, #4096	@ 0x1000
 80016bc:	6313      	str	r3, [r2, #48]	@ 0x30
 80016be:	4b07      	ldr	r3, [pc, #28]	@ (80016dc <HAL_CRC_MspInit+0x40>)
 80016c0:	6b1b      	ldr	r3, [r3, #48]	@ 0x30
 80016c2:	f403 5380 	and.w	r3, r3, #4096	@ 0x1000
 80016c6:	60fb      	str	r3, [r7, #12]
 80016c8:	68fb      	ldr	r3, [r7, #12]

    /* USER CODE END CRC_MspInit 1 */

  }

}
 80016ca:	bf00      	nop
 80016cc:	3714      	adds	r7, #20
 80016ce:	46bd      	mov	sp, r7
 80016d0:	f85d 7b04 	ldr.w	r7, [sp], #4
 80016d4:	4770      	bx	lr
 80016d6:	bf00      	nop
 80016d8:	40023000 	.word	0x40023000
 80016dc:	40023800 	.word	0x40023800

080016e0 <HAL_I2S_MspInit>:
  * This function configures the hardware resources used in this example
  * @param hi2s: I2S handle pointer
  * @retval None
  */
void HAL_I2S_MspInit(I2S_HandleTypeDef* hi2s)
{
 80016e0:	b580      	push	{r7, lr}
 80016e2:	b090      	sub	sp, #64	@ 0x40
 80016e4:	af00      	add	r7, sp, #0
 80016e6:	6078      	str	r0, [r7, #4]
  GPIO_InitTypeDef GPIO_InitStruct = {0};
 80016e8:	f107 032c 	add.w	r3, r7, #44	@ 0x2c
 80016ec:	2200      	movs	r2, #0
 80016ee:	601a      	str	r2, [r3, #0]
 80016f0:	605a      	str	r2, [r3, #4]
 80016f2:	609a      	str	r2, [r3, #8]
 80016f4:	60da      	str	r2, [r3, #12]
 80016f6:	611a      	str	r2, [r3, #16]
  RCC_PeriphCLKInitTypeDef PeriphClkInitStruct = {0};
 80016f8:	f107 0318 	add.w	r3, r7, #24
 80016fc:	2200      	movs	r2, #0
 80016fe:	601a      	str	r2, [r3, #0]
 8001700:	605a      	str	r2, [r3, #4]
 8001702:	609a      	str	r2, [r3, #8]
 8001704:	60da      	str	r2, [r3, #12]
 8001706:	611a      	str	r2, [r3, #16]
  if(hi2s->Instance==SPI3)
 8001708:	687b      	ldr	r3, [r7, #4]
 800170a:	681b      	ldr	r3, [r3, #0]
 800170c:	4a49      	ldr	r2, [pc, #292]	@ (8001834 <HAL_I2S_MspInit+0x154>)
 800170e:	4293      	cmp	r3, r2
 8001710:	f040 808b 	bne.w	800182a <HAL_I2S_MspInit+0x14a>

    /* USER CODE END SPI3_MspInit 0 */

  /** Initializes the peripherals clock
  */
    PeriphClkInitStruct.PeriphClockSelection = RCC_PERIPHCLK_I2S;
 8001714:	2301      	movs	r3, #1
 8001716:	61bb      	str	r3, [r7, #24]
    PeriphClkInitStruct.PLLI2S.PLLI2SN = 50;
 8001718:	2332      	movs	r3, #50	@ 0x32
 800171a:	61fb      	str	r3, [r7, #28]
    PeriphClkInitStruct.PLLI2S.PLLI2SR = 2;
 800171c:	2302      	movs	r3, #2
 800171e:	623b      	str	r3, [r7, #32]
    if (HAL_RCCEx_PeriphCLKConfig(&PeriphClkInitStruct) != HAL_OK)
 8001720:	f107 0318 	add.w	r3, r7, #24
 8001724:	4618      	mov	r0, r3
 8001726:	f005 f98b 	bl	8006a40 <HAL_RCCEx_PeriphCLKConfig>
 800172a:	4603      	mov	r3, r0
 800172c:	2b00      	cmp	r3, #0
 800172e:	d001      	beq.n	8001734 <HAL_I2S_MspInit+0x54>
    {
      Error_Handler();
 8001730:	f7ff ff86 	bl	8001640 <Error_Handler>
    }

    /* Peripheral clock enable */
    __HAL_RCC_SPI3_CLK_ENABLE();
 8001734:	2300      	movs	r3, #0
 8001736:	617b      	str	r3, [r7, #20]
 8001738:	4b3f      	ldr	r3, [pc, #252]	@ (8001838 <HAL_I2S_MspInit+0x158>)
 800173a:	6c1b      	ldr	r3, [r3, #64]	@ 0x40
 800173c:	4a3e      	ldr	r2, [pc, #248]	@ (8001838 <HAL_I2S_MspInit+0x158>)
 800173e:	f443 4300 	orr.w	r3, r3, #32768	@ 0x8000
 8001742:	6413      	str	r3, [r2, #64]	@ 0x40
 8001744:	4b3c      	ldr	r3, [pc, #240]	@ (8001838 <HAL_I2S_MspInit+0x158>)
 8001746:	6c1b      	ldr	r3, [r3, #64]	@ 0x40
 8001748:	f403 4300 	and.w	r3, r3, #32768	@ 0x8000
 800174c:	617b      	str	r3, [r7, #20]
 800174e:	697b      	ldr	r3, [r7, #20]

    __HAL_RCC_GPIOA_CLK_ENABLE();
 8001750:	2300      	movs	r3, #0
 8001752:	613b      	str	r3, [r7, #16]
 8001754:	4b38      	ldr	r3, [pc, #224]	@ (8001838 <HAL_I2S_MspInit+0x158>)
 8001756:	6b1b      	ldr	r3, [r3, #48]	@ 0x30
 8001758:	4a37      	ldr	r2, [pc, #220]	@ (8001838 <HAL_I2S_MspInit+0x158>)
 800175a:	f043 0301 	orr.w	r3, r3, #1
 800175e:	6313      	str	r3, [r2, #48]	@ 0x30
 8001760:	4b35      	ldr	r3, [pc, #212]	@ (8001838 <HAL_I2S_MspInit+0x158>)
 8001762:	6b1b      	ldr	r3, [r3, #48]	@ 0x30
 8001764:	f003 0301 	and.w	r3, r3, #1
 8001768:	613b      	str	r3, [r7, #16]
 800176a:	693b      	ldr	r3, [r7, #16]
    __HAL_RCC_GPIOC_CLK_ENABLE();
 800176c:	2300      	movs	r3, #0
 800176e:	60fb      	str	r3, [r7, #12]
 8001770:	4b31      	ldr	r3, [pc, #196]	@ (8001838 <HAL_I2S_MspInit+0x158>)
 8001772:	6b1b      	ldr	r3, [r3, #48]	@ 0x30
 8001774:	4a30      	ldr	r2, [pc, #192]	@ (8001838 <HAL_I2S_MspInit+0x158>)
 8001776:	f043 0304 	orr.w	r3, r3, #4
 800177a:	6313      	str	r3, [r2, #48]	@ 0x30
 800177c:	4b2e      	ldr	r3, [pc, #184]	@ (8001838 <HAL_I2S_MspInit+0x158>)
 800177e:	6b1b      	ldr	r3, [r3, #48]	@ 0x30
 8001780:	f003 0304 	and.w	r3, r3, #4
 8001784:	60fb      	str	r3, [r7, #12]
 8001786:	68fb      	ldr	r3, [r7, #12]
    /**I2S3 GPIO Configuration
    PA4     ------> I2S3_WS
    PC10     ------> I2S3_CK
    PC12     ------> I2S3_SD
    */
    GPIO_InitStruct.Pin = GPIO_PIN_4;
 8001788:	2310      	movs	r3, #16
 800178a:	62fb      	str	r3, [r7, #44]	@ 0x2c
    GPIO_InitStruct.Mode = GPIO_MODE_AF_PP;
 800178c:	2302      	movs	r3, #2
 800178e:	633b      	str	r3, [r7, #48]	@ 0x30
    GPIO_InitStruct.Pull = GPIO_NOPULL;
 8001790:	2300      	movs	r3, #0
 8001792:	637b      	str	r3, [r7, #52]	@ 0x34
    GPIO_InitStruct.Speed = GPIO_SPEED_FREQ_LOW;
 8001794:	2300      	movs	r3, #0
 8001796:	63bb      	str	r3, [r7, #56]	@ 0x38
    GPIO_InitStruct.Alternate = GPIO_AF6_SPI3;
 8001798:	2306      	movs	r3, #6
 800179a:	63fb      	str	r3, [r7, #60]	@ 0x3c
    HAL_GPIO_Init(GPIOA, &GPIO_InitStruct);
 800179c:	f107 032c 	add.w	r3, r7, #44	@ 0x2c
 80017a0:	4619      	mov	r1, r3
 80017a2:	4826      	ldr	r0, [pc, #152]	@ (800183c <HAL_I2S_MspInit+0x15c>)
 80017a4:	f003 fdb6 	bl	8005314 <HAL_GPIO_Init>

    GPIO_InitStruct.Pin = GPIO_PIN_10|GPIO_PIN_12;
 80017a8:	f44f 53a0 	mov.w	r3, #5120	@ 0x1400
 80017ac:	62fb      	str	r3, [r7, #44]	@ 0x2c
    GPIO_InitStruct.Mode = GPIO_MODE_AF_PP;
 80017ae:	2302      	movs	r3, #2
 80017b0:	633b      	str	r3, [r7, #48]	@ 0x30
    GPIO_InitStruct.Pull = GPIO_NOPULL;
 80017b2:	2300      	movs	r3, #0
 80017b4:	637b      	str	r3, [r7, #52]	@ 0x34
    GPIO_InitStruct.Speed = GPIO_SPEED_FREQ_LOW;
 80017b6:	2300      	movs	r3, #0
 80017b8:	63bb      	str	r3, [r7, #56]	@ 0x38
    GPIO_InitStruct.Alternate = GPIO_AF6_SPI3;
 80017ba:	2306      	movs	r3, #6
 80017bc:	63fb      	str	r3, [r7, #60]	@ 0x3c
    HAL_GPIO_Init(GPIOC, &GPIO_InitStruct);
 80017be:	f107 032c 	add.w	r3, r7, #44	@ 0x2c
 80017c2:	4619      	mov	r1, r3
 80017c4:	481e      	ldr	r0, [pc, #120]	@ (8001840 <HAL_I2S_MspInit+0x160>)
 80017c6:	f003 fda5 	bl	8005314 <HAL_GPIO_Init>

    /* I2S3 DMA Init */
    /* SPI3_RX Init */
    hdma_spi3_rx.Instance = DMA1_Stream0;
 80017ca:	4b1e      	ldr	r3, [pc, #120]	@ (8001844 <HAL_I2S_MspInit+0x164>)
 80017cc:	4a1e      	ldr	r2, [pc, #120]	@ (8001848 <HAL_I2S_MspInit+0x168>)
 80017ce:	601a      	str	r2, [r3, #0]
    hdma_spi3_rx.Init.Channel = DMA_CHANNEL_0;
 80017d0:	4b1c      	ldr	r3, [pc, #112]	@ (8001844 <HAL_I2S_MspInit+0x164>)
 80017d2:	2200      	movs	r2, #0
 80017d4:	605a      	str	r2, [r3, #4]
    hdma_spi3_rx.Init.Direction = DMA_PERIPH_TO_MEMORY;
 80017d6:	4b1b      	ldr	r3, [pc, #108]	@ (8001844 <HAL_I2S_MspInit+0x164>)
 80017d8:	2200      	movs	r2, #0
 80017da:	609a      	str	r2, [r3, #8]
    hdma_spi3_rx.Init.PeriphInc = DMA_PINC_DISABLE;
 80017dc:	4b19      	ldr	r3, [pc, #100]	@ (8001844 <HAL_I2S_MspInit+0x164>)
 80017de:	2200      	movs	r2, #0
 80017e0:	60da      	str	r2, [r3, #12]
    hdma_spi3_rx.Init.MemInc = DMA_MINC_ENABLE;
 80017e2:	4b18      	ldr	r3, [pc, #96]	@ (8001844 <HAL_I2S_MspInit+0x164>)
 80017e4:	f44f 6280 	mov.w	r2, #1024	@ 0x400
 80017e8:	611a      	str	r2, [r3, #16]
    hdma_spi3_rx.Init.PeriphDataAlignment = DMA_PDATAALIGN_HALFWORD;
 80017ea:	4b16      	ldr	r3, [pc, #88]	@ (8001844 <HAL_I2S_MspInit+0x164>)
 80017ec:	f44f 6200 	mov.w	r2, #2048	@ 0x800
 80017f0:	615a      	str	r2, [r3, #20]
    hdma_spi3_rx.Init.MemDataAlignment = DMA_MDATAALIGN_HALFWORD;
 80017f2:	4b14      	ldr	r3, [pc, #80]	@ (8001844 <HAL_I2S_MspInit+0x164>)
 80017f4:	f44f 5200 	mov.w	r2, #8192	@ 0x2000
 80017f8:	619a      	str	r2, [r3, #24]
    hdma_spi3_rx.Init.Mode = DMA_CIRCULAR;
 80017fa:	4b12      	ldr	r3, [pc, #72]	@ (8001844 <HAL_I2S_MspInit+0x164>)
 80017fc:	f44f 7280 	mov.w	r2, #256	@ 0x100
 8001800:	61da      	str	r2, [r3, #28]
    hdma_spi3_rx.Init.Priority = DMA_PRIORITY_LOW;
 8001802:	4b10      	ldr	r3, [pc, #64]	@ (8001844 <HAL_I2S_MspInit+0x164>)
 8001804:	2200      	movs	r2, #0
 8001806:	621a      	str	r2, [r3, #32]
    hdma_spi3_rx.Init.FIFOMode = DMA_FIFOMODE_DISABLE;
 8001808:	4b0e      	ldr	r3, [pc, #56]	@ (8001844 <HAL_I2S_MspInit+0x164>)
 800180a:	2200      	movs	r2, #0
 800180c:	625a      	str	r2, [r3, #36]	@ 0x24
    if (HAL_DMA_Init(&hdma_spi3_rx) != HAL_OK)
 800180e:	480d      	ldr	r0, [pc, #52]	@ (8001844 <HAL_I2S_MspInit+0x164>)
 8001810:	f003 fa10 	bl	8004c34 <HAL_DMA_Init>
 8001814:	4603      	mov	r3, r0
 8001816:	2b00      	cmp	r3, #0
 8001818:	d001      	beq.n	800181e <HAL_I2S_MspInit+0x13e>
    {
      Error_Handler();
 800181a:	f7ff ff11 	bl	8001640 <Error_Handler>
    }

    __HAL_LINKDMA(hi2s,hdmarx,hdma_spi3_rx);
 800181e:	687b      	ldr	r3, [r7, #4]
 8001820:	4a08      	ldr	r2, [pc, #32]	@ (8001844 <HAL_I2S_MspInit+0x164>)
 8001822:	63da      	str	r2, [r3, #60]	@ 0x3c
 8001824:	4a07      	ldr	r2, [pc, #28]	@ (8001844 <HAL_I2S_MspInit+0x164>)
 8001826:	687b      	ldr	r3, [r7, #4]
 8001828:	6393      	str	r3, [r2, #56]	@ 0x38

    /* USER CODE END SPI3_MspInit 1 */

  }

}
 800182a:	bf00      	nop
 800182c:	3740      	adds	r7, #64	@ 0x40
 800182e:	46bd      	mov	sp, r7
 8001830:	bd80      	pop	{r7, pc}
 8001832:	bf00      	nop
 8001834:	40003c00 	.word	0x40003c00
 8001838:	40023800 	.word	0x40023800
 800183c:	40020000 	.word	0x40020000
 8001840:	40020800 	.word	0x40020800
 8001844:	20002244 	.word	0x20002244
 8001848:	40026010 	.word	0x40026010

0800184c <HAL_UART_MspInit>:
  * This function configures the hardware resources used in this example
  * @param huart: UART handle pointer
  * @retval None
  */
void HAL_UART_MspInit(UART_HandleTypeDef* huart)
{
 800184c:	b580      	push	{r7, lr}
 800184e:	b08a      	sub	sp, #40	@ 0x28
 8001850:	af00      	add	r7, sp, #0
 8001852:	6078      	str	r0, [r7, #4]
  GPIO_InitTypeDef GPIO_InitStruct = {0};
 8001854:	f107 0314 	add.w	r3, r7, #20
 8001858:	2200      	movs	r2, #0
 800185a:	601a      	str	r2, [r3, #0]
 800185c:	605a      	str	r2, [r3, #4]
 800185e:	609a      	str	r2, [r3, #8]
 8001860:	60da      	str	r2, [r3, #12]
 8001862:	611a      	str	r2, [r3, #16]
  if(huart->Instance==USART2)
 8001864:	687b      	ldr	r3, [r7, #4]
 8001866:	681b      	ldr	r3, [r3, #0]
 8001868:	4a19      	ldr	r2, [pc, #100]	@ (80018d0 <HAL_UART_MspInit+0x84>)
 800186a:	4293      	cmp	r3, r2
 800186c:	d12b      	bne.n	80018c6 <HAL_UART_MspInit+0x7a>
  {
    /* USER CODE BEGIN USART2_MspInit 0 */

    /* USER CODE END USART2_MspInit 0 */
    /* Peripheral clock enable */
    __HAL_RCC_USART2_CLK_ENABLE();
 800186e:	2300      	movs	r3, #0
 8001870:	613b      	str	r3, [r7, #16]
 8001872:	4b18      	ldr	r3, [pc, #96]	@ (80018d4 <HAL_UART_MspInit+0x88>)
 8001874:	6c1b      	ldr	r3, [r3, #64]	@ 0x40
 8001876:	4a17      	ldr	r2, [pc, #92]	@ (80018d4 <HAL_UART_MspInit+0x88>)
 8001878:	f443 3300 	orr.w	r3, r3, #131072	@ 0x20000
 800187c:	6413      	str	r3, [r2, #64]	@ 0x40
 800187e:	4b15      	ldr	r3, [pc, #84]	@ (80018d4 <HAL_UART_MspInit+0x88>)
 8001880:	6c1b      	ldr	r3, [r3, #64]	@ 0x40
 8001882:	f403 3300 	and.w	r3, r3, #131072	@ 0x20000
 8001886:	613b      	str	r3, [r7, #16]
 8001888:	693b      	ldr	r3, [r7, #16]

    __HAL_RCC_GPIOA_CLK_ENABLE();
 800188a:	2300      	movs	r3, #0
 800188c:	60fb      	str	r3, [r7, #12]
 800188e:	4b11      	ldr	r3, [pc, #68]	@ (80018d4 <HAL_UART_MspInit+0x88>)
 8001890:	6b1b      	ldr	r3, [r3, #48]	@ 0x30
 8001892:	4a10      	ldr	r2, [pc, #64]	@ (80018d4 <HAL_UART_MspInit+0x88>)
 8001894:	f043 0301 	orr.w	r3, r3, #1
 8001898:	6313      	str	r3, [r2, #48]	@ 0x30
 800189a:	4b0e      	ldr	r3, [pc, #56]	@ (80018d4 <HAL_UART_MspInit+0x88>)
 800189c:	6b1b      	ldr	r3, [r3, #48]	@ 0x30
 800189e:	f003 0301 	and.w	r3, r3, #1
 80018a2:	60fb      	str	r3, [r7, #12]
 80018a4:	68fb      	ldr	r3, [r7, #12]
    /**USART2 GPIO Configuration
    PA2     ------> USART2_TX
    PA3     ------> USART2_RX
    */
    GPIO_InitStruct.Pin = GPIO_PIN_2|GPIO_PIN_3;
 80018a6:	230c      	movs	r3, #12
 80018a8:	617b      	str	r3, [r7, #20]
    GPIO_InitStruct.Mode = GPIO_MODE_AF_PP;
 80018aa:	2302      	movs	r3, #2
 80018ac:	61bb      	str	r3, [r7, #24]
    GPIO_InitStruct.Pull = GPIO_NOPULL;
 80018ae:	2300      	movs	r3, #0
 80018b0:	61fb      	str	r3, [r7, #28]
    GPIO_InitStruct.Speed = GPIO_SPEED_FREQ_VERY_HIGH;
 80018b2:	2303      	movs	r3, #3
 80018b4:	623b      	str	r3, [r7, #32]
    GPIO_InitStruct.Alternate = GPIO_AF7_USART2;
 80018b6:	2307      	movs	r3, #7
 80018b8:	627b      	str	r3, [r7, #36]	@ 0x24
    HAL_GPIO_Init(GPIOA, &GPIO_InitStruct);
 80018ba:	f107 0314 	add.w	r3, r7, #20
 80018be:	4619      	mov	r1, r3
 80018c0:	4805      	ldr	r0, [pc, #20]	@ (80018d8 <HAL_UART_MspInit+0x8c>)
 80018c2:	f003 fd27 	bl	8005314 <HAL_GPIO_Init>

    /* USER CODE END USART2_MspInit 1 */

  }

}
 80018c6:	bf00      	nop
 80018c8:	3728      	adds	r7, #40	@ 0x28
 80018ca:	46bd      	mov	sp, r7
 80018cc:	bd80      	pop	{r7, pc}
 80018ce:	bf00      	nop
 80018d0:	40004400 	.word	0x40004400
 80018d4:	40023800 	.word	0x40023800
 80018d8:	40020000 	.word	0x40020000

080018dc <NMI_Handler>:
/******************************************************************************/
/**
  * @brief This function handles Non maskable interrupt.
  */
void NMI_Handler(void)
{
 80018dc:	b480      	push	{r7}
 80018de:	af00      	add	r7, sp, #0
  /* USER CODE BEGIN NonMaskableInt_IRQn 0 */

  /* USER CODE END NonMaskableInt_IRQn 0 */
  /* USER CODE BEGIN NonMaskableInt_IRQn 1 */
   while (1)
 80018e0:	bf00      	nop
 80018e2:	e7fd      	b.n	80018e0 <NMI_Handler+0x4>

080018e4 <HardFault_Handler>:

/**
  * @brief This function handles Hard fault interrupt.
  */
void HardFault_Handler(void)
{
 80018e4:	b480      	push	{r7}
 80018e6:	af00      	add	r7, sp, #0
  /* USER CODE BEGIN HardFault_IRQn 0 */

  /* USER CODE END HardFault_IRQn 0 */
  while (1)
 80018e8:	bf00      	nop
 80018ea:	e7fd      	b.n	80018e8 <HardFault_Handler+0x4>

080018ec <MemManage_Handler>:

/**
  * @brief This function handles Memory management fault.
  */
void MemManage_Handler(void)
{
 80018ec:	b480      	push	{r7}
 80018ee:	af00      	add	r7, sp, #0
  /* USER CODE BEGIN MemoryManagement_IRQn 0 */

  /* USER CODE END MemoryManagement_IRQn 0 */
  while (1)
 80018f0:	bf00      	nop
 80018f2:	e7fd      	b.n	80018f0 <MemManage_Handler+0x4>

080018f4 <BusFault_Handler>:

/**
  * @brief This function handles Pre-fetch fault, memory access fault.
  */
void BusFault_Handler(void)
{
 80018f4:	b480      	push	{r7}
 80018f6:	af00      	add	r7, sp, #0
  /* USER CODE BEGIN BusFault_IRQn 0 */

  /* USER CODE END BusFault_IRQn 0 */
  while (1)
 80018f8:	bf00      	nop
 80018fa:	e7fd      	b.n	80018f8 <BusFault_Handler+0x4>

080018fc <UsageFault_Handler>:

/**
  * @brief This function handles Undefined instruction or illegal state.
  */
void UsageFault_Handler(void)
{
 80018fc:	b480      	push	{r7}
 80018fe:	af00      	add	r7, sp, #0
  /* USER CODE BEGIN UsageFault_IRQn 0 */

  /* USER CODE END UsageFault_IRQn 0 */
  while (1)
 8001900:	bf00      	nop
 8001902:	e7fd      	b.n	8001900 <UsageFault_Handler+0x4>

08001904 <SVC_Handler>:

/**
  * @brief This function handles System service call via SWI instruction.
  */
void SVC_Handler(void)
{
 8001904:	b480      	push	{r7}
 8001906:	af00      	add	r7, sp, #0

  /* USER CODE END SVCall_IRQn 0 */
  /* USER CODE BEGIN SVCall_IRQn 1 */

  /* USER CODE END SVCall_IRQn 1 */
}
 8001908:	bf00      	nop
 800190a:	46bd      	mov	sp, r7
 800190c:	f85d 7b04 	ldr.w	r7, [sp], #4
 8001910:	4770      	bx	lr

08001912 <DebugMon_Handler>:

/**
  * @brief This function handles Debug monitor.
  */
void DebugMon_Handler(void)
{
 8001912:	b480      	push	{r7}
 8001914:	af00      	add	r7, sp, #0

  /* USER CODE END DebugMonitor_IRQn 0 */
  /* USER CODE BEGIN DebugMonitor_IRQn 1 */

  /* USER CODE END DebugMonitor_IRQn 1 */
}
 8001916:	bf00      	nop
 8001918:	46bd      	mov	sp, r7
 800191a:	f85d 7b04 	ldr.w	r7, [sp], #4
 800191e:	4770      	bx	lr

08001920 <PendSV_Handler>:

/**
  * @brief This function handles Pendable request for system service.
  */
void PendSV_Handler(void)
{
 8001920:	b480      	push	{r7}
 8001922:	af00      	add	r7, sp, #0

  /* USER CODE END PendSV_IRQn 0 */
  /* USER CODE BEGIN PendSV_IRQn 1 */

  /* USER CODE END PendSV_IRQn 1 */
}
 8001924:	bf00      	nop
 8001926:	46bd      	mov	sp, r7
 8001928:	f85d 7b04 	ldr.w	r7, [sp], #4
 800192c:	4770      	bx	lr

0800192e <SysTick_Handler>:

/**
  * @brief This function handles System tick timer.
  */
void SysTick_Handler(void)
{
 800192e:	b580      	push	{r7, lr}
 8001930:	af00      	add	r7, sp, #0
  /* USER CODE BEGIN SysTick_IRQn 0 */

  /* USER CODE END SysTick_IRQn 0 */
  HAL_IncTick();
 8001932:	f003 f80d 	bl	8004950 <HAL_IncTick>
  /* USER CODE BEGIN SysTick_IRQn 1 */

  /* USER CODE END SysTick_IRQn 1 */
}
 8001936:	bf00      	nop
 8001938:	bd80      	pop	{r7, pc}
	...

0800193c <DMA1_Stream0_IRQHandler>:

/**
  * @brief This function handles DMA1 stream0 global interrupt.
  */
void DMA1_Stream0_IRQHandler(void)
{
 800193c:	b580      	push	{r7, lr}
 800193e:	af00      	add	r7, sp, #0
  /* USER CODE BEGIN DMA1_Stream0_IRQn 0 */

  /* USER CODE END DMA1_Stream0_IRQn 0 */
  HAL_DMA_IRQHandler(&hdma_spi3_rx);
 8001940:	4802      	ldr	r0, [pc, #8]	@ (800194c <DMA1_Stream0_IRQHandler+0x10>)
 8001942:	f003 fa7d 	bl	8004e40 <HAL_DMA_IRQHandler>
  /* USER CODE BEGIN DMA1_Stream0_IRQn 1 */

  /* USER CODE END DMA1_Stream0_IRQn 1 */
}
 8001946:	bf00      	nop
 8001948:	bd80      	pop	{r7, pc}
 800194a:	bf00      	nop
 800194c:	20002244 	.word	0x20002244

08001950 <_getpid>:
void initialise_monitor_handles()
{
}

int _getpid(void)
{
 8001950:	b480      	push	{r7}
 8001952:	af00      	add	r7, sp, #0
  return 1;
 8001954:	2301      	movs	r3, #1
}
 8001956:	4618      	mov	r0, r3
 8001958:	46bd      	mov	sp, r7
 800195a:	f85d 7b04 	ldr.w	r7, [sp], #4
 800195e:	4770      	bx	lr

08001960 <_kill>:

int _kill(int pid, int sig)
{
 8001960:	b580      	push	{r7, lr}
 8001962:	b082      	sub	sp, #8
 8001964:	af00      	add	r7, sp, #0
 8001966:	6078      	str	r0, [r7, #4]
 8001968:	6039      	str	r1, [r7, #0]
  (void)pid;
  (void)sig;
  errno = EINVAL;
 800196a:	f006 fbc1 	bl	80080f0 <__errno>
 800196e:	4603      	mov	r3, r0
 8001970:	2216      	movs	r2, #22
 8001972:	601a      	str	r2, [r3, #0]
  return -1;
 8001974:	f04f 33ff 	mov.w	r3, #4294967295
}
 8001978:	4618      	mov	r0, r3
 800197a:	3708      	adds	r7, #8
 800197c:	46bd      	mov	sp, r7
 800197e:	bd80      	pop	{r7, pc}

08001980 <_exit>:

void _exit (int status)
{
 8001980:	b580      	push	{r7, lr}
 8001982:	b082      	sub	sp, #8
 8001984:	af00      	add	r7, sp, #0
 8001986:	6078      	str	r0, [r7, #4]
  _kill(status, -1);
 8001988:	f04f 31ff 	mov.w	r1, #4294967295
 800198c:	6878      	ldr	r0, [r7, #4]
 800198e:	f7ff ffe7 	bl	8001960 <_kill>
  while (1) {}    /* Make sure we hang here */
 8001992:	bf00      	nop
 8001994:	e7fd      	b.n	8001992 <_exit+0x12>

08001996 <_read>:
}

__attribute__((weak)) int _read(int file, char *ptr, int len)
{
 8001996:	b580      	push	{r7, lr}
 8001998:	b086      	sub	sp, #24
 800199a:	af00      	add	r7, sp, #0
 800199c:	60f8      	str	r0, [r7, #12]
 800199e:	60b9      	str	r1, [r7, #8]
 80019a0:	607a      	str	r2, [r7, #4]
  (void)file;
  int DataIdx;

  for (DataIdx = 0; DataIdx < len; DataIdx++)
 80019a2:	2300      	movs	r3, #0
 80019a4:	617b      	str	r3, [r7, #20]
 80019a6:	e00a      	b.n	80019be <_read+0x28>
  {
    *ptr++ = __io_getchar();
 80019a8:	f3af 8000 	nop.w
 80019ac:	4601      	mov	r1, r0
 80019ae:	68bb      	ldr	r3, [r7, #8]
 80019b0:	1c5a      	adds	r2, r3, #1
 80019b2:	60ba      	str	r2, [r7, #8]
 80019b4:	b2ca      	uxtb	r2, r1
 80019b6:	701a      	strb	r2, [r3, #0]
  for (DataIdx = 0; DataIdx < len; DataIdx++)
 80019b8:	697b      	ldr	r3, [r7, #20]
 80019ba:	3301      	adds	r3, #1
 80019bc:	617b      	str	r3, [r7, #20]
 80019be:	697a      	ldr	r2, [r7, #20]
 80019c0:	687b      	ldr	r3, [r7, #4]
 80019c2:	429a      	cmp	r2, r3
 80019c4:	dbf0      	blt.n	80019a8 <_read+0x12>
  }

  return len;
 80019c6:	687b      	ldr	r3, [r7, #4]
}
 80019c8:	4618      	mov	r0, r3
 80019ca:	3718      	adds	r7, #24
 80019cc:	46bd      	mov	sp, r7
 80019ce:	bd80      	pop	{r7, pc}

080019d0 <_write>:

__attribute__((weak)) int _write(int file, char *ptr, int len)
{
 80019d0:	b580      	push	{r7, lr}
 80019d2:	b086      	sub	sp, #24
 80019d4:	af00      	add	r7, sp, #0
 80019d6:	60f8      	str	r0, [r7, #12]
 80019d8:	60b9      	str	r1, [r7, #8]
 80019da:	607a      	str	r2, [r7, #4]
  (void)file;
  int DataIdx;

  for (DataIdx = 0; DataIdx < len; DataIdx++)
 80019dc:	2300      	movs	r3, #0
 80019de:	617b      	str	r3, [r7, #20]
 80019e0:	e009      	b.n	80019f6 <_write+0x26>
  {
    __io_putchar(*ptr++);
 80019e2:	68bb      	ldr	r3, [r7, #8]
 80019e4:	1c5a      	adds	r2, r3, #1
 80019e6:	60ba      	str	r2, [r7, #8]
 80019e8:	781b      	ldrb	r3, [r3, #0]
 80019ea:	4618      	mov	r0, r3
 80019ec:	f7ff fa7a 	bl	8000ee4 <__io_putchar>
  for (DataIdx = 0; DataIdx < len; DataIdx++)
 80019f0:	697b      	ldr	r3, [r7, #20]
 80019f2:	3301      	adds	r3, #1
 80019f4:	617b      	str	r3, [r7, #20]
 80019f6:	697a      	ldr	r2, [r7, #20]
 80019f8:	687b      	ldr	r3, [r7, #4]
 80019fa:	429a      	cmp	r2, r3
 80019fc:	dbf1      	blt.n	80019e2 <_write+0x12>
  }
  return len;
 80019fe:	687b      	ldr	r3, [r7, #4]
}
 8001a00:	4618      	mov	r0, r3
 8001a02:	3718      	adds	r7, #24
 8001a04:	46bd      	mov	sp, r7
 8001a06:	bd80      	pop	{r7, pc}

08001a08 <_close>:

int _close(int file)
{
 8001a08:	b480      	push	{r7}
 8001a0a:	b083      	sub	sp, #12
 8001a0c:	af00      	add	r7, sp, #0
 8001a0e:	6078      	str	r0, [r7, #4]
  (void)file;
  return -1;
 8001a10:	f04f 33ff 	mov.w	r3, #4294967295
}
 8001a14:	4618      	mov	r0, r3
 8001a16:	370c      	adds	r7, #12
 8001a18:	46bd      	mov	sp, r7
 8001a1a:	f85d 7b04 	ldr.w	r7, [sp], #4
 8001a1e:	4770      	bx	lr

08001a20 <_fstat>:


int _fstat(int file, struct stat *st)
{
 8001a20:	b480      	push	{r7}
 8001a22:	b083      	sub	sp, #12
 8001a24:	af00      	add	r7, sp, #0
 8001a26:	6078      	str	r0, [r7, #4]
 8001a28:	6039      	str	r1, [r7, #0]
  (void)file;
  st->st_mode = S_IFCHR;
 8001a2a:	683b      	ldr	r3, [r7, #0]
 8001a2c:	f44f 5200 	mov.w	r2, #8192	@ 0x2000
 8001a30:	605a      	str	r2, [r3, #4]
  return 0;
 8001a32:	2300      	movs	r3, #0
}
 8001a34:	4618      	mov	r0, r3
 8001a36:	370c      	adds	r7, #12
 8001a38:	46bd      	mov	sp, r7
 8001a3a:	f85d 7b04 	ldr.w	r7, [sp], #4
 8001a3e:	4770      	bx	lr

08001a40 <_isatty>:

int _isatty(int file)
{
 8001a40:	b480      	push	{r7}
 8001a42:	b083      	sub	sp, #12
 8001a44:	af00      	add	r7, sp, #0
 8001a46:	6078      	str	r0, [r7, #4]
  (void)file;
  return 1;
 8001a48:	2301      	movs	r3, #1
}
 8001a4a:	4618      	mov	r0, r3
 8001a4c:	370c      	adds	r7, #12
 8001a4e:	46bd      	mov	sp, r7
 8001a50:	f85d 7b04 	ldr.w	r7, [sp], #4
 8001a54:	4770      	bx	lr

08001a56 <_lseek>:

int _lseek(int file, int ptr, int dir)
{
 8001a56:	b480      	push	{r7}
 8001a58:	b085      	sub	sp, #20
 8001a5a:	af00      	add	r7, sp, #0
 8001a5c:	60f8      	str	r0, [r7, #12]
 8001a5e:	60b9      	str	r1, [r7, #8]
 8001a60:	607a      	str	r2, [r7, #4]
  (void)file;
  (void)ptr;
  (void)dir;
  return 0;
 8001a62:	2300      	movs	r3, #0
}
 8001a64:	4618      	mov	r0, r3
 8001a66:	3714      	adds	r7, #20
 8001a68:	46bd      	mov	sp, r7
 8001a6a:	f85d 7b04 	ldr.w	r7, [sp], #4
 8001a6e:	4770      	bx	lr

08001a70 <_sbrk>:
 *
 * @param incr Memory size
 * @return Pointer to allocated memory
 */
void *_sbrk(ptrdiff_t incr)
{
 8001a70:	b580      	push	{r7, lr}
 8001a72:	b086      	sub	sp, #24
 8001a74:	af00      	add	r7, sp, #0
 8001a76:	6078      	str	r0, [r7, #4]
  extern uint8_t _end; /* Symbol defined in the linker script */
  extern uint8_t _estack; /* Symbol defined in the linker script */
  extern uint32_t _Min_Stack_Size; /* Symbol defined in the linker script */
  const uint32_t stack_limit = (uint32_t)&_estack - (uint32_t)&_Min_Stack_Size;
 8001a78:	4a14      	ldr	r2, [pc, #80]	@ (8001acc <_sbrk+0x5c>)
 8001a7a:	4b15      	ldr	r3, [pc, #84]	@ (8001ad0 <_sbrk+0x60>)
 8001a7c:	1ad3      	subs	r3, r2, r3
 8001a7e:	617b      	str	r3, [r7, #20]
  const uint8_t *max_heap = (uint8_t *)stack_limit;
 8001a80:	697b      	ldr	r3, [r7, #20]
 8001a82:	613b      	str	r3, [r7, #16]
  uint8_t *prev_heap_end;

  /* Initialize heap end at first call */
  if (NULL == __sbrk_heap_end)
 8001a84:	4b13      	ldr	r3, [pc, #76]	@ (8001ad4 <_sbrk+0x64>)
 8001a86:	681b      	ldr	r3, [r3, #0]
 8001a88:	2b00      	cmp	r3, #0
 8001a8a:	d102      	bne.n	8001a92 <_sbrk+0x22>
  {
    __sbrk_heap_end = &_end;
 8001a8c:	4b11      	ldr	r3, [pc, #68]	@ (8001ad4 <_sbrk+0x64>)
 8001a8e:	4a12      	ldr	r2, [pc, #72]	@ (8001ad8 <_sbrk+0x68>)
 8001a90:	601a      	str	r2, [r3, #0]
  }

  /* Protect heap from growing into the reserved MSP stack */
  if (__sbrk_heap_end + incr > max_heap)
 8001a92:	4b10      	ldr	r3, [pc, #64]	@ (8001ad4 <_sbrk+0x64>)
 8001a94:	681a      	ldr	r2, [r3, #0]
 8001a96:	687b      	ldr	r3, [r7, #4]
 8001a98:	4413      	add	r3, r2
 8001a9a:	693a      	ldr	r2, [r7, #16]
 8001a9c:	429a      	cmp	r2, r3
 8001a9e:	d207      	bcs.n	8001ab0 <_sbrk+0x40>
  {
    errno = ENOMEM;
 8001aa0:	f006 fb26 	bl	80080f0 <__errno>
 8001aa4:	4603      	mov	r3, r0
 8001aa6:	220c      	movs	r2, #12
 8001aa8:	601a      	str	r2, [r3, #0]
    return (void *)-1;
 8001aaa:	f04f 33ff 	mov.w	r3, #4294967295
 8001aae:	e009      	b.n	8001ac4 <_sbrk+0x54>
  }

  prev_heap_end = __sbrk_heap_end;
 8001ab0:	4b08      	ldr	r3, [pc, #32]	@ (8001ad4 <_sbrk+0x64>)
 8001ab2:	681b      	ldr	r3, [r3, #0]
 8001ab4:	60fb      	str	r3, [r7, #12]
  __sbrk_heap_end += incr;
 8001ab6:	4b07      	ldr	r3, [pc, #28]	@ (8001ad4 <_sbrk+0x64>)
 8001ab8:	681a      	ldr	r2, [r3, #0]
 8001aba:	687b      	ldr	r3, [r7, #4]
 8001abc:	4413      	add	r3, r2
 8001abe:	4a05      	ldr	r2, [pc, #20]	@ (8001ad4 <_sbrk+0x64>)
 8001ac0:	6013      	str	r3, [r2, #0]

  return (void *)prev_heap_end;
 8001ac2:	68fb      	ldr	r3, [r7, #12]
}
 8001ac4:	4618      	mov	r0, r3
 8001ac6:	3718      	adds	r7, #24
 8001ac8:	46bd      	mov	sp, r7
 8001aca:	bd80      	pop	{r7, pc}
 8001acc:	20018000 	.word	0x20018000
 8001ad0:	00000400 	.word	0x00000400
 8001ad4:	2000d318 	.word	0x2000d318
 8001ad8:	2000d470 	.word	0x2000d470

08001adc <SystemInit>:
  *         configuration.
  * @param  None
  * @retval None
  */
void SystemInit(void)
{
 8001adc:	b480      	push	{r7}
 8001ade:	af00      	add	r7, sp, #0
  /* FPU settings ------------------------------------------------------------*/
  #if (__FPU_PRESENT == 1) && (__FPU_USED == 1)
    SCB->CPACR |= ((3UL << 10*2)|(3UL << 11*2));  /* set CP10 and CP11 Full Access */
 8001ae0:	4b06      	ldr	r3, [pc, #24]	@ (8001afc <SystemInit+0x20>)
 8001ae2:	f8d3 3088 	ldr.w	r3, [r3, #136]	@ 0x88
 8001ae6:	4a05      	ldr	r2, [pc, #20]	@ (8001afc <SystemInit+0x20>)
 8001ae8:	f443 0370 	orr.w	r3, r3, #15728640	@ 0xf00000
 8001aec:	f8c2 3088 	str.w	r3, [r2, #136]	@ 0x88

  /* Configure the Vector Table location -------------------------------------*/
#if defined(USER_VECT_TAB_ADDRESS)
  SCB->VTOR = VECT_TAB_BASE_ADDRESS | VECT_TAB_OFFSET; /* Vector Table Relocation in Internal SRAM */
#endif /* USER_VECT_TAB_ADDRESS */
}
 8001af0:	bf00      	nop
 8001af2:	46bd      	mov	sp, r7
 8001af4:	f85d 7b04 	ldr.w	r7, [sp], #4
 8001af8:	4770      	bx	lr
 8001afa:	bf00      	nop
 8001afc:	e000ed00 	.word	0xe000ed00

08001b00 <Reset_Handler>:

    .section  .text.Reset_Handler
  .weak  Reset_Handler
  .type  Reset_Handler, %function
Reset_Handler:  
  ldr   sp, =_estack    		 /* set stack pointer */
 8001b00:	f8df d034 	ldr.w	sp, [pc, #52]	@ 8001b38 <LoopFillZerobss+0xe>

/* Call the clock system initialization function.*/
  bl  SystemInit  
 8001b04:	f7ff ffea 	bl	8001adc <SystemInit>

/* Copy the data segment initializers from flash to SRAM */  
  ldr r0, =_sdata
 8001b08:	480c      	ldr	r0, [pc, #48]	@ (8001b3c <LoopFillZerobss+0x12>)
  ldr r1, =_edata
 8001b0a:	490d      	ldr	r1, [pc, #52]	@ (8001b40 <LoopFillZerobss+0x16>)
  ldr r2, =_sidata
 8001b0c:	4a0d      	ldr	r2, [pc, #52]	@ (8001b44 <LoopFillZerobss+0x1a>)
  movs r3, #0
 8001b0e:	2300      	movs	r3, #0
  b LoopCopyDataInit
 8001b10:	e002      	b.n	8001b18 <LoopCopyDataInit>

08001b12 <CopyDataInit>:

CopyDataInit:
  ldr r4, [r2, r3]
 8001b12:	58d4      	ldr	r4, [r2, r3]
  str r4, [r0, r3]
 8001b14:	50c4      	str	r4, [r0, r3]
  adds r3, r3, #4
 8001b16:	3304      	adds	r3, #4

08001b18 <LoopCopyDataInit>:

LoopCopyDataInit:
  adds r4, r0, r3
 8001b18:	18c4      	adds	r4, r0, r3
  cmp r4, r1
 8001b1a:	428c      	cmp	r4, r1
  bcc CopyDataInit
 8001b1c:	d3f9      	bcc.n	8001b12 <CopyDataInit>
  
/* Zero fill the bss segment. */
  ldr r2, =_sbss
 8001b1e:	4a0a      	ldr	r2, [pc, #40]	@ (8001b48 <LoopFillZerobss+0x1e>)
  ldr r4, =_ebss
 8001b20:	4c0a      	ldr	r4, [pc, #40]	@ (8001b4c <LoopFillZerobss+0x22>)
  movs r3, #0
 8001b22:	2300      	movs	r3, #0
  b LoopFillZerobss
 8001b24:	e001      	b.n	8001b2a <LoopFillZerobss>

08001b26 <FillZerobss>:

FillZerobss:
  str  r3, [r2]
 8001b26:	6013      	str	r3, [r2, #0]
  adds r2, r2, #4
 8001b28:	3204      	adds	r2, #4

08001b2a <LoopFillZerobss>:

LoopFillZerobss:
  cmp r2, r4
 8001b2a:	42a2      	cmp	r2, r4
  bcc FillZerobss
 8001b2c:	d3fb      	bcc.n	8001b26 <FillZerobss>
 
/* Call static constructors */
    bl __libc_init_array
 8001b2e:	f006 fae5 	bl	80080fc <__libc_init_array>
/* Call the application's entry point.*/
  bl  main
 8001b32:	f7ff f9e9 	bl	8000f08 <main>
  bx  lr    
 8001b36:	4770      	bx	lr
  ldr   sp, =_estack    		 /* set stack pointer */
 8001b38:	20018000 	.word	0x20018000
  ldr r0, =_sdata
 8001b3c:	20000000 	.word	0x20000000
  ldr r1, =_edata
 8001b40:	200021d8 	.word	0x200021d8
  ldr r2, =_sidata
 8001b44:	0801eafc 	.word	0x0801eafc
  ldr r2, =_sbss
 8001b48:	200021d8 	.word	0x200021d8
  ldr r4, =_ebss
 8001b4c:	2000d46c 	.word	0x2000d46c

08001b50 <ADC_IRQHandler>:
 * @retval None       
*/
    .section  .text.Default_Handler,"ax",%progbits
Default_Handler:
Infinite_Loop:
  b  Infinite_Loop
 8001b50:	e7fe      	b.n	8001b50 <ADC_IRQHandler>

08001b52 <arm_mult_f32>:
ARM_DSP_ATTRIBUTE void arm_mult_f32(
  const float32_t * pSrcA,
  const float32_t * pSrcB,
        float32_t * pDst,
        uint32_t blockSize)
{
 8001b52:	b480      	push	{r7}
 8001b54:	b087      	sub	sp, #28
 8001b56:	af00      	add	r7, sp, #0
 8001b58:	60f8      	str	r0, [r7, #12]
 8001b5a:	60b9      	str	r1, [r7, #8]
 8001b5c:	607a      	str	r2, [r7, #4]
 8001b5e:	603b      	str	r3, [r7, #0]
  blkCnt = blockSize % 0x4U;

#else

  /* Initialize blkCnt with number of samples */
  blkCnt = blockSize;
 8001b60:	683b      	ldr	r3, [r7, #0]
 8001b62:	617b      	str	r3, [r7, #20]

#endif /* #if defined (ARM_MATH_LOOPUNROLL) */
#endif /* #if defined(ARM_MATH_NEON) */

  while (blkCnt > 0U)
 8001b64:	e013      	b.n	8001b8e <arm_mult_f32+0x3c>
  {
    /* C = A * B */

    /* Multiply input and store result in destination buffer. */
    *pDst++ = (*pSrcA++) * (*pSrcB++);
 8001b66:	68fb      	ldr	r3, [r7, #12]
 8001b68:	1d1a      	adds	r2, r3, #4
 8001b6a:	60fa      	str	r2, [r7, #12]
 8001b6c:	ed93 7a00 	vldr	s14, [r3]
 8001b70:	68bb      	ldr	r3, [r7, #8]
 8001b72:	1d1a      	adds	r2, r3, #4
 8001b74:	60ba      	str	r2, [r7, #8]
 8001b76:	edd3 7a00 	vldr	s15, [r3]
 8001b7a:	687b      	ldr	r3, [r7, #4]
 8001b7c:	1d1a      	adds	r2, r3, #4
 8001b7e:	607a      	str	r2, [r7, #4]
 8001b80:	ee67 7a27 	vmul.f32	s15, s14, s15
 8001b84:	edc3 7a00 	vstr	s15, [r3]

    /* Decrement loop counter */
    blkCnt--;
 8001b88:	697b      	ldr	r3, [r7, #20]
 8001b8a:	3b01      	subs	r3, #1
 8001b8c:	617b      	str	r3, [r7, #20]
  while (blkCnt > 0U)
 8001b8e:	697b      	ldr	r3, [r7, #20]
 8001b90:	2b00      	cmp	r3, #0
 8001b92:	d1e8      	bne.n	8001b66 <arm_mult_f32+0x14>
  }

}
 8001b94:	bf00      	nop
 8001b96:	bf00      	nop
 8001b98:	371c      	adds	r7, #28
 8001b9a:	46bd      	mov	sp, r7
 8001b9c:	f85d 7b04 	ldr.w	r7, [sp], #4
 8001ba0:	4770      	bx	lr

08001ba2 <arm_cmplx_mag_f32>:
#else
ARM_DSP_ATTRIBUTE void arm_cmplx_mag_f32(
  const float32_t * pSrc,
        float32_t * pDst,
        uint32_t numSamples)
{
 8001ba2:	b480      	push	{r7}
 8001ba4:	b08b      	sub	sp, #44	@ 0x2c
 8001ba6:	af00      	add	r7, sp, #0
 8001ba8:	60f8      	str	r0, [r7, #12]
 8001baa:	60b9      	str	r1, [r7, #8]
 8001bac:	607a      	str	r2, [r7, #4]
  blkCnt = numSamples % 0x4U;

#else

  /* Initialize blkCnt with number of samples */
  blkCnt = numSamples;
 8001bae:	687b      	ldr	r3, [r7, #4]
 8001bb0:	627b      	str	r3, [r7, #36]	@ 0x24

#endif /* #if defined (ARM_MATH_LOOPUNROLL) */
#endif /* #if defined(ARM_MATH_NEON) */

  while (blkCnt > 0U)
 8001bb2:	e030      	b.n	8001c16 <arm_cmplx_mag_f32+0x74>
  {
    /* C[0] = sqrt(A[0] * A[0] + A[1] * A[1]) */

    real = *pSrc++;
 8001bb4:	68fb      	ldr	r3, [r7, #12]
 8001bb6:	1d1a      	adds	r2, r3, #4
 8001bb8:	60fa      	str	r2, [r7, #12]
 8001bba:	681b      	ldr	r3, [r3, #0]
 8001bbc:	623b      	str	r3, [r7, #32]
    imag = *pSrc++;
 8001bbe:	68fb      	ldr	r3, [r7, #12]
 8001bc0:	1d1a      	adds	r2, r3, #4
 8001bc2:	60fa      	str	r2, [r7, #12]
 8001bc4:	681b      	ldr	r3, [r3, #0]
 8001bc6:	61fb      	str	r3, [r7, #28]

    /* store result in destination buffer. */
    arm_sqrt_f32((real * real) + (imag * imag), pDst++);
 8001bc8:	edd7 7a08 	vldr	s15, [r7, #32]
 8001bcc:	ee27 7aa7 	vmul.f32	s14, s15, s15
 8001bd0:	edd7 7a07 	vldr	s15, [r7, #28]
 8001bd4:	ee67 7aa7 	vmul.f32	s15, s15, s15
 8001bd8:	ee77 7a27 	vadd.f32	s15, s14, s15
 8001bdc:	68bb      	ldr	r3, [r7, #8]
 8001bde:	1d1a      	adds	r2, r3, #4
 8001be0:	60ba      	str	r2, [r7, #8]
 8001be2:	edc7 7a06 	vstr	s15, [r7, #24]
 8001be6:	617b      	str	r3, [r7, #20]
 */
__STATIC_FORCEINLINE arm_status arm_sqrt_f32(
  const float32_t in,
  float32_t * pOut)
  {
    if (in >= 0.0f)
 8001be8:	edd7 7a06 	vldr	s15, [r7, #24]
 8001bec:	eef5 7ac0 	vcmpe.f32	s15, #0.0
 8001bf0:	eef1 fa10 	vmrs	APSR_nzcv, fpscr
 8001bf4:	db07      	blt.n	8001c06 <arm_cmplx_mag_f32+0x64>
      *pOut = _sqrtf(in);
#elif defined(__GNUC_PYTHON__)
      *pOut = sqrtf(in);
#elif defined ( __GNUC__ )
  #if defined (__VFP_FP__) && !defined(__SOFTFP__)
      __ASM("VSQRT.F32 %0,%1" : "=t"(*pOut) : "t"(in));
 8001bf6:	edd7 7a06 	vldr	s15, [r7, #24]
 8001bfa:	eef1 7ae7 	vsqrt.f32	s15, s15
 8001bfe:	697b      	ldr	r3, [r7, #20]
 8001c00:	edc3 7a00 	vstr	s15, [r3]
  #endif
#else
      *pOut = sqrtf(in);
#endif

      return (ARM_MATH_SUCCESS);
 8001c04:	e004      	b.n	8001c10 <arm_cmplx_mag_f32+0x6e>
    }
    else
    {
      *pOut = 0.0f;
 8001c06:	697b      	ldr	r3, [r7, #20]
 8001c08:	f04f 0200 	mov.w	r2, #0
 8001c0c:	601a      	str	r2, [r3, #0]
      return (ARM_MATH_ARGUMENT_ERROR);
 8001c0e:	bf00      	nop

    /* Decrement loop counter */
    blkCnt--;
 8001c10:	6a7b      	ldr	r3, [r7, #36]	@ 0x24
 8001c12:	3b01      	subs	r3, #1
 8001c14:	627b      	str	r3, [r7, #36]	@ 0x24
  while (blkCnt > 0U)
 8001c16:	6a7b      	ldr	r3, [r7, #36]	@ 0x24
 8001c18:	2b00      	cmp	r3, #0
 8001c1a:	d1cb      	bne.n	8001bb4 <arm_cmplx_mag_f32+0x12>
  }

}
 8001c1c:	bf00      	nop
 8001c1e:	bf00      	nop
 8001c20:	372c      	adds	r7, #44	@ 0x2c
 8001c22:	46bd      	mov	sp, r7
 8001c24:	f85d 7b04 	ldr.w	r7, [sp], #4
 8001c28:	4770      	bx	lr

08001c2a <arm_max_f32>:
ARM_DSP_ATTRIBUTE void arm_max_f32(
  const float32_t * pSrc,
        uint32_t blockSize,
        float32_t * pResult,
        uint32_t * pIndex)
{
 8001c2a:	b480      	push	{r7}
 8001c2c:	b089      	sub	sp, #36	@ 0x24
 8001c2e:	af00      	add	r7, sp, #0
 8001c30:	60f8      	str	r0, [r7, #12]
 8001c32:	60b9      	str	r1, [r7, #8]
 8001c34:	607a      	str	r2, [r7, #4]
 8001c36:	603b      	str	r3, [r7, #0]
#if defined (ARM_MATH_LOOPUNROLL) && !defined(ARM_MATH_AUTOVECTORIZE)
        uint32_t index;                                /* index of maximum value */
#endif

  /* Initialise index value to zero. */
  outIndex = 0U;
 8001c38:	2300      	movs	r3, #0
 8001c3a:	617b      	str	r3, [r7, #20]

  /* Load first input value that act as reference value for comparison */
  out = *pSrc++;
 8001c3c:	68fb      	ldr	r3, [r7, #12]
 8001c3e:	1d1a      	adds	r2, r3, #4
 8001c40:	60fa      	str	r2, [r7, #12]
 8001c42:	681b      	ldr	r3, [r3, #0]
 8001c44:	61fb      	str	r3, [r7, #28]
  blkCnt = (blockSize - 1U) % 4U;

#else

  /* Initialize blkCnt with number of samples */
  blkCnt = (blockSize - 1U);
 8001c46:	68bb      	ldr	r3, [r7, #8]
 8001c48:	3b01      	subs	r3, #1
 8001c4a:	61bb      	str	r3, [r7, #24]

#endif /* #if defined (ARM_MATH_LOOPUNROLL) */

  while (blkCnt > 0U)
 8001c4c:	e016      	b.n	8001c7c <arm_max_f32+0x52>
  {
    /* Initialize maxVal to the next consecutive values one by one */
    maxVal = *pSrc++;
 8001c4e:	68fb      	ldr	r3, [r7, #12]
 8001c50:	1d1a      	adds	r2, r3, #4
 8001c52:	60fa      	str	r2, [r7, #12]
 8001c54:	681b      	ldr	r3, [r3, #0]
 8001c56:	613b      	str	r3, [r7, #16]

    /* compare for the maximum value */
    if (out < maxVal)
 8001c58:	ed97 7a07 	vldr	s14, [r7, #28]
 8001c5c:	edd7 7a04 	vldr	s15, [r7, #16]
 8001c60:	eeb4 7ae7 	vcmpe.f32	s14, s15
 8001c64:	eef1 fa10 	vmrs	APSR_nzcv, fpscr
 8001c68:	d505      	bpl.n	8001c76 <arm_max_f32+0x4c>
    {
      /* Update the maximum value and it's index */
      out = maxVal;
 8001c6a:	693b      	ldr	r3, [r7, #16]
 8001c6c:	61fb      	str	r3, [r7, #28]
      outIndex = blockSize - blkCnt;
 8001c6e:	68ba      	ldr	r2, [r7, #8]
 8001c70:	69bb      	ldr	r3, [r7, #24]
 8001c72:	1ad3      	subs	r3, r2, r3
 8001c74:	617b      	str	r3, [r7, #20]
    }

    /* Decrement loop counter */
    blkCnt--;
 8001c76:	69bb      	ldr	r3, [r7, #24]
 8001c78:	3b01      	subs	r3, #1
 8001c7a:	61bb      	str	r3, [r7, #24]
  while (blkCnt > 0U)
 8001c7c:	69bb      	ldr	r3, [r7, #24]
 8001c7e:	2b00      	cmp	r3, #0
 8001c80:	d1e5      	bne.n	8001c4e <arm_max_f32+0x24>
  }

  /* Store the maximum value and it's index into destination pointers */
  *pResult = out;
 8001c82:	687b      	ldr	r3, [r7, #4]
 8001c84:	69fa      	ldr	r2, [r7, #28]
 8001c86:	601a      	str	r2, [r3, #0]
  *pIndex = outIndex;
 8001c88:	683b      	ldr	r3, [r7, #0]
 8001c8a:	697a      	ldr	r2, [r7, #20]
 8001c8c:	601a      	str	r2, [r3, #0]
}
 8001c8e:	bf00      	nop
 8001c90:	3724      	adds	r7, #36	@ 0x24
 8001c92:	46bd      	mov	sp, r7
 8001c94:	f85d 7b04 	ldr.w	r7, [sp], #4
 8001c98:	4770      	bx	lr

08001c9a <arm_bitreversal_32>:

ARM_DSP_ATTRIBUTE void arm_bitreversal_32(
        uint32_t *pSrc,
  const uint16_t bitRevLen,
  const uint16_t *pBitRevTab)
{
 8001c9a:	b480      	push	{r7}
 8001c9c:	b089      	sub	sp, #36	@ 0x24
 8001c9e:	af00      	add	r7, sp, #0
 8001ca0:	60f8      	str	r0, [r7, #12]
 8001ca2:	460b      	mov	r3, r1
 8001ca4:	607a      	str	r2, [r7, #4]
 8001ca6:	817b      	strh	r3, [r7, #10]
  uint32_t a, b, i, tmp;

  for (i = 0; i < bitRevLen; )
 8001ca8:	2300      	movs	r3, #0
 8001caa:	61fb      	str	r3, [r7, #28]
 8001cac:	e043      	b.n	8001d36 <arm_bitreversal_32+0x9c>
  {
     a = pBitRevTab[i    ] >> 2;
 8001cae:	69fb      	ldr	r3, [r7, #28]
 8001cb0:	005b      	lsls	r3, r3, #1
 8001cb2:	687a      	ldr	r2, [r7, #4]
 8001cb4:	4413      	add	r3, r2
 8001cb6:	881b      	ldrh	r3, [r3, #0]
 8001cb8:	089b      	lsrs	r3, r3, #2
 8001cba:	b29b      	uxth	r3, r3
 8001cbc:	61bb      	str	r3, [r7, #24]
     b = pBitRevTab[i + 1] >> 2;
 8001cbe:	69fb      	ldr	r3, [r7, #28]
 8001cc0:	3301      	adds	r3, #1
 8001cc2:	005b      	lsls	r3, r3, #1
 8001cc4:	687a      	ldr	r2, [r7, #4]
 8001cc6:	4413      	add	r3, r2
 8001cc8:	881b      	ldrh	r3, [r3, #0]
 8001cca:	089b      	lsrs	r3, r3, #2
 8001ccc:	b29b      	uxth	r3, r3
 8001cce:	617b      	str	r3, [r7, #20]

     //real
     tmp = pSrc[a];
 8001cd0:	69bb      	ldr	r3, [r7, #24]
 8001cd2:	009b      	lsls	r3, r3, #2
 8001cd4:	68fa      	ldr	r2, [r7, #12]
 8001cd6:	4413      	add	r3, r2
 8001cd8:	681b      	ldr	r3, [r3, #0]
 8001cda:	613b      	str	r3, [r7, #16]
     pSrc[a] = pSrc[b];
 8001cdc:	697b      	ldr	r3, [r7, #20]
 8001cde:	009b      	lsls	r3, r3, #2
 8001ce0:	68fa      	ldr	r2, [r7, #12]
 8001ce2:	441a      	add	r2, r3
 8001ce4:	69bb      	ldr	r3, [r7, #24]
 8001ce6:	009b      	lsls	r3, r3, #2
 8001ce8:	68f9      	ldr	r1, [r7, #12]
 8001cea:	440b      	add	r3, r1
 8001cec:	6812      	ldr	r2, [r2, #0]
 8001cee:	601a      	str	r2, [r3, #0]
     pSrc[b] = tmp;
 8001cf0:	697b      	ldr	r3, [r7, #20]
 8001cf2:	009b      	lsls	r3, r3, #2
 8001cf4:	68fa      	ldr	r2, [r7, #12]
 8001cf6:	4413      	add	r3, r2
 8001cf8:	693a      	ldr	r2, [r7, #16]
 8001cfa:	601a      	str	r2, [r3, #0]

     //complex
     tmp = pSrc[a+1];
 8001cfc:	69bb      	ldr	r3, [r7, #24]
 8001cfe:	3301      	adds	r3, #1
 8001d00:	009b      	lsls	r3, r3, #2
 8001d02:	68fa      	ldr	r2, [r7, #12]
 8001d04:	4413      	add	r3, r2
 8001d06:	681b      	ldr	r3, [r3, #0]
 8001d08:	613b      	str	r3, [r7, #16]
     pSrc[a+1] = pSrc[b+1];
 8001d0a:	697b      	ldr	r3, [r7, #20]
 8001d0c:	3301      	adds	r3, #1
 8001d0e:	009b      	lsls	r3, r3, #2
 8001d10:	68fa      	ldr	r2, [r7, #12]
 8001d12:	441a      	add	r2, r3
 8001d14:	69bb      	ldr	r3, [r7, #24]
 8001d16:	3301      	adds	r3, #1
 8001d18:	009b      	lsls	r3, r3, #2
 8001d1a:	68f9      	ldr	r1, [r7, #12]
 8001d1c:	440b      	add	r3, r1
 8001d1e:	6812      	ldr	r2, [r2, #0]
 8001d20:	601a      	str	r2, [r3, #0]
     pSrc[b+1] = tmp;
 8001d22:	697b      	ldr	r3, [r7, #20]
 8001d24:	3301      	adds	r3, #1
 8001d26:	009b      	lsls	r3, r3, #2
 8001d28:	68fa      	ldr	r2, [r7, #12]
 8001d2a:	4413      	add	r3, r2
 8001d2c:	693a      	ldr	r2, [r7, #16]
 8001d2e:	601a      	str	r2, [r3, #0]

    i += 2;
 8001d30:	69fb      	ldr	r3, [r7, #28]
 8001d32:	3302      	adds	r3, #2
 8001d34:	61fb      	str	r3, [r7, #28]
  for (i = 0; i < bitRevLen; )
 8001d36:	897b      	ldrh	r3, [r7, #10]
 8001d38:	69fa      	ldr	r2, [r7, #28]
 8001d3a:	429a      	cmp	r2, r3
 8001d3c:	d3b7      	bcc.n	8001cae <arm_bitreversal_32+0x14>
  }
}
 8001d3e:	bf00      	nop
 8001d40:	bf00      	nop
 8001d42:	3724      	adds	r7, #36	@ 0x24
 8001d44:	46bd      	mov	sp, r7
 8001d46:	f85d 7b04 	ldr.w	r7, [sp], #4
 8001d4a:	4770      	bx	lr

08001d4c <arm_cfft_radix8by2_f32>:
  @par Size of buffers according to the target architecture and datatype:
       They are described on the page \ref transformbuffers "transform buffers".
 */

static void arm_cfft_radix8by2_f32 (arm_cfft_instance_f32 * S, float32_t * p1)
{
 8001d4c:	b580      	push	{r7, lr}
 8001d4e:	b0a0      	sub	sp, #128	@ 0x80
 8001d50:	af00      	add	r7, sp, #0
 8001d52:	6078      	str	r0, [r7, #4]
 8001d54:	6039      	str	r1, [r7, #0]
  uint32_t    L  = S->fftLen;
 8001d56:	687b      	ldr	r3, [r7, #4]
 8001d58:	881b      	ldrh	r3, [r3, #0]
 8001d5a:	66bb      	str	r3, [r7, #104]	@ 0x68
  float32_t * pCol1, * pCol2, * pMid1, * pMid2;
  float32_t * p2 = p1 + L;
 8001d5c:	6ebb      	ldr	r3, [r7, #104]	@ 0x68
 8001d5e:	009b      	lsls	r3, r3, #2
 8001d60:	683a      	ldr	r2, [r7, #0]
 8001d62:	4413      	add	r3, r2
 8001d64:	677b      	str	r3, [r7, #116]	@ 0x74
  const float32_t * tw = (float32_t *) S->pTwiddle;
 8001d66:	687b      	ldr	r3, [r7, #4]
 8001d68:	685b      	ldr	r3, [r3, #4]
 8001d6a:	673b      	str	r3, [r7, #112]	@ 0x70
  float32_t t1[4], t2[4], t3[4], t4[4], twR, twI;
  float32_t m0, m1, m2, m3;
  uint32_t l;

  pCol1 = p1;
 8001d6c:	683b      	ldr	r3, [r7, #0]
 8001d6e:	667b      	str	r3, [r7, #100]	@ 0x64
  pCol2 = p2;
 8001d70:	6f7b      	ldr	r3, [r7, #116]	@ 0x74
 8001d72:	663b      	str	r3, [r7, #96]	@ 0x60

  /* Define new length */
  L >>= 1;
 8001d74:	6ebb      	ldr	r3, [r7, #104]	@ 0x68
 8001d76:	085b      	lsrs	r3, r3, #1
 8001d78:	66bb      	str	r3, [r7, #104]	@ 0x68

  /* Initialize mid pointers */
  pMid1 = p1 + L;
 8001d7a:	6ebb      	ldr	r3, [r7, #104]	@ 0x68
 8001d7c:	009b      	lsls	r3, r3, #2
 8001d7e:	683a      	ldr	r2, [r7, #0]
 8001d80:	4413      	add	r3, r2
 8001d82:	67fb      	str	r3, [r7, #124]	@ 0x7c
  pMid2 = p2 + L;
 8001d84:	6ebb      	ldr	r3, [r7, #104]	@ 0x68
 8001d86:	009b      	lsls	r3, r3, #2
 8001d88:	6f7a      	ldr	r2, [r7, #116]	@ 0x74
 8001d8a:	4413      	add	r3, r2
 8001d8c:	67bb      	str	r3, [r7, #120]	@ 0x78

  /* do two dot Fourier transform */
  for (l = L >> 2; l > 0; l-- )
 8001d8e:	6ebb      	ldr	r3, [r7, #104]	@ 0x68
 8001d90:	089b      	lsrs	r3, r3, #2
 8001d92:	66fb      	str	r3, [r7, #108]	@ 0x6c
 8001d94:	e1b6      	b.n	8002104 <arm_cfft_radix8by2_f32+0x3b8>
  {
    t1[0] = p1[0];
 8001d96:	683b      	ldr	r3, [r7, #0]
 8001d98:	681b      	ldr	r3, [r3, #0]
 8001d9a:	63bb      	str	r3, [r7, #56]	@ 0x38
    t1[1] = p1[1];
 8001d9c:	683b      	ldr	r3, [r7, #0]
 8001d9e:	685b      	ldr	r3, [r3, #4]
 8001da0:	63fb      	str	r3, [r7, #60]	@ 0x3c
    t1[2] = p1[2];
 8001da2:	683b      	ldr	r3, [r7, #0]
 8001da4:	689b      	ldr	r3, [r3, #8]
 8001da6:	643b      	str	r3, [r7, #64]	@ 0x40
    t1[3] = p1[3];
 8001da8:	683b      	ldr	r3, [r7, #0]
 8001daa:	68db      	ldr	r3, [r3, #12]
 8001dac:	647b      	str	r3, [r7, #68]	@ 0x44

    t2[0] = p2[0];
 8001dae:	6f7b      	ldr	r3, [r7, #116]	@ 0x74
 8001db0:	681b      	ldr	r3, [r3, #0]
 8001db2:	62bb      	str	r3, [r7, #40]	@ 0x28
    t2[1] = p2[1];
 8001db4:	6f7b      	ldr	r3, [r7, #116]	@ 0x74
 8001db6:	685b      	ldr	r3, [r3, #4]
 8001db8:	62fb      	str	r3, [r7, #44]	@ 0x2c
    t2[2] = p2[2];
 8001dba:	6f7b      	ldr	r3, [r7, #116]	@ 0x74
 8001dbc:	689b      	ldr	r3, [r3, #8]
 8001dbe:	633b      	str	r3, [r7, #48]	@ 0x30
    t2[3] = p2[3];
 8001dc0:	6f7b      	ldr	r3, [r7, #116]	@ 0x74
 8001dc2:	68db      	ldr	r3, [r3, #12]
 8001dc4:	637b      	str	r3, [r7, #52]	@ 0x34

    t3[0] = pMid1[0];
 8001dc6:	6ffb      	ldr	r3, [r7, #124]	@ 0x7c
 8001dc8:	681b      	ldr	r3, [r3, #0]
 8001dca:	61bb      	str	r3, [r7, #24]
    t3[1] = pMid1[1];
 8001dcc:	6ffb      	ldr	r3, [r7, #124]	@ 0x7c
 8001dce:	685b      	ldr	r3, [r3, #4]
 8001dd0:	61fb      	str	r3, [r7, #28]
    t3[2] = pMid1[2];
 8001dd2:	6ffb      	ldr	r3, [r7, #124]	@ 0x7c
 8001dd4:	689b      	ldr	r3, [r3, #8]
 8001dd6:	623b      	str	r3, [r7, #32]
    t3[3] = pMid1[3];
 8001dd8:	6ffb      	ldr	r3, [r7, #124]	@ 0x7c
 8001dda:	68db      	ldr	r3, [r3, #12]
 8001ddc:	627b      	str	r3, [r7, #36]	@ 0x24

    t4[0] = pMid2[0];
 8001dde:	6fbb      	ldr	r3, [r7, #120]	@ 0x78
 8001de0:	681b      	ldr	r3, [r3, #0]
 8001de2:	60bb      	str	r3, [r7, #8]
    t4[1] = pMid2[1];
 8001de4:	6fbb      	ldr	r3, [r7, #120]	@ 0x78
 8001de6:	685b      	ldr	r3, [r3, #4]
 8001de8:	60fb      	str	r3, [r7, #12]
    t4[2] = pMid2[2];
 8001dea:	6fbb      	ldr	r3, [r7, #120]	@ 0x78
 8001dec:	689b      	ldr	r3, [r3, #8]
 8001dee:	613b      	str	r3, [r7, #16]
    t4[3] = pMid2[3];
 8001df0:	6fbb      	ldr	r3, [r7, #120]	@ 0x78
 8001df2:	68db      	ldr	r3, [r3, #12]
 8001df4:	617b      	str	r3, [r7, #20]

    *p1++ = t1[0] + t2[0];
 8001df6:	ed97 7a0e 	vldr	s14, [r7, #56]	@ 0x38
 8001dfa:	edd7 7a0a 	vldr	s15, [r7, #40]	@ 0x28
 8001dfe:	683b      	ldr	r3, [r7, #0]
 8001e00:	1d1a      	adds	r2, r3, #4
 8001e02:	603a      	str	r2, [r7, #0]
 8001e04:	ee77 7a27 	vadd.f32	s15, s14, s15
 8001e08:	edc3 7a00 	vstr	s15, [r3]
    *p1++ = t1[1] + t2[1];
 8001e0c:	ed97 7a0f 	vldr	s14, [r7, #60]	@ 0x3c
 8001e10:	edd7 7a0b 	vldr	s15, [r7, #44]	@ 0x2c
 8001e14:	683b      	ldr	r3, [r7, #0]
 8001e16:	1d1a      	adds	r2, r3, #4
 8001e18:	603a      	str	r2, [r7, #0]
 8001e1a:	ee77 7a27 	vadd.f32	s15, s14, s15
 8001e1e:	edc3 7a00 	vstr	s15, [r3]
    *p1++ = t1[2] + t2[2];
 8001e22:	ed97 7a10 	vldr	s14, [r7, #64]	@ 0x40
 8001e26:	edd7 7a0c 	vldr	s15, [r7, #48]	@ 0x30
 8001e2a:	683b      	ldr	r3, [r7, #0]
 8001e2c:	1d1a      	adds	r2, r3, #4
 8001e2e:	603a      	str	r2, [r7, #0]
 8001e30:	ee77 7a27 	vadd.f32	s15, s14, s15
 8001e34:	edc3 7a00 	vstr	s15, [r3]
    *p1++ = t1[3] + t2[3];    /* col 1 */
 8001e38:	ed97 7a11 	vldr	s14, [r7, #68]	@ 0x44
 8001e3c:	edd7 7a0d 	vldr	s15, [r7, #52]	@ 0x34
 8001e40:	683b      	ldr	r3, [r7, #0]
 8001e42:	1d1a      	adds	r2, r3, #4
 8001e44:	603a      	str	r2, [r7, #0]
 8001e46:	ee77 7a27 	vadd.f32	s15, s14, s15
 8001e4a:	edc3 7a00 	vstr	s15, [r3]

    t2[0] = t1[0] - t2[0];
 8001e4e:	ed97 7a0e 	vldr	s14, [r7, #56]	@ 0x38
 8001e52:	edd7 7a0a 	vldr	s15, [r7, #40]	@ 0x28
 8001e56:	ee77 7a67 	vsub.f32	s15, s14, s15
 8001e5a:	edc7 7a0a 	vstr	s15, [r7, #40]	@ 0x28
    t2[1] = t1[1] - t2[1];
 8001e5e:	ed97 7a0f 	vldr	s14, [r7, #60]	@ 0x3c
 8001e62:	edd7 7a0b 	vldr	s15, [r7, #44]	@ 0x2c
 8001e66:	ee77 7a67 	vsub.f32	s15, s14, s15
 8001e6a:	edc7 7a0b 	vstr	s15, [r7, #44]	@ 0x2c
    t2[2] = t1[2] - t2[2];
 8001e6e:	ed97 7a10 	vldr	s14, [r7, #64]	@ 0x40
 8001e72:	edd7 7a0c 	vldr	s15, [r7, #48]	@ 0x30
 8001e76:	ee77 7a67 	vsub.f32	s15, s14, s15
 8001e7a:	edc7 7a0c 	vstr	s15, [r7, #48]	@ 0x30
    t2[3] = t1[3] - t2[3];    /* for col 2 */
 8001e7e:	ed97 7a11 	vldr	s14, [r7, #68]	@ 0x44
 8001e82:	edd7 7a0d 	vldr	s15, [r7, #52]	@ 0x34
 8001e86:	ee77 7a67 	vsub.f32	s15, s14, s15
 8001e8a:	edc7 7a0d 	vstr	s15, [r7, #52]	@ 0x34

    *pMid1++ = t3[0] + t4[0];
 8001e8e:	ed97 7a06 	vldr	s14, [r7, #24]
 8001e92:	edd7 7a02 	vldr	s15, [r7, #8]
 8001e96:	6ffb      	ldr	r3, [r7, #124]	@ 0x7c
 8001e98:	1d1a      	adds	r2, r3, #4
 8001e9a:	67fa      	str	r2, [r7, #124]	@ 0x7c
 8001e9c:	ee77 7a27 	vadd.f32	s15, s14, s15
 8001ea0:	edc3 7a00 	vstr	s15, [r3]
    *pMid1++ = t3[1] + t4[1];
 8001ea4:	ed97 7a07 	vldr	s14, [r7, #28]
 8001ea8:	edd7 7a03 	vldr	s15, [r7, #12]
 8001eac:	6ffb      	ldr	r3, [r7, #124]	@ 0x7c
 8001eae:	1d1a      	adds	r2, r3, #4
 8001eb0:	67fa      	str	r2, [r7, #124]	@ 0x7c
 8001eb2:	ee77 7a27 	vadd.f32	s15, s14, s15
 8001eb6:	edc3 7a00 	vstr	s15, [r3]
    *pMid1++ = t3[2] + t4[2];
 8001eba:	ed97 7a08 	vldr	s14, [r7, #32]
 8001ebe:	edd7 7a04 	vldr	s15, [r7, #16]
 8001ec2:	6ffb      	ldr	r3, [r7, #124]	@ 0x7c
 8001ec4:	1d1a      	adds	r2, r3, #4
 8001ec6:	67fa      	str	r2, [r7, #124]	@ 0x7c
 8001ec8:	ee77 7a27 	vadd.f32	s15, s14, s15
 8001ecc:	edc3 7a00 	vstr	s15, [r3]
    *pMid1++ = t3[3] + t4[3]; /* col 1 */
 8001ed0:	ed97 7a09 	vldr	s14, [r7, #36]	@ 0x24
 8001ed4:	edd7 7a05 	vldr	s15, [r7, #20]
 8001ed8:	6ffb      	ldr	r3, [r7, #124]	@ 0x7c
 8001eda:	1d1a      	adds	r2, r3, #4
 8001edc:	67fa      	str	r2, [r7, #124]	@ 0x7c
 8001ede:	ee77 7a27 	vadd.f32	s15, s14, s15
 8001ee2:	edc3 7a00 	vstr	s15, [r3]

    t4[0] = t4[0] - t3[0];
 8001ee6:	ed97 7a02 	vldr	s14, [r7, #8]
 8001eea:	edd7 7a06 	vldr	s15, [r7, #24]
 8001eee:	ee77 7a67 	vsub.f32	s15, s14, s15
 8001ef2:	edc7 7a02 	vstr	s15, [r7, #8]
    t4[1] = t4[1] - t3[1];
 8001ef6:	ed97 7a03 	vldr	s14, [r7, #12]
 8001efa:	edd7 7a07 	vldr	s15, [r7, #28]
 8001efe:	ee77 7a67 	vsub.f32	s15, s14, s15
 8001f02:	edc7 7a03 	vstr	s15, [r7, #12]
    t4[2] = t4[2] - t3[2];
 8001f06:	ed97 7a04 	vldr	s14, [r7, #16]
 8001f0a:	edd7 7a08 	vldr	s15, [r7, #32]
 8001f0e:	ee77 7a67 	vsub.f32	s15, s14, s15
 8001f12:	edc7 7a04 	vstr	s15, [r7, #16]
    t4[3] = t4[3] - t3[3];    /* for col 2 */
 8001f16:	ed97 7a05 	vldr	s14, [r7, #20]
 8001f1a:	edd7 7a09 	vldr	s15, [r7, #36]	@ 0x24
 8001f1e:	ee77 7a67 	vsub.f32	s15, s14, s15
 8001f22:	edc7 7a05 	vstr	s15, [r7, #20]

    twR = *tw++;
 8001f26:	6f3b      	ldr	r3, [r7, #112]	@ 0x70
 8001f28:	1d1a      	adds	r2, r3, #4
 8001f2a:	673a      	str	r2, [r7, #112]	@ 0x70
 8001f2c:	681b      	ldr	r3, [r3, #0]
 8001f2e:	65fb      	str	r3, [r7, #92]	@ 0x5c
    twI = *tw++;
 8001f30:	6f3b      	ldr	r3, [r7, #112]	@ 0x70
 8001f32:	1d1a      	adds	r2, r3, #4
 8001f34:	673a      	str	r2, [r7, #112]	@ 0x70
 8001f36:	681b      	ldr	r3, [r3, #0]
 8001f38:	65bb      	str	r3, [r7, #88]	@ 0x58

    /* multiply by twiddle factors */
    m0 = t2[0] * twR;
 8001f3a:	edd7 7a0a 	vldr	s15, [r7, #40]	@ 0x28
 8001f3e:	ed97 7a17 	vldr	s14, [r7, #92]	@ 0x5c
 8001f42:	ee67 7a27 	vmul.f32	s15, s14, s15
 8001f46:	edc7 7a15 	vstr	s15, [r7, #84]	@ 0x54
    m1 = t2[1] * twI;
 8001f4a:	edd7 7a0b 	vldr	s15, [r7, #44]	@ 0x2c
 8001f4e:	ed97 7a16 	vldr	s14, [r7, #88]	@ 0x58
 8001f52:	ee67 7a27 	vmul.f32	s15, s14, s15
 8001f56:	edc7 7a14 	vstr	s15, [r7, #80]	@ 0x50
    m2 = t2[1] * twR;
 8001f5a:	edd7 7a0b 	vldr	s15, [r7, #44]	@ 0x2c
 8001f5e:	ed97 7a17 	vldr	s14, [r7, #92]	@ 0x5c
 8001f62:	ee67 7a27 	vmul.f32	s15, s14, s15
 8001f66:	edc7 7a13 	vstr	s15, [r7, #76]	@ 0x4c
    m3 = t2[0] * twI;
 8001f6a:	edd7 7a0a 	vldr	s15, [r7, #40]	@ 0x28
 8001f6e:	ed97 7a16 	vldr	s14, [r7, #88]	@ 0x58
 8001f72:	ee67 7a27 	vmul.f32	s15, s14, s15
 8001f76:	edc7 7a12 	vstr	s15, [r7, #72]	@ 0x48

    /* R  =  R  *  Tr - I * Ti */
    *p2++ = m0 + m1;
 8001f7a:	6f7b      	ldr	r3, [r7, #116]	@ 0x74
 8001f7c:	1d1a      	adds	r2, r3, #4
 8001f7e:	677a      	str	r2, [r7, #116]	@ 0x74
 8001f80:	ed97 7a15 	vldr	s14, [r7, #84]	@ 0x54
 8001f84:	edd7 7a14 	vldr	s15, [r7, #80]	@ 0x50
 8001f88:	ee77 7a27 	vadd.f32	s15, s14, s15
 8001f8c:	edc3 7a00 	vstr	s15, [r3]
    /* I  =  I  *  Tr + R * Ti */
    *p2++ = m2 - m3;
 8001f90:	6f7b      	ldr	r3, [r7, #116]	@ 0x74
 8001f92:	1d1a      	adds	r2, r3, #4
 8001f94:	677a      	str	r2, [r7, #116]	@ 0x74
 8001f96:	ed97 7a13 	vldr	s14, [r7, #76]	@ 0x4c
 8001f9a:	edd7 7a12 	vldr	s15, [r7, #72]	@ 0x48
 8001f9e:	ee77 7a67 	vsub.f32	s15, s14, s15
 8001fa2:	edc3 7a00 	vstr	s15, [r3]

    /* use vertical symmetry */
    /*  0.9988 - 0.0491i <==> -0.0491 - 0.9988i */
    m0 = t4[0] * twI;
 8001fa6:	edd7 7a02 	vldr	s15, [r7, #8]
 8001faa:	ed97 7a16 	vldr	s14, [r7, #88]	@ 0x58
 8001fae:	ee67 7a27 	vmul.f32	s15, s14, s15
 8001fb2:	edc7 7a15 	vstr	s15, [r7, #84]	@ 0x54
    m1 = t4[1] * twR;
 8001fb6:	edd7 7a03 	vldr	s15, [r7, #12]
 8001fba:	ed97 7a17 	vldr	s14, [r7, #92]	@ 0x5c
 8001fbe:	ee67 7a27 	vmul.f32	s15, s14, s15
 8001fc2:	edc7 7a14 	vstr	s15, [r7, #80]	@ 0x50
    m2 = t4[1] * twI;
 8001fc6:	edd7 7a03 	vldr	s15, [r7, #12]
 8001fca:	ed97 7a16 	vldr	s14, [r7, #88]	@ 0x58
 8001fce:	ee67 7a27 	vmul.f32	s15, s14, s15
 8001fd2:	edc7 7a13 	vstr	s15, [r7, #76]	@ 0x4c
    m3 = t4[0] * twR;
 8001fd6:	edd7 7a02 	vldr	s15, [r7, #8]
 8001fda:	ed97 7a17 	vldr	s14, [r7, #92]	@ 0x5c
 8001fde:	ee67 7a27 	vmul.f32	s15, s14, s15
 8001fe2:	edc7 7a12 	vstr	s15, [r7, #72]	@ 0x48

    *pMid2++ = m0 - m1;
 8001fe6:	6fbb      	ldr	r3, [r7, #120]	@ 0x78
 8001fe8:	1d1a      	adds	r2, r3, #4
 8001fea:	67ba      	str	r2, [r7, #120]	@ 0x78
 8001fec:	ed97 7a15 	vldr	s14, [r7, #84]	@ 0x54
 8001ff0:	edd7 7a14 	vldr	s15, [r7, #80]	@ 0x50
 8001ff4:	ee77 7a67 	vsub.f32	s15, s14, s15
 8001ff8:	edc3 7a00 	vstr	s15, [r3]
    *pMid2++ = m2 + m3;
 8001ffc:	6fbb      	ldr	r3, [r7, #120]	@ 0x78
 8001ffe:	1d1a      	adds	r2, r3, #4
 8002000:	67ba      	str	r2, [r7, #120]	@ 0x78
 8002002:	ed97 7a13 	vldr	s14, [r7, #76]	@ 0x4c
 8002006:	edd7 7a12 	vldr	s15, [r7, #72]	@ 0x48
 800200a:	ee77 7a27 	vadd.f32	s15, s14, s15
 800200e:	edc3 7a00 	vstr	s15, [r3]

    twR = *tw++;
 8002012:	6f3b      	ldr	r3, [r7, #112]	@ 0x70
 8002014:	1d1a      	adds	r2, r3, #4
 8002016:	673a      	str	r2, [r7, #112]	@ 0x70
 8002018:	681b      	ldr	r3, [r3, #0]
 800201a:	65fb      	str	r3, [r7, #92]	@ 0x5c
    twI = *tw++;
 800201c:	6f3b      	ldr	r3, [r7, #112]	@ 0x70
 800201e:	1d1a      	adds	r2, r3, #4
 8002020:	673a      	str	r2, [r7, #112]	@ 0x70
 8002022:	681b      	ldr	r3, [r3, #0]
 8002024:	65bb      	str	r3, [r7, #88]	@ 0x58

    m0 = t2[2] * twR;
 8002026:	edd7 7a0c 	vldr	s15, [r7, #48]	@ 0x30
 800202a:	ed97 7a17 	vldr	s14, [r7, #92]	@ 0x5c
 800202e:	ee67 7a27 	vmul.f32	s15, s14, s15
 8002032:	edc7 7a15 	vstr	s15, [r7, #84]	@ 0x54
    m1 = t2[3] * twI;
 8002036:	edd7 7a0d 	vldr	s15, [r7, #52]	@ 0x34
 800203a:	ed97 7a16 	vldr	s14, [r7, #88]	@ 0x58
 800203e:	ee67 7a27 	vmul.f32	s15, s14, s15
 8002042:	edc7 7a14 	vstr	s15, [r7, #80]	@ 0x50
    m2 = t2[3] * twR;
 8002046:	edd7 7a0d 	vldr	s15, [r7, #52]	@ 0x34
 800204a:	ed97 7a17 	vldr	s14, [r7, #92]	@ 0x5c
 800204e:	ee67 7a27 	vmul.f32	s15, s14, s15
 8002052:	edc7 7a13 	vstr	s15, [r7, #76]	@ 0x4c
    m3 = t2[2] * twI;
 8002056:	edd7 7a0c 	vldr	s15, [r7, #48]	@ 0x30
 800205a:	ed97 7a16 	vldr	s14, [r7, #88]	@ 0x58
 800205e:	ee67 7a27 	vmul.f32	s15, s14, s15
 8002062:	edc7 7a12 	vstr	s15, [r7, #72]	@ 0x48

    *p2++ = m0 + m1;
 8002066:	6f7b      	ldr	r3, [r7, #116]	@ 0x74
 8002068:	1d1a      	adds	r2, r3, #4
 800206a:	677a      	str	r2, [r7, #116]	@ 0x74
 800206c:	ed97 7a15 	vldr	s14, [r7, #84]	@ 0x54
 8002070:	edd7 7a14 	vldr	s15, [r7, #80]	@ 0x50
 8002074:	ee77 7a27 	vadd.f32	s15, s14, s15
 8002078:	edc3 7a00 	vstr	s15, [r3]
    *p2++ = m2 - m3;
 800207c:	6f7b      	ldr	r3, [r7, #116]	@ 0x74
 800207e:	1d1a      	adds	r2, r3, #4
 8002080:	677a      	str	r2, [r7, #116]	@ 0x74
 8002082:	ed97 7a13 	vldr	s14, [r7, #76]	@ 0x4c
 8002086:	edd7 7a12 	vldr	s15, [r7, #72]	@ 0x48
 800208a:	ee77 7a67 	vsub.f32	s15, s14, s15
 800208e:	edc3 7a00 	vstr	s15, [r3]

    m0 = t4[2] * twI;
 8002092:	edd7 7a04 	vldr	s15, [r7, #16]
 8002096:	ed97 7a16 	vldr	s14, [r7, #88]	@ 0x58
 800209a:	ee67 7a27 	vmul.f32	s15, s14, s15
 800209e:	edc7 7a15 	vstr	s15, [r7, #84]	@ 0x54
    m1 = t4[3] * twR;
 80020a2:	edd7 7a05 	vldr	s15, [r7, #20]
 80020a6:	ed97 7a17 	vldr	s14, [r7, #92]	@ 0x5c
 80020aa:	ee67 7a27 	vmul.f32	s15, s14, s15
 80020ae:	edc7 7a14 	vstr	s15, [r7, #80]	@ 0x50
    m2 = t4[3] * twI;
 80020b2:	edd7 7a05 	vldr	s15, [r7, #20]
 80020b6:	ed97 7a16 	vldr	s14, [r7, #88]	@ 0x58
 80020ba:	ee67 7a27 	vmul.f32	s15, s14, s15
 80020be:	edc7 7a13 	vstr	s15, [r7, #76]	@ 0x4c
    m3 = t4[2] * twR;
 80020c2:	edd7 7a04 	vldr	s15, [r7, #16]
 80020c6:	ed97 7a17 	vldr	s14, [r7, #92]	@ 0x5c
 80020ca:	ee67 7a27 	vmul.f32	s15, s14, s15
 80020ce:	edc7 7a12 	vstr	s15, [r7, #72]	@ 0x48

    *pMid2++ = m0 - m1;
 80020d2:	6fbb      	ldr	r3, [r7, #120]	@ 0x78
 80020d4:	1d1a      	adds	r2, r3, #4
 80020d6:	67ba      	str	r2, [r7, #120]	@ 0x78
 80020d8:	ed97 7a15 	vldr	s14, [r7, #84]	@ 0x54
 80020dc:	edd7 7a14 	vldr	s15, [r7, #80]	@ 0x50
 80020e0:	ee77 7a67 	vsub.f32	s15, s14, s15
 80020e4:	edc3 7a00 	vstr	s15, [r3]
    *pMid2++ = m2 + m3;
 80020e8:	6fbb      	ldr	r3, [r7, #120]	@ 0x78
 80020ea:	1d1a      	adds	r2, r3, #4
 80020ec:	67ba      	str	r2, [r7, #120]	@ 0x78
 80020ee:	ed97 7a13 	vldr	s14, [r7, #76]	@ 0x4c
 80020f2:	edd7 7a12 	vldr	s15, [r7, #72]	@ 0x48
 80020f6:	ee77 7a27 	vadd.f32	s15, s14, s15
 80020fa:	edc3 7a00 	vstr	s15, [r3]
  for (l = L >> 2; l > 0; l-- )
 80020fe:	6efb      	ldr	r3, [r7, #108]	@ 0x6c
 8002100:	3b01      	subs	r3, #1
 8002102:	66fb      	str	r3, [r7, #108]	@ 0x6c
 8002104:	6efb      	ldr	r3, [r7, #108]	@ 0x6c
 8002106:	2b00      	cmp	r3, #0
 8002108:	f47f ae45 	bne.w	8001d96 <arm_cfft_radix8by2_f32+0x4a>
  }

  /* first col */
  arm_radix8_butterfly_f32 (pCol1, L, (float32_t *) S->pTwiddle, 2U);
 800210c:	6ebb      	ldr	r3, [r7, #104]	@ 0x68
 800210e:	b299      	uxth	r1, r3
 8002110:	687b      	ldr	r3, [r7, #4]
 8002112:	685a      	ldr	r2, [r3, #4]
 8002114:	2302      	movs	r3, #2
 8002116:	6e78      	ldr	r0, [r7, #100]	@ 0x64
 8002118:	f001 f80e 	bl	8003138 <arm_radix8_butterfly_f32>

  /* second col */
  arm_radix8_butterfly_f32 (pCol2, L, (float32_t *) S->pTwiddle, 2U);
 800211c:	6ebb      	ldr	r3, [r7, #104]	@ 0x68
 800211e:	b299      	uxth	r1, r3
 8002120:	687b      	ldr	r3, [r7, #4]
 8002122:	685a      	ldr	r2, [r3, #4]
 8002124:	2302      	movs	r3, #2
 8002126:	6e38      	ldr	r0, [r7, #96]	@ 0x60
 8002128:	f001 f806 	bl	8003138 <arm_radix8_butterfly_f32>
}
 800212c:	bf00      	nop
 800212e:	3780      	adds	r7, #128	@ 0x80
 8002130:	46bd      	mov	sp, r7
 8002132:	bd80      	pop	{r7, pc}

08002134 <arm_cfft_radix8by4_f32>:

static void arm_cfft_radix8by4_f32 (arm_cfft_instance_f32 * S, float32_t * p1)
{
 8002134:	b580      	push	{r7, lr}
 8002136:	b0ac      	sub	sp, #176	@ 0xb0
 8002138:	af00      	add	r7, sp, #0
 800213a:	6078      	str	r0, [r7, #4]
 800213c:	6039      	str	r1, [r7, #0]
    uint32_t    L  = S->fftLen >> 1;
 800213e:	687b      	ldr	r3, [r7, #4]
 8002140:	881b      	ldrh	r3, [r3, #0]
 8002142:	085b      	lsrs	r3, r3, #1
 8002144:	b29b      	uxth	r3, r3
 8002146:	f8c7 3080 	str.w	r3, [r7, #128]	@ 0x80
    float32_t * pCol1, *pCol2, *pCol3, *pCol4, *pEnd1, *pEnd2, *pEnd3, *pEnd4;
    const float32_t *tw2, *tw3, *tw4;
    float32_t * p2 = p1 + L;
 800214a:	f8d7 3080 	ldr.w	r3, [r7, #128]	@ 0x80
 800214e:	009b      	lsls	r3, r3, #2
 8002150:	683a      	ldr	r2, [r7, #0]
 8002152:	4413      	add	r3, r2
 8002154:	f8c7 3090 	str.w	r3, [r7, #144]	@ 0x90
    float32_t * p3 = p2 + L;
 8002158:	f8d7 3080 	ldr.w	r3, [r7, #128]	@ 0x80
 800215c:	009b      	lsls	r3, r3, #2
 800215e:	f8d7 2090 	ldr.w	r2, [r7, #144]	@ 0x90
 8002162:	4413      	add	r3, r2
 8002164:	f8c7 308c 	str.w	r3, [r7, #140]	@ 0x8c
    float32_t * p4 = p3 + L;
 8002168:	f8d7 3080 	ldr.w	r3, [r7, #128]	@ 0x80
 800216c:	009b      	lsls	r3, r3, #2
 800216e:	f8d7 208c 	ldr.w	r2, [r7, #140]	@ 0x8c
 8002172:	4413      	add	r3, r2
 8002174:	f8c7 3088 	str.w	r3, [r7, #136]	@ 0x88
    float32_t t2[4], t3[4], t4[4], twR, twI;
    float32_t p1ap3_0, p1sp3_0, p1ap3_1, p1sp3_1;
    float32_t m0, m1, m2, m3;
    uint32_t l, twMod2, twMod3, twMod4;

    pCol1 = p1;         /* points to real values by default */
 8002178:	683b      	ldr	r3, [r7, #0]
 800217a:	67fb      	str	r3, [r7, #124]	@ 0x7c
    pCol2 = p2;
 800217c:	f8d7 3090 	ldr.w	r3, [r7, #144]	@ 0x90
 8002180:	67bb      	str	r3, [r7, #120]	@ 0x78
    pCol3 = p3;
 8002182:	f8d7 308c 	ldr.w	r3, [r7, #140]	@ 0x8c
 8002186:	677b      	str	r3, [r7, #116]	@ 0x74
    pCol4 = p4;
 8002188:	f8d7 3088 	ldr.w	r3, [r7, #136]	@ 0x88
 800218c:	673b      	str	r3, [r7, #112]	@ 0x70
    pEnd1 = p2 - 1;     /* points to imaginary values by default */
 800218e:	f8d7 3090 	ldr.w	r3, [r7, #144]	@ 0x90
 8002192:	3b04      	subs	r3, #4
 8002194:	f8c7 30ac 	str.w	r3, [r7, #172]	@ 0xac
    pEnd2 = p3 - 1;
 8002198:	f8d7 308c 	ldr.w	r3, [r7, #140]	@ 0x8c
 800219c:	3b04      	subs	r3, #4
 800219e:	f8c7 30a8 	str.w	r3, [r7, #168]	@ 0xa8
    pEnd3 = p4 - 1;
 80021a2:	f8d7 3088 	ldr.w	r3, [r7, #136]	@ 0x88
 80021a6:	3b04      	subs	r3, #4
 80021a8:	f8c7 30a4 	str.w	r3, [r7, #164]	@ 0xa4
    pEnd4 = pEnd3 + L;
 80021ac:	f8d7 3080 	ldr.w	r3, [r7, #128]	@ 0x80
 80021b0:	009b      	lsls	r3, r3, #2
 80021b2:	f8d7 20a4 	ldr.w	r2, [r7, #164]	@ 0xa4
 80021b6:	4413      	add	r3, r2
 80021b8:	f8c7 30a0 	str.w	r3, [r7, #160]	@ 0xa0

    tw2 = tw3 = tw4 = (float32_t *) S->pTwiddle;
 80021bc:	687b      	ldr	r3, [r7, #4]
 80021be:	685b      	ldr	r3, [r3, #4]
 80021c0:	f8c7 3094 	str.w	r3, [r7, #148]	@ 0x94
 80021c4:	f8d7 3094 	ldr.w	r3, [r7, #148]	@ 0x94
 80021c8:	f8c7 3098 	str.w	r3, [r7, #152]	@ 0x98
 80021cc:	f8d7 3098 	ldr.w	r3, [r7, #152]	@ 0x98
 80021d0:	f8c7 309c 	str.w	r3, [r7, #156]	@ 0x9c

    L >>= 1;
 80021d4:	f8d7 3080 	ldr.w	r3, [r7, #128]	@ 0x80
 80021d8:	085b      	lsrs	r3, r3, #1
 80021da:	f8c7 3080 	str.w	r3, [r7, #128]	@ 0x80

    /* do four dot Fourier transform */

    twMod2 = 2;
 80021de:	2302      	movs	r3, #2
 80021e0:	66fb      	str	r3, [r7, #108]	@ 0x6c
    twMod3 = 4;
 80021e2:	2304      	movs	r3, #4
 80021e4:	66bb      	str	r3, [r7, #104]	@ 0x68
    twMod4 = 6;
 80021e6:	2306      	movs	r3, #6
 80021e8:	667b      	str	r3, [r7, #100]	@ 0x64

    /* TOP */
    p1ap3_0 = p1[0] + p3[0];
 80021ea:	683b      	ldr	r3, [r7, #0]
 80021ec:	ed93 7a00 	vldr	s14, [r3]
 80021f0:	f8d7 308c 	ldr.w	r3, [r7, #140]	@ 0x8c
 80021f4:	edd3 7a00 	vldr	s15, [r3]
 80021f8:	ee77 7a27 	vadd.f32	s15, s14, s15
 80021fc:	edc7 7a18 	vstr	s15, [r7, #96]	@ 0x60
    p1sp3_0 = p1[0] - p3[0];
 8002200:	683b      	ldr	r3, [r7, #0]
 8002202:	ed93 7a00 	vldr	s14, [r3]
 8002206:	f8d7 308c 	ldr.w	r3, [r7, #140]	@ 0x8c
 800220a:	edd3 7a00 	vldr	s15, [r3]
 800220e:	ee77 7a67 	vsub.f32	s15, s14, s15
 8002212:	edc7 7a17 	vstr	s15, [r7, #92]	@ 0x5c
    p1ap3_1 = p1[1] + p3[1];
 8002216:	683b      	ldr	r3, [r7, #0]
 8002218:	3304      	adds	r3, #4
 800221a:	ed93 7a00 	vldr	s14, [r3]
 800221e:	f8d7 308c 	ldr.w	r3, [r7, #140]	@ 0x8c
 8002222:	3304      	adds	r3, #4
 8002224:	edd3 7a00 	vldr	s15, [r3]
 8002228:	ee77 7a27 	vadd.f32	s15, s14, s15
 800222c:	edc7 7a16 	vstr	s15, [r7, #88]	@ 0x58
    p1sp3_1 = p1[1] - p3[1];
 8002230:	683b      	ldr	r3, [r7, #0]
 8002232:	3304      	adds	r3, #4
 8002234:	ed93 7a00 	vldr	s14, [r3]
 8002238:	f8d7 308c 	ldr.w	r3, [r7, #140]	@ 0x8c
 800223c:	3304      	adds	r3, #4
 800223e:	edd3 7a00 	vldr	s15, [r3]
 8002242:	ee77 7a67 	vsub.f32	s15, s14, s15
 8002246:	edc7 7a15 	vstr	s15, [r7, #84]	@ 0x54

    /* col 2 */
    t2[0] = p1sp3_0 + p2[1] - p4[1];
 800224a:	f8d7 3090 	ldr.w	r3, [r7, #144]	@ 0x90
 800224e:	3304      	adds	r3, #4
 8002250:	ed93 7a00 	vldr	s14, [r3]
 8002254:	edd7 7a17 	vldr	s15, [r7, #92]	@ 0x5c
 8002258:	ee37 7a27 	vadd.f32	s14, s14, s15
 800225c:	f8d7 3088 	ldr.w	r3, [r7, #136]	@ 0x88
 8002260:	3304      	adds	r3, #4
 8002262:	edd3 7a00 	vldr	s15, [r3]
 8002266:	ee77 7a67 	vsub.f32	s15, s14, s15
 800226a:	edc7 7a0b 	vstr	s15, [r7, #44]	@ 0x2c
    t2[1] = p1sp3_1 - p2[0] + p4[0];
 800226e:	f8d7 3090 	ldr.w	r3, [r7, #144]	@ 0x90
 8002272:	edd3 7a00 	vldr	s15, [r3]
 8002276:	ed97 7a15 	vldr	s14, [r7, #84]	@ 0x54
 800227a:	ee37 7a67 	vsub.f32	s14, s14, s15
 800227e:	f8d7 3088 	ldr.w	r3, [r7, #136]	@ 0x88
 8002282:	edd3 7a00 	vldr	s15, [r3]
 8002286:	ee77 7a27 	vadd.f32	s15, s14, s15
 800228a:	edc7 7a0c 	vstr	s15, [r7, #48]	@ 0x30
    /* col 3 */
    t3[0] = p1ap3_0 - p2[0] - p4[0];
 800228e:	f8d7 3090 	ldr.w	r3, [r7, #144]	@ 0x90
 8002292:	edd3 7a00 	vldr	s15, [r3]
 8002296:	ed97 7a18 	vldr	s14, [r7, #96]	@ 0x60
 800229a:	ee37 7a67 	vsub.f32	s14, s14, s15
 800229e:	f8d7 3088 	ldr.w	r3, [r7, #136]	@ 0x88
 80022a2:	edd3 7a00 	vldr	s15, [r3]
 80022a6:	ee77 7a67 	vsub.f32	s15, s14, s15
 80022aa:	edc7 7a07 	vstr	s15, [r7, #28]
    t3[1] = p1ap3_1 - p2[1] - p4[1];
 80022ae:	f8d7 3090 	ldr.w	r3, [r7, #144]	@ 0x90
 80022b2:	3304      	adds	r3, #4
 80022b4:	edd3 7a00 	vldr	s15, [r3]
 80022b8:	ed97 7a16 	vldr	s14, [r7, #88]	@ 0x58
 80022bc:	ee37 7a67 	vsub.f32	s14, s14, s15
 80022c0:	f8d7 3088 	ldr.w	r3, [r7, #136]	@ 0x88
 80022c4:	3304      	adds	r3, #4
 80022c6:	edd3 7a00 	vldr	s15, [r3]
 80022ca:	ee77 7a67 	vsub.f32	s15, s14, s15
 80022ce:	edc7 7a08 	vstr	s15, [r7, #32]
    /* col 4 */
    t4[0] = p1sp3_0 - p2[1] + p4[1];
 80022d2:	f8d7 3090 	ldr.w	r3, [r7, #144]	@ 0x90
 80022d6:	3304      	adds	r3, #4
 80022d8:	edd3 7a00 	vldr	s15, [r3]
 80022dc:	ed97 7a17 	vldr	s14, [r7, #92]	@ 0x5c
 80022e0:	ee37 7a67 	vsub.f32	s14, s14, s15
 80022e4:	f8d7 3088 	ldr.w	r3, [r7, #136]	@ 0x88
 80022e8:	3304      	adds	r3, #4
 80022ea:	edd3 7a00 	vldr	s15, [r3]
 80022ee:	ee77 7a27 	vadd.f32	s15, s14, s15
 80022f2:	edc7 7a03 	vstr	s15, [r7, #12]
    t4[1] = p1sp3_1 + p2[0] - p4[0];
 80022f6:	f8d7 3090 	ldr.w	r3, [r7, #144]	@ 0x90
 80022fa:	ed93 7a00 	vldr	s14, [r3]
 80022fe:	edd7 7a15 	vldr	s15, [r7, #84]	@ 0x54
 8002302:	ee37 7a27 	vadd.f32	s14, s14, s15
 8002306:	f8d7 3088 	ldr.w	r3, [r7, #136]	@ 0x88
 800230a:	edd3 7a00 	vldr	s15, [r3]
 800230e:	ee77 7a67 	vsub.f32	s15, s14, s15
 8002312:	edc7 7a04 	vstr	s15, [r7, #16]
    /* col 1 */
    *p1++ = p1ap3_0 + p2[0] + p4[0];
 8002316:	f8d7 3090 	ldr.w	r3, [r7, #144]	@ 0x90
 800231a:	ed93 7a00 	vldr	s14, [r3]
 800231e:	edd7 7a18 	vldr	s15, [r7, #96]	@ 0x60
 8002322:	ee37 7a27 	vadd.f32	s14, s14, s15
 8002326:	f8d7 3088 	ldr.w	r3, [r7, #136]	@ 0x88
 800232a:	edd3 7a00 	vldr	s15, [r3]
 800232e:	683b      	ldr	r3, [r7, #0]
 8002330:	1d1a      	adds	r2, r3, #4
 8002332:	603a      	str	r2, [r7, #0]
 8002334:	ee77 7a27 	vadd.f32	s15, s14, s15
 8002338:	edc3 7a00 	vstr	s15, [r3]
    *p1++ = p1ap3_1 + p2[1] + p4[1];
 800233c:	f8d7 3090 	ldr.w	r3, [r7, #144]	@ 0x90
 8002340:	3304      	adds	r3, #4
 8002342:	ed93 7a00 	vldr	s14, [r3]
 8002346:	edd7 7a16 	vldr	s15, [r7, #88]	@ 0x58
 800234a:	ee37 7a27 	vadd.f32	s14, s14, s15
 800234e:	f8d7 3088 	ldr.w	r3, [r7, #136]	@ 0x88
 8002352:	3304      	adds	r3, #4
 8002354:	edd3 7a00 	vldr	s15, [r3]
 8002358:	683b      	ldr	r3, [r7, #0]
 800235a:	1d1a      	adds	r2, r3, #4
 800235c:	603a      	str	r2, [r7, #0]
 800235e:	ee77 7a27 	vadd.f32	s15, s14, s15
 8002362:	edc3 7a00 	vstr	s15, [r3]

    /* Twiddle factors are ones */
    *p2++ = t2[0];
 8002366:	f8d7 3090 	ldr.w	r3, [r7, #144]	@ 0x90
 800236a:	1d1a      	adds	r2, r3, #4
 800236c:	f8c7 2090 	str.w	r2, [r7, #144]	@ 0x90
 8002370:	6afa      	ldr	r2, [r7, #44]	@ 0x2c
 8002372:	601a      	str	r2, [r3, #0]
    *p2++ = t2[1];
 8002374:	f8d7 3090 	ldr.w	r3, [r7, #144]	@ 0x90
 8002378:	1d1a      	adds	r2, r3, #4
 800237a:	f8c7 2090 	str.w	r2, [r7, #144]	@ 0x90
 800237e:	6b3a      	ldr	r2, [r7, #48]	@ 0x30
 8002380:	601a      	str	r2, [r3, #0]
    *p3++ = t3[0];
 8002382:	f8d7 308c 	ldr.w	r3, [r7, #140]	@ 0x8c
 8002386:	1d1a      	adds	r2, r3, #4
 8002388:	f8c7 208c 	str.w	r2, [r7, #140]	@ 0x8c
 800238c:	69fa      	ldr	r2, [r7, #28]
 800238e:	601a      	str	r2, [r3, #0]
    *p3++ = t3[1];
 8002390:	f8d7 308c 	ldr.w	r3, [r7, #140]	@ 0x8c
 8002394:	1d1a      	adds	r2, r3, #4
 8002396:	f8c7 208c 	str.w	r2, [r7, #140]	@ 0x8c
 800239a:	6a3a      	ldr	r2, [r7, #32]
 800239c:	601a      	str	r2, [r3, #0]
    *p4++ = t4[0];
 800239e:	f8d7 3088 	ldr.w	r3, [r7, #136]	@ 0x88
 80023a2:	1d1a      	adds	r2, r3, #4
 80023a4:	f8c7 2088 	str.w	r2, [r7, #136]	@ 0x88
 80023a8:	68fa      	ldr	r2, [r7, #12]
 80023aa:	601a      	str	r2, [r3, #0]
    *p4++ = t4[1];
 80023ac:	f8d7 3088 	ldr.w	r3, [r7, #136]	@ 0x88
 80023b0:	1d1a      	adds	r2, r3, #4
 80023b2:	f8c7 2088 	str.w	r2, [r7, #136]	@ 0x88
 80023b6:	693a      	ldr	r2, [r7, #16]
 80023b8:	601a      	str	r2, [r3, #0]

    tw2 += twMod2;
 80023ba:	6efb      	ldr	r3, [r7, #108]	@ 0x6c
 80023bc:	009b      	lsls	r3, r3, #2
 80023be:	f8d7 209c 	ldr.w	r2, [r7, #156]	@ 0x9c
 80023c2:	4413      	add	r3, r2
 80023c4:	f8c7 309c 	str.w	r3, [r7, #156]	@ 0x9c
    tw3 += twMod3;
 80023c8:	6ebb      	ldr	r3, [r7, #104]	@ 0x68
 80023ca:	009b      	lsls	r3, r3, #2
 80023cc:	f8d7 2098 	ldr.w	r2, [r7, #152]	@ 0x98
 80023d0:	4413      	add	r3, r2
 80023d2:	f8c7 3098 	str.w	r3, [r7, #152]	@ 0x98
    tw4 += twMod4;
 80023d6:	6e7b      	ldr	r3, [r7, #100]	@ 0x64
 80023d8:	009b      	lsls	r3, r3, #2
 80023da:	f8d7 2094 	ldr.w	r2, [r7, #148]	@ 0x94
 80023de:	4413      	add	r3, r2
 80023e0:	f8c7 3094 	str.w	r3, [r7, #148]	@ 0x94

    for (l = (L - 2) >> 1; l > 0; l-- )
 80023e4:	f8d7 3080 	ldr.w	r3, [r7, #128]	@ 0x80
 80023e8:	3b02      	subs	r3, #2
 80023ea:	085b      	lsrs	r3, r3, #1
 80023ec:	f8c7 3084 	str.w	r3, [r7, #132]	@ 0x84
 80023f0:	e31c      	b.n	8002a2c <arm_cfft_radix8by4_f32+0x8f8>
    {
      /* TOP */
      p1ap3_0 = p1[0] + p3[0];
 80023f2:	683b      	ldr	r3, [r7, #0]
 80023f4:	ed93 7a00 	vldr	s14, [r3]
 80023f8:	f8d7 308c 	ldr.w	r3, [r7, #140]	@ 0x8c
 80023fc:	edd3 7a00 	vldr	s15, [r3]
 8002400:	ee77 7a27 	vadd.f32	s15, s14, s15
 8002404:	edc7 7a18 	vstr	s15, [r7, #96]	@ 0x60
      p1sp3_0 = p1[0] - p3[0];
 8002408:	683b      	ldr	r3, [r7, #0]
 800240a:	ed93 7a00 	vldr	s14, [r3]
 800240e:	f8d7 308c 	ldr.w	r3, [r7, #140]	@ 0x8c
 8002412:	edd3 7a00 	vldr	s15, [r3]
 8002416:	ee77 7a67 	vsub.f32	s15, s14, s15
 800241a:	edc7 7a17 	vstr	s15, [r7, #92]	@ 0x5c
      p1ap3_1 = p1[1] + p3[1];
 800241e:	683b      	ldr	r3, [r7, #0]
 8002420:	3304      	adds	r3, #4
 8002422:	ed93 7a00 	vldr	s14, [r3]
 8002426:	f8d7 308c 	ldr.w	r3, [r7, #140]	@ 0x8c
 800242a:	3304      	adds	r3, #4
 800242c:	edd3 7a00 	vldr	s15, [r3]
 8002430:	ee77 7a27 	vadd.f32	s15, s14, s15
 8002434:	edc7 7a16 	vstr	s15, [r7, #88]	@ 0x58
      p1sp3_1 = p1[1] - p3[1];
 8002438:	683b      	ldr	r3, [r7, #0]
 800243a:	3304      	adds	r3, #4
 800243c:	ed93 7a00 	vldr	s14, [r3]
 8002440:	f8d7 308c 	ldr.w	r3, [r7, #140]	@ 0x8c
 8002444:	3304      	adds	r3, #4
 8002446:	edd3 7a00 	vldr	s15, [r3]
 800244a:	ee77 7a67 	vsub.f32	s15, s14, s15
 800244e:	edc7 7a15 	vstr	s15, [r7, #84]	@ 0x54
      /* col 2 */
      t2[0] = p1sp3_0 + p2[1] - p4[1];
 8002452:	f8d7 3090 	ldr.w	r3, [r7, #144]	@ 0x90
 8002456:	3304      	adds	r3, #4
 8002458:	ed93 7a00 	vldr	s14, [r3]
 800245c:	edd7 7a17 	vldr	s15, [r7, #92]	@ 0x5c
 8002460:	ee37 7a27 	vadd.f32	s14, s14, s15
 8002464:	f8d7 3088 	ldr.w	r3, [r7, #136]	@ 0x88
 8002468:	3304      	adds	r3, #4
 800246a:	edd3 7a00 	vldr	s15, [r3]
 800246e:	ee77 7a67 	vsub.f32	s15, s14, s15
 8002472:	edc7 7a0b 	vstr	s15, [r7, #44]	@ 0x2c
      t2[1] = p1sp3_1 - p2[0] + p4[0];
 8002476:	f8d7 3090 	ldr.w	r3, [r7, #144]	@ 0x90
 800247a:	edd3 7a00 	vldr	s15, [r3]
 800247e:	ed97 7a15 	vldr	s14, [r7, #84]	@ 0x54
 8002482:	ee37 7a67 	vsub.f32	s14, s14, s15
 8002486:	f8d7 3088 	ldr.w	r3, [r7, #136]	@ 0x88
 800248a:	edd3 7a00 	vldr	s15, [r3]
 800248e:	ee77 7a27 	vadd.f32	s15, s14, s15
 8002492:	edc7 7a0c 	vstr	s15, [r7, #48]	@ 0x30
      /* col 3 */
      t3[0] = p1ap3_0 - p2[0] - p4[0];
 8002496:	f8d7 3090 	ldr.w	r3, [r7, #144]	@ 0x90
 800249a:	edd3 7a00 	vldr	s15, [r3]
 800249e:	ed97 7a18 	vldr	s14, [r7, #96]	@ 0x60
 80024a2:	ee37 7a67 	vsub.f32	s14, s14, s15
 80024a6:	f8d7 3088 	ldr.w	r3, [r7, #136]	@ 0x88
 80024aa:	edd3 7a00 	vldr	s15, [r3]
 80024ae:	ee77 7a67 	vsub.f32	s15, s14, s15
 80024b2:	edc7 7a07 	vstr	s15, [r7, #28]
      t3[1] = p1ap3_1 - p2[1] - p4[1];
 80024b6:	f8d7 3090 	ldr.w	r3, [r7, #144]	@ 0x90
 80024ba:	3304      	adds	r3, #4
 80024bc:	edd3 7a00 	vldr	s15, [r3]
 80024c0:	ed97 7a16 	vldr	s14, [r7, #88]	@ 0x58
 80024c4:	ee37 7a67 	vsub.f32	s14, s14, s15
 80024c8:	f8d7 3088 	ldr.w	r3, [r7, #136]	@ 0x88
 80024cc:	3304      	adds	r3, #4
 80024ce:	edd3 7a00 	vldr	s15, [r3]
 80024d2:	ee77 7a67 	vsub.f32	s15, s14, s15
 80024d6:	edc7 7a08 	vstr	s15, [r7, #32]
      /* col 4 */
      t4[0] = p1sp3_0 - p2[1] + p4[1];
 80024da:	f8d7 3090 	ldr.w	r3, [r7, #144]	@ 0x90
 80024de:	3304      	adds	r3, #4
 80024e0:	edd3 7a00 	vldr	s15, [r3]
 80024e4:	ed97 7a17 	vldr	s14, [r7, #92]	@ 0x5c
 80024e8:	ee37 7a67 	vsub.f32	s14, s14, s15
 80024ec:	f8d7 3088 	ldr.w	r3, [r7, #136]	@ 0x88
 80024f0:	3304      	adds	r3, #4
 80024f2:	edd3 7a00 	vldr	s15, [r3]
 80024f6:	ee77 7a27 	vadd.f32	s15, s14, s15
 80024fa:	edc7 7a03 	vstr	s15, [r7, #12]
      t4[1] = p1sp3_1 + p2[0] - p4[0];
 80024fe:	f8d7 3090 	ldr.w	r3, [r7, #144]	@ 0x90
 8002502:	ed93 7a00 	vldr	s14, [r3]
 8002506:	edd7 7a15 	vldr	s15, [r7, #84]	@ 0x54
 800250a:	ee37 7a27 	vadd.f32	s14, s14, s15
 800250e:	f8d7 3088 	ldr.w	r3, [r7, #136]	@ 0x88
 8002512:	edd3 7a00 	vldr	s15, [r3]
 8002516:	ee77 7a67 	vsub.f32	s15, s14, s15
 800251a:	edc7 7a04 	vstr	s15, [r7, #16]
      /* col 1 - top */
      *p1++ = p1ap3_0 + p2[0] + p4[0];
 800251e:	f8d7 3090 	ldr.w	r3, [r7, #144]	@ 0x90
 8002522:	ed93 7a00 	vldr	s14, [r3]
 8002526:	edd7 7a18 	vldr	s15, [r7, #96]	@ 0x60
 800252a:	ee37 7a27 	vadd.f32	s14, s14, s15
 800252e:	f8d7 3088 	ldr.w	r3, [r7, #136]	@ 0x88
 8002532:	edd3 7a00 	vldr	s15, [r3]
 8002536:	683b      	ldr	r3, [r7, #0]
 8002538:	1d1a      	adds	r2, r3, #4
 800253a:	603a      	str	r2, [r7, #0]
 800253c:	ee77 7a27 	vadd.f32	s15, s14, s15
 8002540:	edc3 7a00 	vstr	s15, [r3]
      *p1++ = p1ap3_1 + p2[1] + p4[1];
 8002544:	f8d7 3090 	ldr.w	r3, [r7, #144]	@ 0x90
 8002548:	3304      	adds	r3, #4
 800254a:	ed93 7a00 	vldr	s14, [r3]
 800254e:	edd7 7a16 	vldr	s15, [r7, #88]	@ 0x58
 8002552:	ee37 7a27 	vadd.f32	s14, s14, s15
 8002556:	f8d7 3088 	ldr.w	r3, [r7, #136]	@ 0x88
 800255a:	3304      	adds	r3, #4
 800255c:	edd3 7a00 	vldr	s15, [r3]
 8002560:	683b      	ldr	r3, [r7, #0]
 8002562:	1d1a      	adds	r2, r3, #4
 8002564:	603a      	str	r2, [r7, #0]
 8002566:	ee77 7a27 	vadd.f32	s15, s14, s15
 800256a:	edc3 7a00 	vstr	s15, [r3]

      /* BOTTOM */
      p1ap3_1 = pEnd1[-1] + pEnd3[-1];
 800256e:	f8d7 30ac 	ldr.w	r3, [r7, #172]	@ 0xac
 8002572:	3b04      	subs	r3, #4
 8002574:	ed93 7a00 	vldr	s14, [r3]
 8002578:	f8d7 30a4 	ldr.w	r3, [r7, #164]	@ 0xa4
 800257c:	3b04      	subs	r3, #4
 800257e:	edd3 7a00 	vldr	s15, [r3]
 8002582:	ee77 7a27 	vadd.f32	s15, s14, s15
 8002586:	edc7 7a16 	vstr	s15, [r7, #88]	@ 0x58
      p1sp3_1 = pEnd1[-1] - pEnd3[-1];
 800258a:	f8d7 30ac 	ldr.w	r3, [r7, #172]	@ 0xac
 800258e:	3b04      	subs	r3, #4
 8002590:	ed93 7a00 	vldr	s14, [r3]
 8002594:	f8d7 30a4 	ldr.w	r3, [r7, #164]	@ 0xa4
 8002598:	3b04      	subs	r3, #4
 800259a:	edd3 7a00 	vldr	s15, [r3]
 800259e:	ee77 7a67 	vsub.f32	s15, s14, s15
 80025a2:	edc7 7a15 	vstr	s15, [r7, #84]	@ 0x54
      p1ap3_0 = pEnd1[ 0] + pEnd3[0];
 80025a6:	f8d7 30ac 	ldr.w	r3, [r7, #172]	@ 0xac
 80025aa:	ed93 7a00 	vldr	s14, [r3]
 80025ae:	f8d7 30a4 	ldr.w	r3, [r7, #164]	@ 0xa4
 80025b2:	edd3 7a00 	vldr	s15, [r3]
 80025b6:	ee77 7a27 	vadd.f32	s15, s14, s15
 80025ba:	edc7 7a18 	vstr	s15, [r7, #96]	@ 0x60
      p1sp3_0 = pEnd1[ 0] - pEnd3[0];
 80025be:	f8d7 30ac 	ldr.w	r3, [r7, #172]	@ 0xac
 80025c2:	ed93 7a00 	vldr	s14, [r3]
 80025c6:	f8d7 30a4 	ldr.w	r3, [r7, #164]	@ 0xa4
 80025ca:	edd3 7a00 	vldr	s15, [r3]
 80025ce:	ee77 7a67 	vsub.f32	s15, s14, s15
 80025d2:	edc7 7a17 	vstr	s15, [r7, #92]	@ 0x5c
      /* col 2 */
      t2[2] = pEnd2[0] - pEnd4[0] + p1sp3_1;
 80025d6:	f8d7 30a8 	ldr.w	r3, [r7, #168]	@ 0xa8
 80025da:	ed93 7a00 	vldr	s14, [r3]
 80025de:	f8d7 30a0 	ldr.w	r3, [r7, #160]	@ 0xa0
 80025e2:	edd3 7a00 	vldr	s15, [r3]
 80025e6:	ee37 7a67 	vsub.f32	s14, s14, s15
 80025ea:	edd7 7a15 	vldr	s15, [r7, #84]	@ 0x54
 80025ee:	ee77 7a27 	vadd.f32	s15, s14, s15
 80025f2:	edc7 7a0d 	vstr	s15, [r7, #52]	@ 0x34
      t2[3] = pEnd1[0] - pEnd3[0] - pEnd2[-1] + pEnd4[-1];
 80025f6:	f8d7 30ac 	ldr.w	r3, [r7, #172]	@ 0xac
 80025fa:	ed93 7a00 	vldr	s14, [r3]
 80025fe:	f8d7 30a4 	ldr.w	r3, [r7, #164]	@ 0xa4
 8002602:	edd3 7a00 	vldr	s15, [r3]
 8002606:	ee37 7a67 	vsub.f32	s14, s14, s15
 800260a:	f8d7 30a8 	ldr.w	r3, [r7, #168]	@ 0xa8
 800260e:	3b04      	subs	r3, #4
 8002610:	edd3 7a00 	vldr	s15, [r3]
 8002614:	ee37 7a67 	vsub.f32	s14, s14, s15
 8002618:	f8d7 30a0 	ldr.w	r3, [r7, #160]	@ 0xa0
 800261c:	3b04      	subs	r3, #4
 800261e:	edd3 7a00 	vldr	s15, [r3]
 8002622:	ee77 7a27 	vadd.f32	s15, s14, s15
 8002626:	edc7 7a0e 	vstr	s15, [r7, #56]	@ 0x38
      /* col 3 */
      t3[2] = p1ap3_1 - pEnd2[-1] - pEnd4[-1];
 800262a:	f8d7 30a8 	ldr.w	r3, [r7, #168]	@ 0xa8
 800262e:	3b04      	subs	r3, #4
 8002630:	edd3 7a00 	vldr	s15, [r3]
 8002634:	ed97 7a16 	vldr	s14, [r7, #88]	@ 0x58
 8002638:	ee37 7a67 	vsub.f32	s14, s14, s15
 800263c:	f8d7 30a0 	ldr.w	r3, [r7, #160]	@ 0xa0
 8002640:	3b04      	subs	r3, #4
 8002642:	edd3 7a00 	vldr	s15, [r3]
 8002646:	ee77 7a67 	vsub.f32	s15, s14, s15
 800264a:	edc7 7a09 	vstr	s15, [r7, #36]	@ 0x24
      t3[3] = p1ap3_0 - pEnd2[ 0] - pEnd4[ 0];
 800264e:	f8d7 30a8 	ldr.w	r3, [r7, #168]	@ 0xa8
 8002652:	edd3 7a00 	vldr	s15, [r3]
 8002656:	ed97 7a18 	vldr	s14, [r7, #96]	@ 0x60
 800265a:	ee37 7a67 	vsub.f32	s14, s14, s15
 800265e:	f8d7 30a0 	ldr.w	r3, [r7, #160]	@ 0xa0
 8002662:	edd3 7a00 	vldr	s15, [r3]
 8002666:	ee77 7a67 	vsub.f32	s15, s14, s15
 800266a:	edc7 7a0a 	vstr	s15, [r7, #40]	@ 0x28
      /* col 4 */
      t4[2] = pEnd2[ 0] - pEnd4[ 0] - p1sp3_1;
 800266e:	f8d7 30a8 	ldr.w	r3, [r7, #168]	@ 0xa8
 8002672:	ed93 7a00 	vldr	s14, [r3]
 8002676:	f8d7 30a0 	ldr.w	r3, [r7, #160]	@ 0xa0
 800267a:	edd3 7a00 	vldr	s15, [r3]
 800267e:	ee37 7a67 	vsub.f32	s14, s14, s15
 8002682:	edd7 7a15 	vldr	s15, [r7, #84]	@ 0x54
 8002686:	ee77 7a67 	vsub.f32	s15, s14, s15
 800268a:	edc7 7a05 	vstr	s15, [r7, #20]
      t4[3] = pEnd4[-1] - pEnd2[-1] - p1sp3_0;
 800268e:	f8d7 30a0 	ldr.w	r3, [r7, #160]	@ 0xa0
 8002692:	3b04      	subs	r3, #4
 8002694:	ed93 7a00 	vldr	s14, [r3]
 8002698:	f8d7 30a8 	ldr.w	r3, [r7, #168]	@ 0xa8
 800269c:	3b04      	subs	r3, #4
 800269e:	edd3 7a00 	vldr	s15, [r3]
 80026a2:	ee37 7a67 	vsub.f32	s14, s14, s15
 80026a6:	edd7 7a17 	vldr	s15, [r7, #92]	@ 0x5c
 80026aa:	ee77 7a67 	vsub.f32	s15, s14, s15
 80026ae:	edc7 7a06 	vstr	s15, [r7, #24]
      /* col 1 - Bottom */
      *pEnd1-- = p1ap3_0 + pEnd2[ 0] + pEnd4[ 0];
 80026b2:	f8d7 30a8 	ldr.w	r3, [r7, #168]	@ 0xa8
 80026b6:	ed93 7a00 	vldr	s14, [r3]
 80026ba:	edd7 7a18 	vldr	s15, [r7, #96]	@ 0x60
 80026be:	ee37 7a27 	vadd.f32	s14, s14, s15
 80026c2:	f8d7 30a0 	ldr.w	r3, [r7, #160]	@ 0xa0
 80026c6:	edd3 7a00 	vldr	s15, [r3]
 80026ca:	f8d7 30ac 	ldr.w	r3, [r7, #172]	@ 0xac
 80026ce:	1f1a      	subs	r2, r3, #4
 80026d0:	f8c7 20ac 	str.w	r2, [r7, #172]	@ 0xac
 80026d4:	ee77 7a27 	vadd.f32	s15, s14, s15
 80026d8:	edc3 7a00 	vstr	s15, [r3]
      *pEnd1-- = p1ap3_1 + pEnd2[-1] + pEnd4[-1];
 80026dc:	f8d7 30a8 	ldr.w	r3, [r7, #168]	@ 0xa8
 80026e0:	3b04      	subs	r3, #4
 80026e2:	ed93 7a00 	vldr	s14, [r3]
 80026e6:	edd7 7a16 	vldr	s15, [r7, #88]	@ 0x58
 80026ea:	ee37 7a27 	vadd.f32	s14, s14, s15
 80026ee:	f8d7 30a0 	ldr.w	r3, [r7, #160]	@ 0xa0
 80026f2:	3b04      	subs	r3, #4
 80026f4:	edd3 7a00 	vldr	s15, [r3]
 80026f8:	f8d7 30ac 	ldr.w	r3, [r7, #172]	@ 0xac
 80026fc:	1f1a      	subs	r2, r3, #4
 80026fe:	f8c7 20ac 	str.w	r2, [r7, #172]	@ 0xac
 8002702:	ee77 7a27 	vadd.f32	s15, s14, s15
 8002706:	edc3 7a00 	vstr	s15, [r3]

      /* COL 2 */
      /* read twiddle factors */
      twR = *tw2++;
 800270a:	f8d7 309c 	ldr.w	r3, [r7, #156]	@ 0x9c
 800270e:	1d1a      	adds	r2, r3, #4
 8002710:	f8c7 209c 	str.w	r2, [r7, #156]	@ 0x9c
 8002714:	681b      	ldr	r3, [r3, #0]
 8002716:	653b      	str	r3, [r7, #80]	@ 0x50
      twI = *tw2++;
 8002718:	f8d7 309c 	ldr.w	r3, [r7, #156]	@ 0x9c
 800271c:	1d1a      	adds	r2, r3, #4
 800271e:	f8c7 209c 	str.w	r2, [r7, #156]	@ 0x9c
 8002722:	681b      	ldr	r3, [r3, #0]
 8002724:	64fb      	str	r3, [r7, #76]	@ 0x4c
      /* multiply by twiddle factors */
      /*  let    Z1 = a + i(b),   Z2 = c + i(d) */
      /*   =>  Z1 * Z2  =  (a*c - b*d) + i(b*c + a*d) */

      /* Top */
      m0 = t2[0] * twR;
 8002726:	edd7 7a0b 	vldr	s15, [r7, #44]	@ 0x2c
 800272a:	ed97 7a14 	vldr	s14, [r7, #80]	@ 0x50
 800272e:	ee67 7a27 	vmul.f32	s15, s14, s15
 8002732:	edc7 7a12 	vstr	s15, [r7, #72]	@ 0x48
      m1 = t2[1] * twI;
 8002736:	edd7 7a0c 	vldr	s15, [r7, #48]	@ 0x30
 800273a:	ed97 7a13 	vldr	s14, [r7, #76]	@ 0x4c
 800273e:	ee67 7a27 	vmul.f32	s15, s14, s15
 8002742:	edc7 7a11 	vstr	s15, [r7, #68]	@ 0x44
      m2 = t2[1] * twR;
 8002746:	edd7 7a0c 	vldr	s15, [r7, #48]	@ 0x30
 800274a:	ed97 7a14 	vldr	s14, [r7, #80]	@ 0x50
 800274e:	ee67 7a27 	vmul.f32	s15, s14, s15
 8002752:	edc7 7a10 	vstr	s15, [r7, #64]	@ 0x40
      m3 = t2[0] * twI;
 8002756:	edd7 7a0b 	vldr	s15, [r7, #44]	@ 0x2c
 800275a:	ed97 7a13 	vldr	s14, [r7, #76]	@ 0x4c
 800275e:	ee67 7a27 	vmul.f32	s15, s14, s15
 8002762:	edc7 7a0f 	vstr	s15, [r7, #60]	@ 0x3c

      *p2++ = m0 + m1;
 8002766:	f8d7 3090 	ldr.w	r3, [r7, #144]	@ 0x90
 800276a:	1d1a      	adds	r2, r3, #4
 800276c:	f8c7 2090 	str.w	r2, [r7, #144]	@ 0x90
 8002770:	ed97 7a12 	vldr	s14, [r7, #72]	@ 0x48
 8002774:	edd7 7a11 	vldr	s15, [r7, #68]	@ 0x44
 8002778:	ee77 7a27 	vadd.f32	s15, s14, s15
 800277c:	edc3 7a00 	vstr	s15, [r3]
      *p2++ = m2 - m3;
 8002780:	f8d7 3090 	ldr.w	r3, [r7, #144]	@ 0x90
 8002784:	1d1a      	adds	r2, r3, #4
 8002786:	f8c7 2090 	str.w	r2, [r7, #144]	@ 0x90
 800278a:	ed97 7a10 	vldr	s14, [r7, #64]	@ 0x40
 800278e:	edd7 7a0f 	vldr	s15, [r7, #60]	@ 0x3c
 8002792:	ee77 7a67 	vsub.f32	s15, s14, s15
 8002796:	edc3 7a00 	vstr	s15, [r3]
      /* use vertical symmetry col 2 */
      /* 0.9997 - 0.0245i  <==>  0.0245 - 0.9997i */
      /* Bottom */
      m0 = t2[3] * twI;
 800279a:	edd7 7a0e 	vldr	s15, [r7, #56]	@ 0x38
 800279e:	ed97 7a13 	vldr	s14, [r7, #76]	@ 0x4c
 80027a2:	ee67 7a27 	vmul.f32	s15, s14, s15
 80027a6:	edc7 7a12 	vstr	s15, [r7, #72]	@ 0x48
      m1 = t2[2] * twR;
 80027aa:	edd7 7a0d 	vldr	s15, [r7, #52]	@ 0x34
 80027ae:	ed97 7a14 	vldr	s14, [r7, #80]	@ 0x50
 80027b2:	ee67 7a27 	vmul.f32	s15, s14, s15
 80027b6:	edc7 7a11 	vstr	s15, [r7, #68]	@ 0x44
      m2 = t2[2] * twI;
 80027ba:	edd7 7a0d 	vldr	s15, [r7, #52]	@ 0x34
 80027be:	ed97 7a13 	vldr	s14, [r7, #76]	@ 0x4c
 80027c2:	ee67 7a27 	vmul.f32	s15, s14, s15
 80027c6:	edc7 7a10 	vstr	s15, [r7, #64]	@ 0x40
      m3 = t2[3] * twR;
 80027ca:	edd7 7a0e 	vldr	s15, [r7, #56]	@ 0x38
 80027ce:	ed97 7a14 	vldr	s14, [r7, #80]	@ 0x50
 80027d2:	ee67 7a27 	vmul.f32	s15, s14, s15
 80027d6:	edc7 7a0f 	vstr	s15, [r7, #60]	@ 0x3c

      *pEnd2-- = m0 - m1;
 80027da:	f8d7 30a8 	ldr.w	r3, [r7, #168]	@ 0xa8
 80027de:	1f1a      	subs	r2, r3, #4
 80027e0:	f8c7 20a8 	str.w	r2, [r7, #168]	@ 0xa8
 80027e4:	ed97 7a12 	vldr	s14, [r7, #72]	@ 0x48
 80027e8:	edd7 7a11 	vldr	s15, [r7, #68]	@ 0x44
 80027ec:	ee77 7a67 	vsub.f32	s15, s14, s15
 80027f0:	edc3 7a00 	vstr	s15, [r3]
      *pEnd2-- = m2 + m3;
 80027f4:	f8d7 30a8 	ldr.w	r3, [r7, #168]	@ 0xa8
 80027f8:	1f1a      	subs	r2, r3, #4
 80027fa:	f8c7 20a8 	str.w	r2, [r7, #168]	@ 0xa8
 80027fe:	ed97 7a10 	vldr	s14, [r7, #64]	@ 0x40
 8002802:	edd7 7a0f 	vldr	s15, [r7, #60]	@ 0x3c
 8002806:	ee77 7a27 	vadd.f32	s15, s14, s15
 800280a:	edc3 7a00 	vstr	s15, [r3]

      /* COL 3 */
      twR = tw3[0];
 800280e:	f8d7 3098 	ldr.w	r3, [r7, #152]	@ 0x98
 8002812:	681b      	ldr	r3, [r3, #0]
 8002814:	653b      	str	r3, [r7, #80]	@ 0x50
      twI = tw3[1];
 8002816:	f8d7 3098 	ldr.w	r3, [r7, #152]	@ 0x98
 800281a:	3304      	adds	r3, #4
 800281c:	681b      	ldr	r3, [r3, #0]
 800281e:	64fb      	str	r3, [r7, #76]	@ 0x4c
      tw3 += twMod3;
 8002820:	6ebb      	ldr	r3, [r7, #104]	@ 0x68
 8002822:	009b      	lsls	r3, r3, #2
 8002824:	f8d7 2098 	ldr.w	r2, [r7, #152]	@ 0x98
 8002828:	4413      	add	r3, r2
 800282a:	f8c7 3098 	str.w	r3, [r7, #152]	@ 0x98
      /* Top */
      m0 = t3[0] * twR;
 800282e:	edd7 7a07 	vldr	s15, [r7, #28]
 8002832:	ed97 7a14 	vldr	s14, [r7, #80]	@ 0x50
 8002836:	ee67 7a27 	vmul.f32	s15, s14, s15
 800283a:	edc7 7a12 	vstr	s15, [r7, #72]	@ 0x48
      m1 = t3[1] * twI;
 800283e:	edd7 7a08 	vldr	s15, [r7, #32]
 8002842:	ed97 7a13 	vldr	s14, [r7, #76]	@ 0x4c
 8002846:	ee67 7a27 	vmul.f32	s15, s14, s15
 800284a:	edc7 7a11 	vstr	s15, [r7, #68]	@ 0x44
      m2 = t3[1] * twR;
 800284e:	edd7 7a08 	vldr	s15, [r7, #32]
 8002852:	ed97 7a14 	vldr	s14, [r7, #80]	@ 0x50
 8002856:	ee67 7a27 	vmul.f32	s15, s14, s15
 800285a:	edc7 7a10 	vstr	s15, [r7, #64]	@ 0x40
      m3 = t3[0] * twI;
 800285e:	edd7 7a07 	vldr	s15, [r7, #28]
 8002862:	ed97 7a13 	vldr	s14, [r7, #76]	@ 0x4c
 8002866:	ee67 7a27 	vmul.f32	s15, s14, s15
 800286a:	edc7 7a0f 	vstr	s15, [r7, #60]	@ 0x3c

      *p3++ = m0 + m1;
 800286e:	f8d7 308c 	ldr.w	r3, [r7, #140]	@ 0x8c
 8002872:	1d1a      	adds	r2, r3, #4
 8002874:	f8c7 208c 	str.w	r2, [r7, #140]	@ 0x8c
 8002878:	ed97 7a12 	vldr	s14, [r7, #72]	@ 0x48
 800287c:	edd7 7a11 	vldr	s15, [r7, #68]	@ 0x44
 8002880:	ee77 7a27 	vadd.f32	s15, s14, s15
 8002884:	edc3 7a00 	vstr	s15, [r3]
      *p3++ = m2 - m3;
 8002888:	f8d7 308c 	ldr.w	r3, [r7, #140]	@ 0x8c
 800288c:	1d1a      	adds	r2, r3, #4
 800288e:	f8c7 208c 	str.w	r2, [r7, #140]	@ 0x8c
 8002892:	ed97 7a10 	vldr	s14, [r7, #64]	@ 0x40
 8002896:	edd7 7a0f 	vldr	s15, [r7, #60]	@ 0x3c
 800289a:	ee77 7a67 	vsub.f32	s15, s14, s15
 800289e:	edc3 7a00 	vstr	s15, [r3]
      /* use vertical symmetry col 3 */
      /* 0.9988 - 0.0491i  <==>  -0.9988 - 0.0491i */
      /* Bottom */
      m0 = -t3[3] * twR;
 80028a2:	edd7 7a0a 	vldr	s15, [r7, #40]	@ 0x28
 80028a6:	eef1 7a67 	vneg.f32	s15, s15
 80028aa:	ed97 7a14 	vldr	s14, [r7, #80]	@ 0x50
 80028ae:	ee67 7a27 	vmul.f32	s15, s14, s15
 80028b2:	edc7 7a12 	vstr	s15, [r7, #72]	@ 0x48
      m1 =  t3[2] * twI;
 80028b6:	edd7 7a09 	vldr	s15, [r7, #36]	@ 0x24
 80028ba:	ed97 7a13 	vldr	s14, [r7, #76]	@ 0x4c
 80028be:	ee67 7a27 	vmul.f32	s15, s14, s15
 80028c2:	edc7 7a11 	vstr	s15, [r7, #68]	@ 0x44
      m2 =  t3[2] * twR;
 80028c6:	edd7 7a09 	vldr	s15, [r7, #36]	@ 0x24
 80028ca:	ed97 7a14 	vldr	s14, [r7, #80]	@ 0x50
 80028ce:	ee67 7a27 	vmul.f32	s15, s14, s15
 80028d2:	edc7 7a10 	vstr	s15, [r7, #64]	@ 0x40
      m3 =  t3[3] * twI;
 80028d6:	edd7 7a0a 	vldr	s15, [r7, #40]	@ 0x28
 80028da:	ed97 7a13 	vldr	s14, [r7, #76]	@ 0x4c
 80028de:	ee67 7a27 	vmul.f32	s15, s14, s15
 80028e2:	edc7 7a0f 	vstr	s15, [r7, #60]	@ 0x3c

      *pEnd3-- = m0 - m1;
 80028e6:	f8d7 30a4 	ldr.w	r3, [r7, #164]	@ 0xa4
 80028ea:	1f1a      	subs	r2, r3, #4
 80028ec:	f8c7 20a4 	str.w	r2, [r7, #164]	@ 0xa4
 80028f0:	ed97 7a12 	vldr	s14, [r7, #72]	@ 0x48
 80028f4:	edd7 7a11 	vldr	s15, [r7, #68]	@ 0x44
 80028f8:	ee77 7a67 	vsub.f32	s15, s14, s15
 80028fc:	edc3 7a00 	vstr	s15, [r3]
      *pEnd3-- = m3 - m2;
 8002900:	f8d7 30a4 	ldr.w	r3, [r7, #164]	@ 0xa4
 8002904:	1f1a      	subs	r2, r3, #4
 8002906:	f8c7 20a4 	str.w	r2, [r7, #164]	@ 0xa4
 800290a:	ed97 7a0f 	vldr	s14, [r7, #60]	@ 0x3c
 800290e:	edd7 7a10 	vldr	s15, [r7, #64]	@ 0x40
 8002912:	ee77 7a67 	vsub.f32	s15, s14, s15
 8002916:	edc3 7a00 	vstr	s15, [r3]

      /* COL 4 */
      twR = tw4[0];
 800291a:	f8d7 3094 	ldr.w	r3, [r7, #148]	@ 0x94
 800291e:	681b      	ldr	r3, [r3, #0]
 8002920:	653b      	str	r3, [r7, #80]	@ 0x50
      twI = tw4[1];
 8002922:	f8d7 3094 	ldr.w	r3, [r7, #148]	@ 0x94
 8002926:	3304      	adds	r3, #4
 8002928:	681b      	ldr	r3, [r3, #0]
 800292a:	64fb      	str	r3, [r7, #76]	@ 0x4c
      tw4 += twMod4;
 800292c:	6e7b      	ldr	r3, [r7, #100]	@ 0x64
 800292e:	009b      	lsls	r3, r3, #2
 8002930:	f8d7 2094 	ldr.w	r2, [r7, #148]	@ 0x94
 8002934:	4413      	add	r3, r2
 8002936:	f8c7 3094 	str.w	r3, [r7, #148]	@ 0x94
      /* Top */
      m0 = t4[0] * twR;
 800293a:	edd7 7a03 	vldr	s15, [r7, #12]
 800293e:	ed97 7a14 	vldr	s14, [r7, #80]	@ 0x50
 8002942:	ee67 7a27 	vmul.f32	s15, s14, s15
 8002946:	edc7 7a12 	vstr	s15, [r7, #72]	@ 0x48
      m1 = t4[1] * twI;
 800294a:	edd7 7a04 	vldr	s15, [r7, #16]
 800294e:	ed97 7a13 	vldr	s14, [r7, #76]	@ 0x4c
 8002952:	ee67 7a27 	vmul.f32	s15, s14, s15
 8002956:	edc7 7a11 	vstr	s15, [r7, #68]	@ 0x44
      m2 = t4[1] * twR;
 800295a:	edd7 7a04 	vldr	s15, [r7, #16]
 800295e:	ed97 7a14 	vldr	s14, [r7, #80]	@ 0x50
 8002962:	ee67 7a27 	vmul.f32	s15, s14, s15
 8002966:	edc7 7a10 	vstr	s15, [r7, #64]	@ 0x40
      m3 = t4[0] * twI;
 800296a:	edd7 7a03 	vldr	s15, [r7, #12]
 800296e:	ed97 7a13 	vldr	s14, [r7, #76]	@ 0x4c
 8002972:	ee67 7a27 	vmul.f32	s15, s14, s15
 8002976:	edc7 7a0f 	vstr	s15, [r7, #60]	@ 0x3c

      *p4++ = m0 + m1;
 800297a:	f8d7 3088 	ldr.w	r3, [r7, #136]	@ 0x88
 800297e:	1d1a      	adds	r2, r3, #4
 8002980:	f8c7 2088 	str.w	r2, [r7, #136]	@ 0x88
 8002984:	ed97 7a12 	vldr	s14, [r7, #72]	@ 0x48
 8002988:	edd7 7a11 	vldr	s15, [r7, #68]	@ 0x44
 800298c:	ee77 7a27 	vadd.f32	s15, s14, s15
 8002990:	edc3 7a00 	vstr	s15, [r3]
      *p4++ = m2 - m3;
 8002994:	f8d7 3088 	ldr.w	r3, [r7, #136]	@ 0x88
 8002998:	1d1a      	adds	r2, r3, #4
 800299a:	f8c7 2088 	str.w	r2, [r7, #136]	@ 0x88
 800299e:	ed97 7a10 	vldr	s14, [r7, #64]	@ 0x40
 80029a2:	edd7 7a0f 	vldr	s15, [r7, #60]	@ 0x3c
 80029a6:	ee77 7a67 	vsub.f32	s15, s14, s15
 80029aa:	edc3 7a00 	vstr	s15, [r3]
      /* use vertical symmetry col 4 */
      /* 0.9973 - 0.0736i  <==>  -0.0736 + 0.9973i */
      /* Bottom */
      m0 = t4[3] * twI;
 80029ae:	edd7 7a06 	vldr	s15, [r7, #24]
 80029b2:	ed97 7a13 	vldr	s14, [r7, #76]	@ 0x4c
 80029b6:	ee67 7a27 	vmul.f32	s15, s14, s15
 80029ba:	edc7 7a12 	vstr	s15, [r7, #72]	@ 0x48
      m1 = t4[2] * twR;
 80029be:	edd7 7a05 	vldr	s15, [r7, #20]
 80029c2:	ed97 7a14 	vldr	s14, [r7, #80]	@ 0x50
 80029c6:	ee67 7a27 	vmul.f32	s15, s14, s15
 80029ca:	edc7 7a11 	vstr	s15, [r7, #68]	@ 0x44
      m2 = t4[2] * twI;
 80029ce:	edd7 7a05 	vldr	s15, [r7, #20]
 80029d2:	ed97 7a13 	vldr	s14, [r7, #76]	@ 0x4c
 80029d6:	ee67 7a27 	vmul.f32	s15, s14, s15
 80029da:	edc7 7a10 	vstr	s15, [r7, #64]	@ 0x40
      m3 = t4[3] * twR;
 80029de:	edd7 7a06 	vldr	s15, [r7, #24]
 80029e2:	ed97 7a14 	vldr	s14, [r7, #80]	@ 0x50
 80029e6:	ee67 7a27 	vmul.f32	s15, s14, s15
 80029ea:	edc7 7a0f 	vstr	s15, [r7, #60]	@ 0x3c

      *pEnd4-- = m0 - m1;
 80029ee:	f8d7 30a0 	ldr.w	r3, [r7, #160]	@ 0xa0
 80029f2:	1f1a      	subs	r2, r3, #4
 80029f4:	f8c7 20a0 	str.w	r2, [r7, #160]	@ 0xa0
 80029f8:	ed97 7a12 	vldr	s14, [r7, #72]	@ 0x48
 80029fc:	edd7 7a11 	vldr	s15, [r7, #68]	@ 0x44
 8002a00:	ee77 7a67 	vsub.f32	s15, s14, s15
 8002a04:	edc3 7a00 	vstr	s15, [r3]
      *pEnd4-- = m2 + m3;
 8002a08:	f8d7 30a0 	ldr.w	r3, [r7, #160]	@ 0xa0
 8002a0c:	1f1a      	subs	r2, r3, #4
 8002a0e:	f8c7 20a0 	str.w	r2, [r7, #160]	@ 0xa0
 8002a12:	ed97 7a10 	vldr	s14, [r7, #64]	@ 0x40
 8002a16:	edd7 7a0f 	vldr	s15, [r7, #60]	@ 0x3c
 8002a1a:	ee77 7a27 	vadd.f32	s15, s14, s15
 8002a1e:	edc3 7a00 	vstr	s15, [r3]
    for (l = (L - 2) >> 1; l > 0; l-- )
 8002a22:	f8d7 3084 	ldr.w	r3, [r7, #132]	@ 0x84
 8002a26:	3b01      	subs	r3, #1
 8002a28:	f8c7 3084 	str.w	r3, [r7, #132]	@ 0x84
 8002a2c:	f8d7 3084 	ldr.w	r3, [r7, #132]	@ 0x84
 8002a30:	2b00      	cmp	r3, #0
 8002a32:	f47f acde 	bne.w	80023f2 <arm_cfft_radix8by4_f32+0x2be>
    }

    /* MIDDLE */
    /* Twiddle factors are */
    /*  1.0000  0.7071-0.7071i  -1.0000i  -0.7071-0.7071i */
    p1ap3_0 = p1[0] + p3[0];
 8002a36:	683b      	ldr	r3, [r7, #0]
 8002a38:	ed93 7a00 	vldr	s14, [r3]
 8002a3c:	f8d7 308c 	ldr.w	r3, [r7, #140]	@ 0x8c
 8002a40:	edd3 7a00 	vldr	s15, [r3]
 8002a44:	ee77 7a27 	vadd.f32	s15, s14, s15
 8002a48:	edc7 7a18 	vstr	s15, [r7, #96]	@ 0x60
    p1sp3_0 = p1[0] - p3[0];
 8002a4c:	683b      	ldr	r3, [r7, #0]
 8002a4e:	ed93 7a00 	vldr	s14, [r3]
 8002a52:	f8d7 308c 	ldr.w	r3, [r7, #140]	@ 0x8c
 8002a56:	edd3 7a00 	vldr	s15, [r3]
 8002a5a:	ee77 7a67 	vsub.f32	s15, s14, s15
 8002a5e:	edc7 7a17 	vstr	s15, [r7, #92]	@ 0x5c
    p1ap3_1 = p1[1] + p3[1];
 8002a62:	683b      	ldr	r3, [r7, #0]
 8002a64:	3304      	adds	r3, #4
 8002a66:	ed93 7a00 	vldr	s14, [r3]
 8002a6a:	f8d7 308c 	ldr.w	r3, [r7, #140]	@ 0x8c
 8002a6e:	3304      	adds	r3, #4
 8002a70:	edd3 7a00 	vldr	s15, [r3]
 8002a74:	ee77 7a27 	vadd.f32	s15, s14, s15
 8002a78:	edc7 7a16 	vstr	s15, [r7, #88]	@ 0x58
    p1sp3_1 = p1[1] - p3[1];
 8002a7c:	683b      	ldr	r3, [r7, #0]
 8002a7e:	3304      	adds	r3, #4
 8002a80:	ed93 7a00 	vldr	s14, [r3]
 8002a84:	f8d7 308c 	ldr.w	r3, [r7, #140]	@ 0x8c
 8002a88:	3304      	adds	r3, #4
 8002a8a:	edd3 7a00 	vldr	s15, [r3]
 8002a8e:	ee77 7a67 	vsub.f32	s15, s14, s15
 8002a92:	edc7 7a15 	vstr	s15, [r7, #84]	@ 0x54

    /* col 2 */
    t2[0] = p1sp3_0 + p2[1] - p4[1];
 8002a96:	f8d7 3090 	ldr.w	r3, [r7, #144]	@ 0x90
 8002a9a:	3304      	adds	r3, #4
 8002a9c:	ed93 7a00 	vldr	s14, [r3]
 8002aa0:	edd7 7a17 	vldr	s15, [r7, #92]	@ 0x5c
 8002aa4:	ee37 7a27 	vadd.f32	s14, s14, s15
 8002aa8:	f8d7 3088 	ldr.w	r3, [r7, #136]	@ 0x88
 8002aac:	3304      	adds	r3, #4
 8002aae:	edd3 7a00 	vldr	s15, [r3]
 8002ab2:	ee77 7a67 	vsub.f32	s15, s14, s15
 8002ab6:	edc7 7a0b 	vstr	s15, [r7, #44]	@ 0x2c
    t2[1] = p1sp3_1 - p2[0] + p4[0];
 8002aba:	f8d7 3090 	ldr.w	r3, [r7, #144]	@ 0x90
 8002abe:	edd3 7a00 	vldr	s15, [r3]
 8002ac2:	ed97 7a15 	vldr	s14, [r7, #84]	@ 0x54
 8002ac6:	ee37 7a67 	vsub.f32	s14, s14, s15
 8002aca:	f8d7 3088 	ldr.w	r3, [r7, #136]	@ 0x88
 8002ace:	edd3 7a00 	vldr	s15, [r3]
 8002ad2:	ee77 7a27 	vadd.f32	s15, s14, s15
 8002ad6:	edc7 7a0c 	vstr	s15, [r7, #48]	@ 0x30
    /* col 3 */
    t3[0] = p1ap3_0 - p2[0] - p4[0];
 8002ada:	f8d7 3090 	ldr.w	r3, [r7, #144]	@ 0x90
 8002ade:	edd3 7a00 	vldr	s15, [r3]
 8002ae2:	ed97 7a18 	vldr	s14, [r7, #96]	@ 0x60
 8002ae6:	ee37 7a67 	vsub.f32	s14, s14, s15
 8002aea:	f8d7 3088 	ldr.w	r3, [r7, #136]	@ 0x88
 8002aee:	edd3 7a00 	vldr	s15, [r3]
 8002af2:	ee77 7a67 	vsub.f32	s15, s14, s15
 8002af6:	edc7 7a07 	vstr	s15, [r7, #28]
    t3[1] = p1ap3_1 - p2[1] - p4[1];
 8002afa:	f8d7 3090 	ldr.w	r3, [r7, #144]	@ 0x90
 8002afe:	3304      	adds	r3, #4
 8002b00:	edd3 7a00 	vldr	s15, [r3]
 8002b04:	ed97 7a16 	vldr	s14, [r7, #88]	@ 0x58
 8002b08:	ee37 7a67 	vsub.f32	s14, s14, s15
 8002b0c:	f8d7 3088 	ldr.w	r3, [r7, #136]	@ 0x88
 8002b10:	3304      	adds	r3, #4
 8002b12:	edd3 7a00 	vldr	s15, [r3]
 8002b16:	ee77 7a67 	vsub.f32	s15, s14, s15
 8002b1a:	edc7 7a08 	vstr	s15, [r7, #32]
    /* col 4 */
    t4[0] = p1sp3_0 - p2[1] + p4[1];
 8002b1e:	f8d7 3090 	ldr.w	r3, [r7, #144]	@ 0x90
 8002b22:	3304      	adds	r3, #4
 8002b24:	edd3 7a00 	vldr	s15, [r3]
 8002b28:	ed97 7a17 	vldr	s14, [r7, #92]	@ 0x5c
 8002b2c:	ee37 7a67 	vsub.f32	s14, s14, s15
 8002b30:	f8d7 3088 	ldr.w	r3, [r7, #136]	@ 0x88
 8002b34:	3304      	adds	r3, #4
 8002b36:	edd3 7a00 	vldr	s15, [r3]
 8002b3a:	ee77 7a27 	vadd.f32	s15, s14, s15
 8002b3e:	edc7 7a03 	vstr	s15, [r7, #12]
    t4[1] = p1sp3_1 + p2[0] - p4[0];
 8002b42:	f8d7 3090 	ldr.w	r3, [r7, #144]	@ 0x90
 8002b46:	ed93 7a00 	vldr	s14, [r3]
 8002b4a:	edd7 7a15 	vldr	s15, [r7, #84]	@ 0x54
 8002b4e:	ee37 7a27 	vadd.f32	s14, s14, s15
 8002b52:	f8d7 3088 	ldr.w	r3, [r7, #136]	@ 0x88
 8002b56:	edd3 7a00 	vldr	s15, [r3]
 8002b5a:	ee77 7a67 	vsub.f32	s15, s14, s15
 8002b5e:	edc7 7a04 	vstr	s15, [r7, #16]
    /* col 1 - Top */
    *p1++ = p1ap3_0 + p2[0] + p4[0];
 8002b62:	f8d7 3090 	ldr.w	r3, [r7, #144]	@ 0x90
 8002b66:	ed93 7a00 	vldr	s14, [r3]
 8002b6a:	edd7 7a18 	vldr	s15, [r7, #96]	@ 0x60
 8002b6e:	ee37 7a27 	vadd.f32	s14, s14, s15
 8002b72:	f8d7 3088 	ldr.w	r3, [r7, #136]	@ 0x88
 8002b76:	edd3 7a00 	vldr	s15, [r3]
 8002b7a:	683b      	ldr	r3, [r7, #0]
 8002b7c:	1d1a      	adds	r2, r3, #4
 8002b7e:	603a      	str	r2, [r7, #0]
 8002b80:	ee77 7a27 	vadd.f32	s15, s14, s15
 8002b84:	edc3 7a00 	vstr	s15, [r3]
    *p1++ = p1ap3_1 + p2[1] + p4[1];
 8002b88:	f8d7 3090 	ldr.w	r3, [r7, #144]	@ 0x90
 8002b8c:	3304      	adds	r3, #4
 8002b8e:	ed93 7a00 	vldr	s14, [r3]
 8002b92:	edd7 7a16 	vldr	s15, [r7, #88]	@ 0x58
 8002b96:	ee37 7a27 	vadd.f32	s14, s14, s15
 8002b9a:	f8d7 3088 	ldr.w	r3, [r7, #136]	@ 0x88
 8002b9e:	3304      	adds	r3, #4
 8002ba0:	edd3 7a00 	vldr	s15, [r3]
 8002ba4:	683b      	ldr	r3, [r7, #0]
 8002ba6:	1d1a      	adds	r2, r3, #4
 8002ba8:	603a      	str	r2, [r7, #0]
 8002baa:	ee77 7a27 	vadd.f32	s15, s14, s15
 8002bae:	edc3 7a00 	vstr	s15, [r3]

    /* COL 2 */
    twR = tw2[0];
 8002bb2:	f8d7 309c 	ldr.w	r3, [r7, #156]	@ 0x9c
 8002bb6:	681b      	ldr	r3, [r3, #0]
 8002bb8:	653b      	str	r3, [r7, #80]	@ 0x50
    twI = tw2[1];
 8002bba:	f8d7 309c 	ldr.w	r3, [r7, #156]	@ 0x9c
 8002bbe:	3304      	adds	r3, #4
 8002bc0:	681b      	ldr	r3, [r3, #0]
 8002bc2:	64fb      	str	r3, [r7, #76]	@ 0x4c

    m0 = t2[0] * twR;
 8002bc4:	edd7 7a0b 	vldr	s15, [r7, #44]	@ 0x2c
 8002bc8:	ed97 7a14 	vldr	s14, [r7, #80]	@ 0x50
 8002bcc:	ee67 7a27 	vmul.f32	s15, s14, s15
 8002bd0:	edc7 7a12 	vstr	s15, [r7, #72]	@ 0x48
    m1 = t2[1] * twI;
 8002bd4:	edd7 7a0c 	vldr	s15, [r7, #48]	@ 0x30
 8002bd8:	ed97 7a13 	vldr	s14, [r7, #76]	@ 0x4c
 8002bdc:	ee67 7a27 	vmul.f32	s15, s14, s15
 8002be0:	edc7 7a11 	vstr	s15, [r7, #68]	@ 0x44
    m2 = t2[1] * twR;
 8002be4:	edd7 7a0c 	vldr	s15, [r7, #48]	@ 0x30
 8002be8:	ed97 7a14 	vldr	s14, [r7, #80]	@ 0x50
 8002bec:	ee67 7a27 	vmul.f32	s15, s14, s15
 8002bf0:	edc7 7a10 	vstr	s15, [r7, #64]	@ 0x40
    m3 = t2[0] * twI;
 8002bf4:	edd7 7a0b 	vldr	s15, [r7, #44]	@ 0x2c
 8002bf8:	ed97 7a13 	vldr	s14, [r7, #76]	@ 0x4c
 8002bfc:	ee67 7a27 	vmul.f32	s15, s14, s15
 8002c00:	edc7 7a0f 	vstr	s15, [r7, #60]	@ 0x3c

    *p2++ = m0 + m1;
 8002c04:	f8d7 3090 	ldr.w	r3, [r7, #144]	@ 0x90
 8002c08:	1d1a      	adds	r2, r3, #4
 8002c0a:	f8c7 2090 	str.w	r2, [r7, #144]	@ 0x90
 8002c0e:	ed97 7a12 	vldr	s14, [r7, #72]	@ 0x48
 8002c12:	edd7 7a11 	vldr	s15, [r7, #68]	@ 0x44
 8002c16:	ee77 7a27 	vadd.f32	s15, s14, s15
 8002c1a:	edc3 7a00 	vstr	s15, [r3]
    *p2++ = m2 - m3;
 8002c1e:	f8d7 3090 	ldr.w	r3, [r7, #144]	@ 0x90
 8002c22:	1d1a      	adds	r2, r3, #4
 8002c24:	f8c7 2090 	str.w	r2, [r7, #144]	@ 0x90
 8002c28:	ed97 7a10 	vldr	s14, [r7, #64]	@ 0x40
 8002c2c:	edd7 7a0f 	vldr	s15, [r7, #60]	@ 0x3c
 8002c30:	ee77 7a67 	vsub.f32	s15, s14, s15
 8002c34:	edc3 7a00 	vstr	s15, [r3]
    /* COL 3 */
    twR = tw3[0];
 8002c38:	f8d7 3098 	ldr.w	r3, [r7, #152]	@ 0x98
 8002c3c:	681b      	ldr	r3, [r3, #0]
 8002c3e:	653b      	str	r3, [r7, #80]	@ 0x50
    twI = tw3[1];
 8002c40:	f8d7 3098 	ldr.w	r3, [r7, #152]	@ 0x98
 8002c44:	3304      	adds	r3, #4
 8002c46:	681b      	ldr	r3, [r3, #0]
 8002c48:	64fb      	str	r3, [r7, #76]	@ 0x4c

    m0 = t3[0] * twR;
 8002c4a:	edd7 7a07 	vldr	s15, [r7, #28]
 8002c4e:	ed97 7a14 	vldr	s14, [r7, #80]	@ 0x50
 8002c52:	ee67 7a27 	vmul.f32	s15, s14, s15
 8002c56:	edc7 7a12 	vstr	s15, [r7, #72]	@ 0x48
    m1 = t3[1] * twI;
 8002c5a:	edd7 7a08 	vldr	s15, [r7, #32]
 8002c5e:	ed97 7a13 	vldr	s14, [r7, #76]	@ 0x4c
 8002c62:	ee67 7a27 	vmul.f32	s15, s14, s15
 8002c66:	edc7 7a11 	vstr	s15, [r7, #68]	@ 0x44
    m2 = t3[1] * twR;
 8002c6a:	edd7 7a08 	vldr	s15, [r7, #32]
 8002c6e:	ed97 7a14 	vldr	s14, [r7, #80]	@ 0x50
 8002c72:	ee67 7a27 	vmul.f32	s15, s14, s15
 8002c76:	edc7 7a10 	vstr	s15, [r7, #64]	@ 0x40
    m3 = t3[0] * twI;
 8002c7a:	edd7 7a07 	vldr	s15, [r7, #28]
 8002c7e:	ed97 7a13 	vldr	s14, [r7, #76]	@ 0x4c
 8002c82:	ee67 7a27 	vmul.f32	s15, s14, s15
 8002c86:	edc7 7a0f 	vstr	s15, [r7, #60]	@ 0x3c

    *p3++ = m0 + m1;
 8002c8a:	f8d7 308c 	ldr.w	r3, [r7, #140]	@ 0x8c
 8002c8e:	1d1a      	adds	r2, r3, #4
 8002c90:	f8c7 208c 	str.w	r2, [r7, #140]	@ 0x8c
 8002c94:	ed97 7a12 	vldr	s14, [r7, #72]	@ 0x48
 8002c98:	edd7 7a11 	vldr	s15, [r7, #68]	@ 0x44
 8002c9c:	ee77 7a27 	vadd.f32	s15, s14, s15
 8002ca0:	edc3 7a00 	vstr	s15, [r3]
    *p3++ = m2 - m3;
 8002ca4:	f8d7 308c 	ldr.w	r3, [r7, #140]	@ 0x8c
 8002ca8:	1d1a      	adds	r2, r3, #4
 8002caa:	f8c7 208c 	str.w	r2, [r7, #140]	@ 0x8c
 8002cae:	ed97 7a10 	vldr	s14, [r7, #64]	@ 0x40
 8002cb2:	edd7 7a0f 	vldr	s15, [r7, #60]	@ 0x3c
 8002cb6:	ee77 7a67 	vsub.f32	s15, s14, s15
 8002cba:	edc3 7a00 	vstr	s15, [r3]
    /* COL 4 */
    twR = tw4[0];
 8002cbe:	f8d7 3094 	ldr.w	r3, [r7, #148]	@ 0x94
 8002cc2:	681b      	ldr	r3, [r3, #0]
 8002cc4:	653b      	str	r3, [r7, #80]	@ 0x50
    twI = tw4[1];
 8002cc6:	f8d7 3094 	ldr.w	r3, [r7, #148]	@ 0x94
 8002cca:	3304      	adds	r3, #4
 8002ccc:	681b      	ldr	r3, [r3, #0]
 8002cce:	64fb      	str	r3, [r7, #76]	@ 0x4c

    m0 = t4[0] * twR;
 8002cd0:	edd7 7a03 	vldr	s15, [r7, #12]
 8002cd4:	ed97 7a14 	vldr	s14, [r7, #80]	@ 0x50
 8002cd8:	ee67 7a27 	vmul.f32	s15, s14, s15
 8002cdc:	edc7 7a12 	vstr	s15, [r7, #72]	@ 0x48
    m1 = t4[1] * twI;
 8002ce0:	edd7 7a04 	vldr	s15, [r7, #16]
 8002ce4:	ed97 7a13 	vldr	s14, [r7, #76]	@ 0x4c
 8002ce8:	ee67 7a27 	vmul.f32	s15, s14, s15
 8002cec:	edc7 7a11 	vstr	s15, [r7, #68]	@ 0x44
    m2 = t4[1] * twR;
 8002cf0:	edd7 7a04 	vldr	s15, [r7, #16]
 8002cf4:	ed97 7a14 	vldr	s14, [r7, #80]	@ 0x50
 8002cf8:	ee67 7a27 	vmul.f32	s15, s14, s15
 8002cfc:	edc7 7a10 	vstr	s15, [r7, #64]	@ 0x40
    m3 = t4[0] * twI;
 8002d00:	edd7 7a03 	vldr	s15, [r7, #12]
 8002d04:	ed97 7a13 	vldr	s14, [r7, #76]	@ 0x4c
 8002d08:	ee67 7a27 	vmul.f32	s15, s14, s15
 8002d0c:	edc7 7a0f 	vstr	s15, [r7, #60]	@ 0x3c

    *p4++ = m0 + m1;
 8002d10:	f8d7 3088 	ldr.w	r3, [r7, #136]	@ 0x88
 8002d14:	1d1a      	adds	r2, r3, #4
 8002d16:	f8c7 2088 	str.w	r2, [r7, #136]	@ 0x88
 8002d1a:	ed97 7a12 	vldr	s14, [r7, #72]	@ 0x48
 8002d1e:	edd7 7a11 	vldr	s15, [r7, #68]	@ 0x44
 8002d22:	ee77 7a27 	vadd.f32	s15, s14, s15
 8002d26:	edc3 7a00 	vstr	s15, [r3]
    *p4++ = m2 - m3;
 8002d2a:	f8d7 3088 	ldr.w	r3, [r7, #136]	@ 0x88
 8002d2e:	1d1a      	adds	r2, r3, #4
 8002d30:	f8c7 2088 	str.w	r2, [r7, #136]	@ 0x88
 8002d34:	ed97 7a10 	vldr	s14, [r7, #64]	@ 0x40
 8002d38:	edd7 7a0f 	vldr	s15, [r7, #60]	@ 0x3c
 8002d3c:	ee77 7a67 	vsub.f32	s15, s14, s15
 8002d40:	edc3 7a00 	vstr	s15, [r3]

    /* first col */
    arm_radix8_butterfly_f32 (pCol1, L, (float32_t *) S->pTwiddle, 4U);
 8002d44:	f8d7 3080 	ldr.w	r3, [r7, #128]	@ 0x80
 8002d48:	b299      	uxth	r1, r3
 8002d4a:	687b      	ldr	r3, [r7, #4]
 8002d4c:	685a      	ldr	r2, [r3, #4]
 8002d4e:	2304      	movs	r3, #4
 8002d50:	6ff8      	ldr	r0, [r7, #124]	@ 0x7c
 8002d52:	f000 f9f1 	bl	8003138 <arm_radix8_butterfly_f32>

    /* second col */
    arm_radix8_butterfly_f32 (pCol2, L, (float32_t *) S->pTwiddle, 4U);
 8002d56:	f8d7 3080 	ldr.w	r3, [r7, #128]	@ 0x80
 8002d5a:	b299      	uxth	r1, r3
 8002d5c:	687b      	ldr	r3, [r7, #4]
 8002d5e:	685a      	ldr	r2, [r3, #4]
 8002d60:	2304      	movs	r3, #4
 8002d62:	6fb8      	ldr	r0, [r7, #120]	@ 0x78
 8002d64:	f000 f9e8 	bl	8003138 <arm_radix8_butterfly_f32>

    /* third col */
    arm_radix8_butterfly_f32 (pCol3, L, (float32_t *) S->pTwiddle, 4U);
 8002d68:	f8d7 3080 	ldr.w	r3, [r7, #128]	@ 0x80
 8002d6c:	b299      	uxth	r1, r3
 8002d6e:	687b      	ldr	r3, [r7, #4]
 8002d70:	685a      	ldr	r2, [r3, #4]
 8002d72:	2304      	movs	r3, #4
 8002d74:	6f78      	ldr	r0, [r7, #116]	@ 0x74
 8002d76:	f000 f9df 	bl	8003138 <arm_radix8_butterfly_f32>

    /* fourth col */
    arm_radix8_butterfly_f32 (pCol4, L, (float32_t *) S->pTwiddle, 4U);
 8002d7a:	f8d7 3080 	ldr.w	r3, [r7, #128]	@ 0x80
 8002d7e:	b299      	uxth	r1, r3
 8002d80:	687b      	ldr	r3, [r7, #4]
 8002d82:	685a      	ldr	r2, [r3, #4]
 8002d84:	2304      	movs	r3, #4
 8002d86:	6f38      	ldr	r0, [r7, #112]	@ 0x70
 8002d88:	f000 f9d6 	bl	8003138 <arm_radix8_butterfly_f32>
}
 8002d8c:	bf00      	nop
 8002d8e:	37b0      	adds	r7, #176	@ 0xb0
 8002d90:	46bd      	mov	sp, r7
 8002d92:	bd80      	pop	{r7, pc}

08002d94 <arm_cfft_f32>:
ARM_DSP_ATTRIBUTE void arm_cfft_f32(
  const arm_cfft_instance_f32 * S,
        float32_t * p1,
        uint8_t ifftFlag,
        uint8_t bitReverseFlag)
{
 8002d94:	b580      	push	{r7, lr}
 8002d96:	b088      	sub	sp, #32
 8002d98:	af00      	add	r7, sp, #0
 8002d9a:	60f8      	str	r0, [r7, #12]
 8002d9c:	60b9      	str	r1, [r7, #8]
 8002d9e:	4611      	mov	r1, r2
 8002da0:	461a      	mov	r2, r3
 8002da2:	460b      	mov	r3, r1
 8002da4:	71fb      	strb	r3, [r7, #7]
 8002da6:	4613      	mov	r3, r2
 8002da8:	71bb      	strb	r3, [r7, #6]
  uint32_t  L = S->fftLen, l;
 8002daa:	68fb      	ldr	r3, [r7, #12]
 8002dac:	881b      	ldrh	r3, [r3, #0]
 8002dae:	617b      	str	r3, [r7, #20]
  float32_t invL, * pSrc;

  if (ifftFlag == 1U)
 8002db0:	79fb      	ldrb	r3, [r7, #7]
 8002db2:	2b01      	cmp	r3, #1
 8002db4:	d117      	bne.n	8002de6 <arm_cfft_f32+0x52>
  {
    /* Conjugate input data */
    pSrc = p1 + 1;
 8002db6:	68bb      	ldr	r3, [r7, #8]
 8002db8:	3304      	adds	r3, #4
 8002dba:	61bb      	str	r3, [r7, #24]
    for (l = 0; l < L; l++)
 8002dbc:	2300      	movs	r3, #0
 8002dbe:	61fb      	str	r3, [r7, #28]
 8002dc0:	e00d      	b.n	8002dde <arm_cfft_f32+0x4a>
    {
      *pSrc = -*pSrc;
 8002dc2:	69bb      	ldr	r3, [r7, #24]
 8002dc4:	edd3 7a00 	vldr	s15, [r3]
 8002dc8:	eef1 7a67 	vneg.f32	s15, s15
 8002dcc:	69bb      	ldr	r3, [r7, #24]
 8002dce:	edc3 7a00 	vstr	s15, [r3]
      pSrc += 2;
 8002dd2:	69bb      	ldr	r3, [r7, #24]
 8002dd4:	3308      	adds	r3, #8
 8002dd6:	61bb      	str	r3, [r7, #24]
    for (l = 0; l < L; l++)
 8002dd8:	69fb      	ldr	r3, [r7, #28]
 8002dda:	3301      	adds	r3, #1
 8002ddc:	61fb      	str	r3, [r7, #28]
 8002dde:	69fa      	ldr	r2, [r7, #28]
 8002de0:	697b      	ldr	r3, [r7, #20]
 8002de2:	429a      	cmp	r2, r3
 8002de4:	d3ed      	bcc.n	8002dc2 <arm_cfft_f32+0x2e>
    }
  }

  switch (L)
 8002de6:	697b      	ldr	r3, [r7, #20]
 8002de8:	f5b3 5f80 	cmp.w	r3, #4096	@ 0x1000
 8002dec:	d040      	beq.n	8002e70 <arm_cfft_f32+0xdc>
 8002dee:	697b      	ldr	r3, [r7, #20]
 8002df0:	f5b3 5f80 	cmp.w	r3, #4096	@ 0x1000
 8002df4:	d845      	bhi.n	8002e82 <arm_cfft_f32+0xee>
 8002df6:	697b      	ldr	r3, [r7, #20]
 8002df8:	f5b3 6f00 	cmp.w	r3, #2048	@ 0x800
 8002dfc:	d033      	beq.n	8002e66 <arm_cfft_f32+0xd2>
 8002dfe:	697b      	ldr	r3, [r7, #20]
 8002e00:	f5b3 6f00 	cmp.w	r3, #2048	@ 0x800
 8002e04:	d83d      	bhi.n	8002e82 <arm_cfft_f32+0xee>
 8002e06:	697b      	ldr	r3, [r7, #20]
 8002e08:	f5b3 6f80 	cmp.w	r3, #1024	@ 0x400
 8002e0c:	d026      	beq.n	8002e5c <arm_cfft_f32+0xc8>
 8002e0e:	697b      	ldr	r3, [r7, #20]
 8002e10:	f5b3 6f80 	cmp.w	r3, #1024	@ 0x400
 8002e14:	d835      	bhi.n	8002e82 <arm_cfft_f32+0xee>
 8002e16:	697b      	ldr	r3, [r7, #20]
 8002e18:	f5b3 7f00 	cmp.w	r3, #512	@ 0x200
 8002e1c:	d028      	beq.n	8002e70 <arm_cfft_f32+0xdc>
 8002e1e:	697b      	ldr	r3, [r7, #20]
 8002e20:	f5b3 7f00 	cmp.w	r3, #512	@ 0x200
 8002e24:	d82d      	bhi.n	8002e82 <arm_cfft_f32+0xee>
 8002e26:	697b      	ldr	r3, [r7, #20]
 8002e28:	f5b3 7f80 	cmp.w	r3, #256	@ 0x100
 8002e2c:	d01b      	beq.n	8002e66 <arm_cfft_f32+0xd2>
 8002e2e:	697b      	ldr	r3, [r7, #20]
 8002e30:	f5b3 7f80 	cmp.w	r3, #256	@ 0x100
 8002e34:	d825      	bhi.n	8002e82 <arm_cfft_f32+0xee>
 8002e36:	697b      	ldr	r3, [r7, #20]
 8002e38:	2b80      	cmp	r3, #128	@ 0x80
 8002e3a:	d00f      	beq.n	8002e5c <arm_cfft_f32+0xc8>
 8002e3c:	697b      	ldr	r3, [r7, #20]
 8002e3e:	2b80      	cmp	r3, #128	@ 0x80
 8002e40:	d81f      	bhi.n	8002e82 <arm_cfft_f32+0xee>
 8002e42:	697b      	ldr	r3, [r7, #20]
 8002e44:	2b40      	cmp	r3, #64	@ 0x40
 8002e46:	d013      	beq.n	8002e70 <arm_cfft_f32+0xdc>
 8002e48:	697b      	ldr	r3, [r7, #20]
 8002e4a:	2b40      	cmp	r3, #64	@ 0x40
 8002e4c:	d819      	bhi.n	8002e82 <arm_cfft_f32+0xee>
 8002e4e:	697b      	ldr	r3, [r7, #20]
 8002e50:	2b10      	cmp	r3, #16
 8002e52:	d003      	beq.n	8002e5c <arm_cfft_f32+0xc8>
 8002e54:	697b      	ldr	r3, [r7, #20]
 8002e56:	2b20      	cmp	r3, #32
 8002e58:	d005      	beq.n	8002e66 <arm_cfft_f32+0xd2>
 8002e5a:	e012      	b.n	8002e82 <arm_cfft_f32+0xee>
  {
  case 16:
  case 128:
  case 1024:
    arm_cfft_radix8by2_f32 ( (arm_cfft_instance_f32 *) S, p1);
 8002e5c:	68b9      	ldr	r1, [r7, #8]
 8002e5e:	68f8      	ldr	r0, [r7, #12]
 8002e60:	f7fe ff74 	bl	8001d4c <arm_cfft_radix8by2_f32>
    break;
 8002e64:	e00d      	b.n	8002e82 <arm_cfft_f32+0xee>
  case 32:
  case 256:
  case 2048:
    arm_cfft_radix8by4_f32 ( (arm_cfft_instance_f32 *) S, p1);
 8002e66:	68b9      	ldr	r1, [r7, #8]
 8002e68:	68f8      	ldr	r0, [r7, #12]
 8002e6a:	f7ff f963 	bl	8002134 <arm_cfft_radix8by4_f32>
    break;
 8002e6e:	e008      	b.n	8002e82 <arm_cfft_f32+0xee>
  case 64:
  case 512:
  case 4096:
    arm_radix8_butterfly_f32 ( p1, L, (float32_t *) S->pTwiddle, 1);
 8002e70:	697b      	ldr	r3, [r7, #20]
 8002e72:	b299      	uxth	r1, r3
 8002e74:	68fb      	ldr	r3, [r7, #12]
 8002e76:	685a      	ldr	r2, [r3, #4]
 8002e78:	2301      	movs	r3, #1
 8002e7a:	68b8      	ldr	r0, [r7, #8]
 8002e7c:	f000 f95c 	bl	8003138 <arm_radix8_butterfly_f32>
    break;
 8002e80:	bf00      	nop
  }

  if ( bitReverseFlag )
 8002e82:	79bb      	ldrb	r3, [r7, #6]
 8002e84:	2b00      	cmp	r3, #0
 8002e86:	d007      	beq.n	8002e98 <arm_cfft_f32+0x104>
    arm_bitreversal_32 ((uint32_t*) p1, S->bitRevLength, S->pBitRevTable);
 8002e88:	68fb      	ldr	r3, [r7, #12]
 8002e8a:	8999      	ldrh	r1, [r3, #12]
 8002e8c:	68fb      	ldr	r3, [r7, #12]
 8002e8e:	689b      	ldr	r3, [r3, #8]
 8002e90:	461a      	mov	r2, r3
 8002e92:	68b8      	ldr	r0, [r7, #8]
 8002e94:	f7fe ff01 	bl	8001c9a <arm_bitreversal_32>

  if (ifftFlag == 1U)
 8002e98:	79fb      	ldrb	r3, [r7, #7]
 8002e9a:	2b01      	cmp	r3, #1
 8002e9c:	d130      	bne.n	8002f00 <arm_cfft_f32+0x16c>
  {
    invL = 1.0f / (float32_t)L;
 8002e9e:	697b      	ldr	r3, [r7, #20]
 8002ea0:	ee07 3a90 	vmov	s15, r3
 8002ea4:	eeb8 7a67 	vcvt.f32.u32	s14, s15
 8002ea8:	eef7 6a00 	vmov.f32	s13, #112	@ 0x3f800000  1.0
 8002eac:	eec6 7a87 	vdiv.f32	s15, s13, s14
 8002eb0:	edc7 7a04 	vstr	s15, [r7, #16]

    /* Conjugate and scale output data */
    pSrc = p1;
 8002eb4:	68bb      	ldr	r3, [r7, #8]
 8002eb6:	61bb      	str	r3, [r7, #24]
    for (l= 0; l < L; l++)
 8002eb8:	2300      	movs	r3, #0
 8002eba:	61fb      	str	r3, [r7, #28]
 8002ebc:	e01c      	b.n	8002ef8 <arm_cfft_f32+0x164>
    {
      *pSrc++ *=   invL ;
 8002ebe:	69bb      	ldr	r3, [r7, #24]
 8002ec0:	1d1a      	adds	r2, r3, #4
 8002ec2:	61ba      	str	r2, [r7, #24]
 8002ec4:	ed93 7a00 	vldr	s14, [r3]
 8002ec8:	edd7 7a04 	vldr	s15, [r7, #16]
 8002ecc:	ee67 7a27 	vmul.f32	s15, s14, s15
 8002ed0:	edc3 7a00 	vstr	s15, [r3]
      *pSrc    = -(*pSrc) * invL;
 8002ed4:	69bb      	ldr	r3, [r7, #24]
 8002ed6:	edd3 7a00 	vldr	s15, [r3]
 8002eda:	eeb1 7a67 	vneg.f32	s14, s15
 8002ede:	edd7 7a04 	vldr	s15, [r7, #16]
 8002ee2:	ee67 7a27 	vmul.f32	s15, s14, s15
 8002ee6:	69bb      	ldr	r3, [r7, #24]
 8002ee8:	edc3 7a00 	vstr	s15, [r3]
      pSrc++;
 8002eec:	69bb      	ldr	r3, [r7, #24]
 8002eee:	3304      	adds	r3, #4
 8002ef0:	61bb      	str	r3, [r7, #24]
    for (l= 0; l < L; l++)
 8002ef2:	69fb      	ldr	r3, [r7, #28]
 8002ef4:	3301      	adds	r3, #1
 8002ef6:	61fb      	str	r3, [r7, #28]
 8002ef8:	69fa      	ldr	r2, [r7, #28]
 8002efa:	697b      	ldr	r3, [r7, #20]
 8002efc:	429a      	cmp	r2, r3
 8002efe:	d3de      	bcc.n	8002ebe <arm_cfft_f32+0x12a>
    }
  }
}
 8002f00:	bf00      	nop
 8002f02:	3720      	adds	r7, #32
 8002f04:	46bd      	mov	sp, r7
 8002f06:	bd80      	pop	{r7, pc}

08002f08 <arm_cfft_init_2048_f32>:

  @par          Use of this function is mandatory only for the Helium and Neon versions of the FFT.
                Other versions can still initialize directly the data structure using 
                variables declared in arm_const_structs.h
 */
CFFTINIT_F32(2048,1024)
 8002f08:	b480      	push	{r7}
 8002f0a:	b085      	sub	sp, #20
 8002f0c:	af00      	add	r7, sp, #0
 8002f0e:	6078      	str	r0, [r7, #4]
 8002f10:	2300      	movs	r3, #0
 8002f12:	73fb      	strb	r3, [r7, #15]
 8002f14:	687b      	ldr	r3, [r7, #4]
 8002f16:	f44f 6200 	mov.w	r2, #2048	@ 0x800
 8002f1a:	801a      	strh	r2, [r3, #0]
 8002f1c:	687b      	ldr	r3, [r7, #4]
 8002f1e:	2200      	movs	r2, #0
 8002f20:	605a      	str	r2, [r3, #4]
 8002f22:	4b0a      	ldr	r3, [pc, #40]	@ (8002f4c <arm_cfft_init_2048_f32+0x44>)
 8002f24:	899a      	ldrh	r2, [r3, #12]
 8002f26:	687b      	ldr	r3, [r7, #4]
 8002f28:	819a      	strh	r2, [r3, #12]
 8002f2a:	4b08      	ldr	r3, [pc, #32]	@ (8002f4c <arm_cfft_init_2048_f32+0x44>)
 8002f2c:	689a      	ldr	r2, [r3, #8]
 8002f2e:	687b      	ldr	r3, [r7, #4]
 8002f30:	609a      	str	r2, [r3, #8]
 8002f32:	4b06      	ldr	r3, [pc, #24]	@ (8002f4c <arm_cfft_init_2048_f32+0x44>)
 8002f34:	685a      	ldr	r2, [r3, #4]
 8002f36:	687b      	ldr	r3, [r7, #4]
 8002f38:	605a      	str	r2, [r3, #4]
 8002f3a:	f997 300f 	ldrsb.w	r3, [r7, #15]
 8002f3e:	4618      	mov	r0, r3
 8002f40:	3714      	adds	r7, #20
 8002f42:	46bd      	mov	sp, r7
 8002f44:	f85d 7b04 	ldr.w	r7, [sp], #4
 8002f48:	4770      	bx	lr
 8002f4a:	bf00      	nop
 8002f4c:	0801e38c 	.word	0x0801e38c

08002f50 <arm_cfft_init_1024_f32>:

  @par          Use of this function is mandatory only for the Helium and Neon versions of the FFT.
                Other versions can still initialize directly the data structure using 
                variables declared in arm_const_structs.h
 */
CFFTINIT_F32(1024,1024)
 8002f50:	b480      	push	{r7}
 8002f52:	b085      	sub	sp, #20
 8002f54:	af00      	add	r7, sp, #0
 8002f56:	6078      	str	r0, [r7, #4]
 8002f58:	2300      	movs	r3, #0
 8002f5a:	73fb      	strb	r3, [r7, #15]
 8002f5c:	687b      	ldr	r3, [r7, #4]
 8002f5e:	f44f 6280 	mov.w	r2, #1024	@ 0x400
 8002f62:	801a      	strh	r2, [r3, #0]
 8002f64:	687b      	ldr	r3, [r7, #4]
 8002f66:	2200      	movs	r2, #0
 8002f68:	605a      	str	r2, [r3, #4]
 8002f6a:	4b0a      	ldr	r3, [pc, #40]	@ (8002f94 <arm_cfft_init_1024_f32+0x44>)
 8002f6c:	899a      	ldrh	r2, [r3, #12]
 8002f6e:	687b      	ldr	r3, [r7, #4]
 8002f70:	819a      	strh	r2, [r3, #12]
 8002f72:	4b08      	ldr	r3, [pc, #32]	@ (8002f94 <arm_cfft_init_1024_f32+0x44>)
 8002f74:	689a      	ldr	r2, [r3, #8]
 8002f76:	687b      	ldr	r3, [r7, #4]
 8002f78:	609a      	str	r2, [r3, #8]
 8002f7a:	4b06      	ldr	r3, [pc, #24]	@ (8002f94 <arm_cfft_init_1024_f32+0x44>)
 8002f7c:	685a      	ldr	r2, [r3, #4]
 8002f7e:	687b      	ldr	r3, [r7, #4]
 8002f80:	605a      	str	r2, [r3, #4]
 8002f82:	f997 300f 	ldrsb.w	r3, [r7, #15]
 8002f86:	4618      	mov	r0, r3
 8002f88:	3714      	adds	r7, #20
 8002f8a:	46bd      	mov	sp, r7
 8002f8c:	f85d 7b04 	ldr.w	r7, [sp], #4
 8002f90:	4770      	bx	lr
 8002f92:	bf00      	nop
 8002f94:	0801e37c 	.word	0x0801e37c

08002f98 <arm_cfft_init_512_f32>:

  @par          Use of this function is mandatory only for the Helium and Neon versions of the FFT.
                Other versions can still initialize directly the data structure using 
                variables declared in arm_const_structs.h
 */
CFFTINIT_F32(512,256)
 8002f98:	b480      	push	{r7}
 8002f9a:	b085      	sub	sp, #20
 8002f9c:	af00      	add	r7, sp, #0
 8002f9e:	6078      	str	r0, [r7, #4]
 8002fa0:	2300      	movs	r3, #0
 8002fa2:	73fb      	strb	r3, [r7, #15]
 8002fa4:	687b      	ldr	r3, [r7, #4]
 8002fa6:	f44f 7200 	mov.w	r2, #512	@ 0x200
 8002faa:	801a      	strh	r2, [r3, #0]
 8002fac:	687b      	ldr	r3, [r7, #4]
 8002fae:	2200      	movs	r2, #0
 8002fb0:	605a      	str	r2, [r3, #4]
 8002fb2:	4b0a      	ldr	r3, [pc, #40]	@ (8002fdc <arm_cfft_init_512_f32+0x44>)
 8002fb4:	899a      	ldrh	r2, [r3, #12]
 8002fb6:	687b      	ldr	r3, [r7, #4]
 8002fb8:	819a      	strh	r2, [r3, #12]
 8002fba:	4b08      	ldr	r3, [pc, #32]	@ (8002fdc <arm_cfft_init_512_f32+0x44>)
 8002fbc:	689a      	ldr	r2, [r3, #8]
 8002fbe:	687b      	ldr	r3, [r7, #4]
 8002fc0:	609a      	str	r2, [r3, #8]
 8002fc2:	4b06      	ldr	r3, [pc, #24]	@ (8002fdc <arm_cfft_init_512_f32+0x44>)
 8002fc4:	685a      	ldr	r2, [r3, #4]
 8002fc6:	687b      	ldr	r3, [r7, #4]
 8002fc8:	605a      	str	r2, [r3, #4]
 8002fca:	f997 300f 	ldrsb.w	r3, [r7, #15]
 8002fce:	4618      	mov	r0, r3
 8002fd0:	3714      	adds	r7, #20
 8002fd2:	46bd      	mov	sp, r7
 8002fd4:	f85d 7b04 	ldr.w	r7, [sp], #4
 8002fd8:	4770      	bx	lr
 8002fda:	bf00      	nop
 8002fdc:	0801e36c 	.word	0x0801e36c

08002fe0 <arm_cfft_init_256_f32>:

  @par          Use of this function is mandatory only for the Helium and Neon versions of the FFT.
                Other versions can still initialize directly the data structure using 
                variables declared in arm_const_structs.h
 */
CFFTINIT_F32(256,256)
 8002fe0:	b480      	push	{r7}
 8002fe2:	b085      	sub	sp, #20
 8002fe4:	af00      	add	r7, sp, #0
 8002fe6:	6078      	str	r0, [r7, #4]
 8002fe8:	2300      	movs	r3, #0
 8002fea:	73fb      	strb	r3, [r7, #15]
 8002fec:	687b      	ldr	r3, [r7, #4]
 8002fee:	f44f 7280 	mov.w	r2, #256	@ 0x100
 8002ff2:	801a      	strh	r2, [r3, #0]
 8002ff4:	687b      	ldr	r3, [r7, #4]
 8002ff6:	2200      	movs	r2, #0
 8002ff8:	605a      	str	r2, [r3, #4]
 8002ffa:	4b0a      	ldr	r3, [pc, #40]	@ (8003024 <arm_cfft_init_256_f32+0x44>)
 8002ffc:	899a      	ldrh	r2, [r3, #12]
 8002ffe:	687b      	ldr	r3, [r7, #4]
 8003000:	819a      	strh	r2, [r3, #12]
 8003002:	4b08      	ldr	r3, [pc, #32]	@ (8003024 <arm_cfft_init_256_f32+0x44>)
 8003004:	689a      	ldr	r2, [r3, #8]
 8003006:	687b      	ldr	r3, [r7, #4]
 8003008:	609a      	str	r2, [r3, #8]
 800300a:	4b06      	ldr	r3, [pc, #24]	@ (8003024 <arm_cfft_init_256_f32+0x44>)
 800300c:	685a      	ldr	r2, [r3, #4]
 800300e:	687b      	ldr	r3, [r7, #4]
 8003010:	605a      	str	r2, [r3, #4]
 8003012:	f997 300f 	ldrsb.w	r3, [r7, #15]
 8003016:	4618      	mov	r0, r3
 8003018:	3714      	adds	r7, #20
 800301a:	46bd      	mov	sp, r7
 800301c:	f85d 7b04 	ldr.w	r7, [sp], #4
 8003020:	4770      	bx	lr
 8003022:	bf00      	nop
 8003024:	0801e35c 	.word	0x0801e35c

08003028 <arm_cfft_init_128_f32>:

  @par          Use of this function is mandatory only for the Helium and Neon versions of the FFT.
                Other versions can still initialize directly the data structure using 
                variables declared in arm_const_structs.h
 */
CFFTINIT_F32(128,64)
 8003028:	b480      	push	{r7}
 800302a:	b085      	sub	sp, #20
 800302c:	af00      	add	r7, sp, #0
 800302e:	6078      	str	r0, [r7, #4]
 8003030:	2300      	movs	r3, #0
 8003032:	73fb      	strb	r3, [r7, #15]
 8003034:	687b      	ldr	r3, [r7, #4]
 8003036:	2280      	movs	r2, #128	@ 0x80
 8003038:	801a      	strh	r2, [r3, #0]
 800303a:	687b      	ldr	r3, [r7, #4]
 800303c:	2200      	movs	r2, #0
 800303e:	605a      	str	r2, [r3, #4]
 8003040:	4b09      	ldr	r3, [pc, #36]	@ (8003068 <arm_cfft_init_128_f32+0x40>)
 8003042:	899a      	ldrh	r2, [r3, #12]
 8003044:	687b      	ldr	r3, [r7, #4]
 8003046:	819a      	strh	r2, [r3, #12]
 8003048:	4b07      	ldr	r3, [pc, #28]	@ (8003068 <arm_cfft_init_128_f32+0x40>)
 800304a:	689a      	ldr	r2, [r3, #8]
 800304c:	687b      	ldr	r3, [r7, #4]
 800304e:	609a      	str	r2, [r3, #8]
 8003050:	4b05      	ldr	r3, [pc, #20]	@ (8003068 <arm_cfft_init_128_f32+0x40>)
 8003052:	685a      	ldr	r2, [r3, #4]
 8003054:	687b      	ldr	r3, [r7, #4]
 8003056:	605a      	str	r2, [r3, #4]
 8003058:	f997 300f 	ldrsb.w	r3, [r7, #15]
 800305c:	4618      	mov	r0, r3
 800305e:	3714      	adds	r7, #20
 8003060:	46bd      	mov	sp, r7
 8003062:	f85d 7b04 	ldr.w	r7, [sp], #4
 8003066:	4770      	bx	lr
 8003068:	0801e34c 	.word	0x0801e34c

0800306c <arm_cfft_init_64_f32>:

  @par          Use of this function is mandatory only for the Helium and Neon versions of the FFT.
                Other versions can still initialize directly the data structure using 
                variables declared in arm_const_structs.h
 */
CFFTINIT_F32(64,64)
 800306c:	b480      	push	{r7}
 800306e:	b085      	sub	sp, #20
 8003070:	af00      	add	r7, sp, #0
 8003072:	6078      	str	r0, [r7, #4]
 8003074:	2300      	movs	r3, #0
 8003076:	73fb      	strb	r3, [r7, #15]
 8003078:	687b      	ldr	r3, [r7, #4]
 800307a:	2240      	movs	r2, #64	@ 0x40
 800307c:	801a      	strh	r2, [r3, #0]
 800307e:	687b      	ldr	r3, [r7, #4]
 8003080:	2200      	movs	r2, #0
 8003082:	605a      	str	r2, [r3, #4]
 8003084:	4b09      	ldr	r3, [pc, #36]	@ (80030ac <arm_cfft_init_64_f32+0x40>)
 8003086:	899a      	ldrh	r2, [r3, #12]
 8003088:	687b      	ldr	r3, [r7, #4]
 800308a:	819a      	strh	r2, [r3, #12]
 800308c:	4b07      	ldr	r3, [pc, #28]	@ (80030ac <arm_cfft_init_64_f32+0x40>)
 800308e:	689a      	ldr	r2, [r3, #8]
 8003090:	687b      	ldr	r3, [r7, #4]
 8003092:	609a      	str	r2, [r3, #8]
 8003094:	4b05      	ldr	r3, [pc, #20]	@ (80030ac <arm_cfft_init_64_f32+0x40>)
 8003096:	685a      	ldr	r2, [r3, #4]
 8003098:	687b      	ldr	r3, [r7, #4]
 800309a:	605a      	str	r2, [r3, #4]
 800309c:	f997 300f 	ldrsb.w	r3, [r7, #15]
 80030a0:	4618      	mov	r0, r3
 80030a2:	3714      	adds	r7, #20
 80030a4:	46bd      	mov	sp, r7
 80030a6:	f85d 7b04 	ldr.w	r7, [sp], #4
 80030aa:	4770      	bx	lr
 80030ac:	0801e33c 	.word	0x0801e33c

080030b0 <arm_cfft_init_32_f32>:

  @par          Use of this function is mandatory only for the Helium and Neon versions of the FFT.
                Other versions can still initialize directly the data structure using 
                variables declared in arm_const_structs.h
 */
CFFTINIT_F32(32,16)
 80030b0:	b480      	push	{r7}
 80030b2:	b085      	sub	sp, #20
 80030b4:	af00      	add	r7, sp, #0
 80030b6:	6078      	str	r0, [r7, #4]
 80030b8:	2300      	movs	r3, #0
 80030ba:	73fb      	strb	r3, [r7, #15]
 80030bc:	687b      	ldr	r3, [r7, #4]
 80030be:	2220      	movs	r2, #32
 80030c0:	801a      	strh	r2, [r3, #0]
 80030c2:	687b      	ldr	r3, [r7, #4]
 80030c4:	2200      	movs	r2, #0
 80030c6:	605a      	str	r2, [r3, #4]
 80030c8:	4b09      	ldr	r3, [pc, #36]	@ (80030f0 <arm_cfft_init_32_f32+0x40>)
 80030ca:	899a      	ldrh	r2, [r3, #12]
 80030cc:	687b      	ldr	r3, [r7, #4]
 80030ce:	819a      	strh	r2, [r3, #12]
 80030d0:	4b07      	ldr	r3, [pc, #28]	@ (80030f0 <arm_cfft_init_32_f32+0x40>)
 80030d2:	689a      	ldr	r2, [r3, #8]
 80030d4:	687b      	ldr	r3, [r7, #4]
 80030d6:	609a      	str	r2, [r3, #8]
 80030d8:	4b05      	ldr	r3, [pc, #20]	@ (80030f0 <arm_cfft_init_32_f32+0x40>)
 80030da:	685a      	ldr	r2, [r3, #4]
 80030dc:	687b      	ldr	r3, [r7, #4]
 80030de:	605a      	str	r2, [r3, #4]
 80030e0:	f997 300f 	ldrsb.w	r3, [r7, #15]
 80030e4:	4618      	mov	r0, r3
 80030e6:	3714      	adds	r7, #20
 80030e8:	46bd      	mov	sp, r7
 80030ea:	f85d 7b04 	ldr.w	r7, [sp], #4
 80030ee:	4770      	bx	lr
 80030f0:	0801e32c 	.word	0x0801e32c

080030f4 <arm_cfft_init_16_f32>:

  @par          Use of this function is mandatory only for the Helium and Neon versions of the FFT.
                Other versions can still initialize directly the data structure using 
                variables declared in arm_const_structs.h
 */
CFFTINIT_F32(16,16)
 80030f4:	b480      	push	{r7}
 80030f6:	b085      	sub	sp, #20
 80030f8:	af00      	add	r7, sp, #0
 80030fa:	6078      	str	r0, [r7, #4]
 80030fc:	2300      	movs	r3, #0
 80030fe:	73fb      	strb	r3, [r7, #15]
 8003100:	687b      	ldr	r3, [r7, #4]
 8003102:	2210      	movs	r2, #16
 8003104:	801a      	strh	r2, [r3, #0]
 8003106:	687b      	ldr	r3, [r7, #4]
 8003108:	2200      	movs	r2, #0
 800310a:	605a      	str	r2, [r3, #4]
 800310c:	4b09      	ldr	r3, [pc, #36]	@ (8003134 <arm_cfft_init_16_f32+0x40>)
 800310e:	899a      	ldrh	r2, [r3, #12]
 8003110:	687b      	ldr	r3, [r7, #4]
 8003112:	819a      	strh	r2, [r3, #12]
 8003114:	4b07      	ldr	r3, [pc, #28]	@ (8003134 <arm_cfft_init_16_f32+0x40>)
 8003116:	689a      	ldr	r2, [r3, #8]
 8003118:	687b      	ldr	r3, [r7, #4]
 800311a:	609a      	str	r2, [r3, #8]
 800311c:	4b05      	ldr	r3, [pc, #20]	@ (8003134 <arm_cfft_init_16_f32+0x40>)
 800311e:	685a      	ldr	r2, [r3, #4]
 8003120:	687b      	ldr	r3, [r7, #4]
 8003122:	605a      	str	r2, [r3, #4]
 8003124:	f997 300f 	ldrsb.w	r3, [r7, #15]
 8003128:	4618      	mov	r0, r3
 800312a:	3714      	adds	r7, #20
 800312c:	46bd      	mov	sp, r7
 800312e:	f85d 7b04 	ldr.w	r7, [sp], #4
 8003132:	4770      	bx	lr
 8003134:	0801e31c 	.word	0x0801e31c

08003138 <arm_radix8_butterfly_f32>:
ARM_DSP_ATTRIBUTE void arm_radix8_butterfly_f32(
  float32_t * pSrc,
  uint16_t fftLen,
  const float32_t * pCoef,
  uint16_t twidCoefModifier)
{
 8003138:	b480      	push	{r7}
 800313a:	b0bd      	sub	sp, #244	@ 0xf4
 800313c:	af00      	add	r7, sp, #0
 800313e:	60f8      	str	r0, [r7, #12]
 8003140:	607a      	str	r2, [r7, #4]
 8003142:	461a      	mov	r2, r3
 8003144:	460b      	mov	r3, r1
 8003146:	817b      	strh	r3, [r7, #10]
 8003148:	4613      	mov	r3, r2
 800314a:	813b      	strh	r3, [r7, #8]
   float32_t t1, t2;
   float32_t s1, s2, s3, s4, s5, s6, s7, s8;
   float32_t p1, p2, p3, p4;
   float32_t co2, co3, co4, co5, co6, co7, co8;
   float32_t si2, si3, si4, si5, si6, si7, si8;
   const float32_t C81 = 0.70710678118f;
 800314c:	4b09      	ldr	r3, [pc, #36]	@ (8003174 <arm_radix8_butterfly_f32+0x3c>)
 800314e:	f8c7 30dc 	str.w	r3, [r7, #220]	@ 0xdc

   n2 = fftLen;
 8003152:	897b      	ldrh	r3, [r7, #10]
 8003154:	f8c7 30e4 	str.w	r3, [r7, #228]	@ 0xe4

   do
   {
      n1 = n2;
 8003158:	f8d7 30e4 	ldr.w	r3, [r7, #228]	@ 0xe4
 800315c:	f8c7 30d8 	str.w	r3, [r7, #216]	@ 0xd8
      n2 = n2 >> 3;
 8003160:	f8d7 30e4 	ldr.w	r3, [r7, #228]	@ 0xe4
 8003164:	08db      	lsrs	r3, r3, #3
 8003166:	f8c7 30e4 	str.w	r3, [r7, #228]	@ 0xe4
      i1 = 0;
 800316a:	2300      	movs	r3, #0
 800316c:	f8c7 30e8 	str.w	r3, [r7, #232]	@ 0xe8
 8003170:	e002      	b.n	8003178 <arm_radix8_butterfly_f32+0x40>
 8003172:	bf00      	nop
 8003174:	3f3504f3 	.word	0x3f3504f3

      do
      {
         i2 = i1 + n2;
 8003178:	f8d7 20e8 	ldr.w	r2, [r7, #232]	@ 0xe8
 800317c:	f8d7 30e4 	ldr.w	r3, [r7, #228]	@ 0xe4
 8003180:	4413      	add	r3, r2
 8003182:	f8c7 30d4 	str.w	r3, [r7, #212]	@ 0xd4
         i3 = i2 + n2;
 8003186:	f8d7 20d4 	ldr.w	r2, [r7, #212]	@ 0xd4
 800318a:	f8d7 30e4 	ldr.w	r3, [r7, #228]	@ 0xe4
 800318e:	4413      	add	r3, r2
 8003190:	f8c7 30d0 	str.w	r3, [r7, #208]	@ 0xd0
         i4 = i3 + n2;
 8003194:	f8d7 20d0 	ldr.w	r2, [r7, #208]	@ 0xd0
 8003198:	f8d7 30e4 	ldr.w	r3, [r7, #228]	@ 0xe4
 800319c:	4413      	add	r3, r2
 800319e:	f8c7 30cc 	str.w	r3, [r7, #204]	@ 0xcc
         i5 = i4 + n2;
 80031a2:	f8d7 20cc 	ldr.w	r2, [r7, #204]	@ 0xcc
 80031a6:	f8d7 30e4 	ldr.w	r3, [r7, #228]	@ 0xe4
 80031aa:	4413      	add	r3, r2
 80031ac:	f8c7 30c8 	str.w	r3, [r7, #200]	@ 0xc8
         i6 = i5 + n2;
 80031b0:	f8d7 20c8 	ldr.w	r2, [r7, #200]	@ 0xc8
 80031b4:	f8d7 30e4 	ldr.w	r3, [r7, #228]	@ 0xe4
 80031b8:	4413      	add	r3, r2
 80031ba:	f8c7 30c4 	str.w	r3, [r7, #196]	@ 0xc4
         i7 = i6 + n2;
 80031be:	f8d7 20c4 	ldr.w	r2, [r7, #196]	@ 0xc4
 80031c2:	f8d7 30e4 	ldr.w	r3, [r7, #228]	@ 0xe4
 80031c6:	4413      	add	r3, r2
 80031c8:	f8c7 30c0 	str.w	r3, [r7, #192]	@ 0xc0
         i8 = i7 + n2;
 80031cc:	f8d7 20c0 	ldr.w	r2, [r7, #192]	@ 0xc0
 80031d0:	f8d7 30e4 	ldr.w	r3, [r7, #228]	@ 0xe4
 80031d4:	4413      	add	r3, r2
 80031d6:	f8c7 30bc 	str.w	r3, [r7, #188]	@ 0xbc
         r1 = pSrc[2 * i1] + pSrc[2 * i5];
 80031da:	f8d7 30e8 	ldr.w	r3, [r7, #232]	@ 0xe8
 80031de:	00db      	lsls	r3, r3, #3
 80031e0:	68fa      	ldr	r2, [r7, #12]
 80031e2:	4413      	add	r3, r2
 80031e4:	ed93 7a00 	vldr	s14, [r3]
 80031e8:	f8d7 30c8 	ldr.w	r3, [r7, #200]	@ 0xc8
 80031ec:	00db      	lsls	r3, r3, #3
 80031ee:	68fa      	ldr	r2, [r7, #12]
 80031f0:	4413      	add	r3, r2
 80031f2:	edd3 7a00 	vldr	s15, [r3]
 80031f6:	ee77 7a27 	vadd.f32	s15, s14, s15
 80031fa:	edc7 7a2e 	vstr	s15, [r7, #184]	@ 0xb8
         r5 = pSrc[2 * i1] - pSrc[2 * i5];
 80031fe:	f8d7 30e8 	ldr.w	r3, [r7, #232]	@ 0xe8
 8003202:	00db      	lsls	r3, r3, #3
 8003204:	68fa      	ldr	r2, [r7, #12]
 8003206:	4413      	add	r3, r2
 8003208:	ed93 7a00 	vldr	s14, [r3]
 800320c:	f8d7 30c8 	ldr.w	r3, [r7, #200]	@ 0xc8
 8003210:	00db      	lsls	r3, r3, #3
 8003212:	68fa      	ldr	r2, [r7, #12]
 8003214:	4413      	add	r3, r2
 8003216:	edd3 7a00 	vldr	s15, [r3]
 800321a:	ee77 7a67 	vsub.f32	s15, s14, s15
 800321e:	edc7 7a2d 	vstr	s15, [r7, #180]	@ 0xb4
         r2 = pSrc[2 * i2] + pSrc[2 * i6];
 8003222:	f8d7 30d4 	ldr.w	r3, [r7, #212]	@ 0xd4
 8003226:	00db      	lsls	r3, r3, #3
 8003228:	68fa      	ldr	r2, [r7, #12]
 800322a:	4413      	add	r3, r2
 800322c:	ed93 7a00 	vldr	s14, [r3]
 8003230:	f8d7 30c4 	ldr.w	r3, [r7, #196]	@ 0xc4
 8003234:	00db      	lsls	r3, r3, #3
 8003236:	68fa      	ldr	r2, [r7, #12]
 8003238:	4413      	add	r3, r2
 800323a:	edd3 7a00 	vldr	s15, [r3]
 800323e:	ee77 7a27 	vadd.f32	s15, s14, s15
 8003242:	edc7 7a2c 	vstr	s15, [r7, #176]	@ 0xb0
         r6 = pSrc[2 * i2] - pSrc[2 * i6];
 8003246:	f8d7 30d4 	ldr.w	r3, [r7, #212]	@ 0xd4
 800324a:	00db      	lsls	r3, r3, #3
 800324c:	68fa      	ldr	r2, [r7, #12]
 800324e:	4413      	add	r3, r2
 8003250:	ed93 7a00 	vldr	s14, [r3]
 8003254:	f8d7 30c4 	ldr.w	r3, [r7, #196]	@ 0xc4
 8003258:	00db      	lsls	r3, r3, #3
 800325a:	68fa      	ldr	r2, [r7, #12]
 800325c:	4413      	add	r3, r2
 800325e:	edd3 7a00 	vldr	s15, [r3]
 8003262:	ee77 7a67 	vsub.f32	s15, s14, s15
 8003266:	edc7 7a2b 	vstr	s15, [r7, #172]	@ 0xac
         r3 = pSrc[2 * i3] + pSrc[2 * i7];
 800326a:	f8d7 30d0 	ldr.w	r3, [r7, #208]	@ 0xd0
 800326e:	00db      	lsls	r3, r3, #3
 8003270:	68fa      	ldr	r2, [r7, #12]
 8003272:	4413      	add	r3, r2
 8003274:	ed93 7a00 	vldr	s14, [r3]
 8003278:	f8d7 30c0 	ldr.w	r3, [r7, #192]	@ 0xc0
 800327c:	00db      	lsls	r3, r3, #3
 800327e:	68fa      	ldr	r2, [r7, #12]
 8003280:	4413      	add	r3, r2
 8003282:	edd3 7a00 	vldr	s15, [r3]
 8003286:	ee77 7a27 	vadd.f32	s15, s14, s15
 800328a:	edc7 7a2a 	vstr	s15, [r7, #168]	@ 0xa8
         r7 = pSrc[2 * i3] - pSrc[2 * i7];
 800328e:	f8d7 30d0 	ldr.w	r3, [r7, #208]	@ 0xd0
 8003292:	00db      	lsls	r3, r3, #3
 8003294:	68fa      	ldr	r2, [r7, #12]
 8003296:	4413      	add	r3, r2
 8003298:	ed93 7a00 	vldr	s14, [r3]
 800329c:	f8d7 30c0 	ldr.w	r3, [r7, #192]	@ 0xc0
 80032a0:	00db      	lsls	r3, r3, #3
 80032a2:	68fa      	ldr	r2, [r7, #12]
 80032a4:	4413      	add	r3, r2
 80032a6:	edd3 7a00 	vldr	s15, [r3]
 80032aa:	ee77 7a67 	vsub.f32	s15, s14, s15
 80032ae:	edc7 7a29 	vstr	s15, [r7, #164]	@ 0xa4
         r4 = pSrc[2 * i4] + pSrc[2 * i8];
 80032b2:	f8d7 30cc 	ldr.w	r3, [r7, #204]	@ 0xcc
 80032b6:	00db      	lsls	r3, r3, #3
 80032b8:	68fa      	ldr	r2, [r7, #12]
 80032ba:	4413      	add	r3, r2
 80032bc:	ed93 7a00 	vldr	s14, [r3]
 80032c0:	f8d7 30bc 	ldr.w	r3, [r7, #188]	@ 0xbc
 80032c4:	00db      	lsls	r3, r3, #3
 80032c6:	68fa      	ldr	r2, [r7, #12]
 80032c8:	4413      	add	r3, r2
 80032ca:	edd3 7a00 	vldr	s15, [r3]
 80032ce:	ee77 7a27 	vadd.f32	s15, s14, s15
 80032d2:	edc7 7a28 	vstr	s15, [r7, #160]	@ 0xa0
         r8 = pSrc[2 * i4] - pSrc[2 * i8];
 80032d6:	f8d7 30cc 	ldr.w	r3, [r7, #204]	@ 0xcc
 80032da:	00db      	lsls	r3, r3, #3
 80032dc:	68fa      	ldr	r2, [r7, #12]
 80032de:	4413      	add	r3, r2
 80032e0:	ed93 7a00 	vldr	s14, [r3]
 80032e4:	f8d7 30bc 	ldr.w	r3, [r7, #188]	@ 0xbc
 80032e8:	00db      	lsls	r3, r3, #3
 80032ea:	68fa      	ldr	r2, [r7, #12]
 80032ec:	4413      	add	r3, r2
 80032ee:	edd3 7a00 	vldr	s15, [r3]
 80032f2:	ee77 7a67 	vsub.f32	s15, s14, s15
 80032f6:	edc7 7a27 	vstr	s15, [r7, #156]	@ 0x9c
         t1 = r1 - r3;
 80032fa:	ed97 7a2e 	vldr	s14, [r7, #184]	@ 0xb8
 80032fe:	edd7 7a2a 	vldr	s15, [r7, #168]	@ 0xa8
 8003302:	ee77 7a67 	vsub.f32	s15, s14, s15
 8003306:	edc7 7a26 	vstr	s15, [r7, #152]	@ 0x98
         r1 = r1 + r3;
 800330a:	ed97 7a2e 	vldr	s14, [r7, #184]	@ 0xb8
 800330e:	edd7 7a2a 	vldr	s15, [r7, #168]	@ 0xa8
 8003312:	ee77 7a27 	vadd.f32	s15, s14, s15
 8003316:	edc7 7a2e 	vstr	s15, [r7, #184]	@ 0xb8
         r3 = r2 - r4;
 800331a:	ed97 7a2c 	vldr	s14, [r7, #176]	@ 0xb0
 800331e:	edd7 7a28 	vldr	s15, [r7, #160]	@ 0xa0
 8003322:	ee77 7a67 	vsub.f32	s15, s14, s15
 8003326:	edc7 7a2a 	vstr	s15, [r7, #168]	@ 0xa8
         r2 = r2 + r4;
 800332a:	ed97 7a2c 	vldr	s14, [r7, #176]	@ 0xb0
 800332e:	edd7 7a28 	vldr	s15, [r7, #160]	@ 0xa0
 8003332:	ee77 7a27 	vadd.f32	s15, s14, s15
 8003336:	edc7 7a2c 	vstr	s15, [r7, #176]	@ 0xb0
         pSrc[2 * i1] = r1 + r2;
 800333a:	f8d7 30e8 	ldr.w	r3, [r7, #232]	@ 0xe8
 800333e:	00db      	lsls	r3, r3, #3
 8003340:	68fa      	ldr	r2, [r7, #12]
 8003342:	4413      	add	r3, r2
 8003344:	ed97 7a2e 	vldr	s14, [r7, #184]	@ 0xb8
 8003348:	edd7 7a2c 	vldr	s15, [r7, #176]	@ 0xb0
 800334c:	ee77 7a27 	vadd.f32	s15, s14, s15
 8003350:	edc3 7a00 	vstr	s15, [r3]
         pSrc[2 * i5] = r1 - r2;
 8003354:	f8d7 30c8 	ldr.w	r3, [r7, #200]	@ 0xc8
 8003358:	00db      	lsls	r3, r3, #3
 800335a:	68fa      	ldr	r2, [r7, #12]
 800335c:	4413      	add	r3, r2
 800335e:	ed97 7a2e 	vldr	s14, [r7, #184]	@ 0xb8
 8003362:	edd7 7a2c 	vldr	s15, [r7, #176]	@ 0xb0
 8003366:	ee77 7a67 	vsub.f32	s15, s14, s15
 800336a:	edc3 7a00 	vstr	s15, [r3]
         r1 = pSrc[2 * i1 + 1] + pSrc[2 * i5 + 1];
 800336e:	f8d7 30e8 	ldr.w	r3, [r7, #232]	@ 0xe8
 8003372:	00db      	lsls	r3, r3, #3
 8003374:	3304      	adds	r3, #4
 8003376:	68fa      	ldr	r2, [r7, #12]
 8003378:	4413      	add	r3, r2
 800337a:	ed93 7a00 	vldr	s14, [r3]
 800337e:	f8d7 30c8 	ldr.w	r3, [r7, #200]	@ 0xc8
 8003382:	00db      	lsls	r3, r3, #3
 8003384:	3304      	adds	r3, #4
 8003386:	68fa      	ldr	r2, [r7, #12]
 8003388:	4413      	add	r3, r2
 800338a:	edd3 7a00 	vldr	s15, [r3]
 800338e:	ee77 7a27 	vadd.f32	s15, s14, s15
 8003392:	edc7 7a2e 	vstr	s15, [r7, #184]	@ 0xb8
         s5 = pSrc[2 * i1 + 1] - pSrc[2 * i5 + 1];
 8003396:	f8d7 30e8 	ldr.w	r3, [r7, #232]	@ 0xe8
 800339a:	00db      	lsls	r3, r3, #3
 800339c:	3304      	adds	r3, #4
 800339e:	68fa      	ldr	r2, [r7, #12]
 80033a0:	4413      	add	r3, r2
 80033a2:	ed93 7a00 	vldr	s14, [r3]
 80033a6:	f8d7 30c8 	ldr.w	r3, [r7, #200]	@ 0xc8
 80033aa:	00db      	lsls	r3, r3, #3
 80033ac:	3304      	adds	r3, #4
 80033ae:	68fa      	ldr	r2, [r7, #12]
 80033b0:	4413      	add	r3, r2
 80033b2:	edd3 7a00 	vldr	s15, [r3]
 80033b6:	ee77 7a67 	vsub.f32	s15, s14, s15
 80033ba:	edc7 7a25 	vstr	s15, [r7, #148]	@ 0x94
         r2 = pSrc[2 * i2 + 1] + pSrc[2 * i6 + 1];
 80033be:	f8d7 30d4 	ldr.w	r3, [r7, #212]	@ 0xd4
 80033c2:	00db      	lsls	r3, r3, #3
 80033c4:	3304      	adds	r3, #4
 80033c6:	68fa      	ldr	r2, [r7, #12]
 80033c8:	4413      	add	r3, r2
 80033ca:	ed93 7a00 	vldr	s14, [r3]
 80033ce:	f8d7 30c4 	ldr.w	r3, [r7, #196]	@ 0xc4
 80033d2:	00db      	lsls	r3, r3, #3
 80033d4:	3304      	adds	r3, #4
 80033d6:	68fa      	ldr	r2, [r7, #12]
 80033d8:	4413      	add	r3, r2
 80033da:	edd3 7a00 	vldr	s15, [r3]
 80033de:	ee77 7a27 	vadd.f32	s15, s14, s15
 80033e2:	edc7 7a2c 	vstr	s15, [r7, #176]	@ 0xb0
         s6 = pSrc[2 * i2 + 1] - pSrc[2 * i6 + 1];
 80033e6:	f8d7 30d4 	ldr.w	r3, [r7, #212]	@ 0xd4
 80033ea:	00db      	lsls	r3, r3, #3
 80033ec:	3304      	adds	r3, #4
 80033ee:	68fa      	ldr	r2, [r7, #12]
 80033f0:	4413      	add	r3, r2
 80033f2:	ed93 7a00 	vldr	s14, [r3]
 80033f6:	f8d7 30c4 	ldr.w	r3, [r7, #196]	@ 0xc4
 80033fa:	00db      	lsls	r3, r3, #3
 80033fc:	3304      	adds	r3, #4
 80033fe:	68fa      	ldr	r2, [r7, #12]
 8003400:	4413      	add	r3, r2
 8003402:	edd3 7a00 	vldr	s15, [r3]
 8003406:	ee77 7a67 	vsub.f32	s15, s14, s15
 800340a:	edc7 7a24 	vstr	s15, [r7, #144]	@ 0x90
         s3 = pSrc[2 * i3 + 1] + pSrc[2 * i7 + 1];
 800340e:	f8d7 30d0 	ldr.w	r3, [r7, #208]	@ 0xd0
 8003412:	00db      	lsls	r3, r3, #3
 8003414:	3304      	adds	r3, #4
 8003416:	68fa      	ldr	r2, [r7, #12]
 8003418:	4413      	add	r3, r2
 800341a:	ed93 7a00 	vldr	s14, [r3]
 800341e:	f8d7 30c0 	ldr.w	r3, [r7, #192]	@ 0xc0
 8003422:	00db      	lsls	r3, r3, #3
 8003424:	3304      	adds	r3, #4
 8003426:	68fa      	ldr	r2, [r7, #12]
 8003428:	4413      	add	r3, r2
 800342a:	edd3 7a00 	vldr	s15, [r3]
 800342e:	ee77 7a27 	vadd.f32	s15, s14, s15
 8003432:	edc7 7a23 	vstr	s15, [r7, #140]	@ 0x8c
         s7 = pSrc[2 * i3 + 1] - pSrc[2 * i7 + 1];
 8003436:	f8d7 30d0 	ldr.w	r3, [r7, #208]	@ 0xd0
 800343a:	00db      	lsls	r3, r3, #3
 800343c:	3304      	adds	r3, #4
 800343e:	68fa      	ldr	r2, [r7, #12]
 8003440:	4413      	add	r3, r2
 8003442:	ed93 7a00 	vldr	s14, [r3]
 8003446:	f8d7 30c0 	ldr.w	r3, [r7, #192]	@ 0xc0
 800344a:	00db      	lsls	r3, r3, #3
 800344c:	3304      	adds	r3, #4
 800344e:	68fa      	ldr	r2, [r7, #12]
 8003450:	4413      	add	r3, r2
 8003452:	edd3 7a00 	vldr	s15, [r3]
 8003456:	ee77 7a67 	vsub.f32	s15, s14, s15
 800345a:	edc7 7a22 	vstr	s15, [r7, #136]	@ 0x88
         r4 = pSrc[2 * i4 + 1] + pSrc[2 * i8 + 1];
 800345e:	f8d7 30cc 	ldr.w	r3, [r7, #204]	@ 0xcc
 8003462:	00db      	lsls	r3, r3, #3
 8003464:	3304      	adds	r3, #4
 8003466:	68fa      	ldr	r2, [r7, #12]
 8003468:	4413      	add	r3, r2
 800346a:	ed93 7a00 	vldr	s14, [r3]
 800346e:	f8d7 30bc 	ldr.w	r3, [r7, #188]	@ 0xbc
 8003472:	00db      	lsls	r3, r3, #3
 8003474:	3304      	adds	r3, #4
 8003476:	68fa      	ldr	r2, [r7, #12]
 8003478:	4413      	add	r3, r2
 800347a:	edd3 7a00 	vldr	s15, [r3]
 800347e:	ee77 7a27 	vadd.f32	s15, s14, s15
 8003482:	edc7 7a28 	vstr	s15, [r7, #160]	@ 0xa0
         s8 = pSrc[2 * i4 + 1] - pSrc[2 * i8 + 1];
 8003486:	f8d7 30cc 	ldr.w	r3, [r7, #204]	@ 0xcc
 800348a:	00db      	lsls	r3, r3, #3
 800348c:	3304      	adds	r3, #4
 800348e:	68fa      	ldr	r2, [r7, #12]
 8003490:	4413      	add	r3, r2
 8003492:	ed93 7a00 	vldr	s14, [r3]
 8003496:	f8d7 30bc 	ldr.w	r3, [r7, #188]	@ 0xbc
 800349a:	00db      	lsls	r3, r3, #3
 800349c:	3304      	adds	r3, #4
 800349e:	68fa      	ldr	r2, [r7, #12]
 80034a0:	4413      	add	r3, r2
 80034a2:	edd3 7a00 	vldr	s15, [r3]
 80034a6:	ee77 7a67 	vsub.f32	s15, s14, s15
 80034aa:	edc7 7a21 	vstr	s15, [r7, #132]	@ 0x84
         t2 = r1 - s3;
 80034ae:	ed97 7a2e 	vldr	s14, [r7, #184]	@ 0xb8
 80034b2:	edd7 7a23 	vldr	s15, [r7, #140]	@ 0x8c
 80034b6:	ee77 7a67 	vsub.f32	s15, s14, s15
 80034ba:	edc7 7a20 	vstr	s15, [r7, #128]	@ 0x80
         r1 = r1 + s3;
 80034be:	ed97 7a2e 	vldr	s14, [r7, #184]	@ 0xb8
 80034c2:	edd7 7a23 	vldr	s15, [r7, #140]	@ 0x8c
 80034c6:	ee77 7a27 	vadd.f32	s15, s14, s15
 80034ca:	edc7 7a2e 	vstr	s15, [r7, #184]	@ 0xb8
         s3 = r2 - r4;
 80034ce:	ed97 7a2c 	vldr	s14, [r7, #176]	@ 0xb0
 80034d2:	edd7 7a28 	vldr	s15, [r7, #160]	@ 0xa0
 80034d6:	ee77 7a67 	vsub.f32	s15, s14, s15
 80034da:	edc7 7a23 	vstr	s15, [r7, #140]	@ 0x8c
         r2 = r2 + r4;
 80034de:	ed97 7a2c 	vldr	s14, [r7, #176]	@ 0xb0
 80034e2:	edd7 7a28 	vldr	s15, [r7, #160]	@ 0xa0
 80034e6:	ee77 7a27 	vadd.f32	s15, s14, s15
 80034ea:	edc7 7a2c 	vstr	s15, [r7, #176]	@ 0xb0
         pSrc[2 * i1 + 1] = r1 + r2;
 80034ee:	f8d7 30e8 	ldr.w	r3, [r7, #232]	@ 0xe8
 80034f2:	00db      	lsls	r3, r3, #3
 80034f4:	3304      	adds	r3, #4
 80034f6:	68fa      	ldr	r2, [r7, #12]
 80034f8:	4413      	add	r3, r2
 80034fa:	ed97 7a2e 	vldr	s14, [r7, #184]	@ 0xb8
 80034fe:	edd7 7a2c 	vldr	s15, [r7, #176]	@ 0xb0
 8003502:	ee77 7a27 	vadd.f32	s15, s14, s15
 8003506:	edc3 7a00 	vstr	s15, [r3]
         pSrc[2 * i5 + 1] = r1 - r2;
 800350a:	f8d7 30c8 	ldr.w	r3, [r7, #200]	@ 0xc8
 800350e:	00db      	lsls	r3, r3, #3
 8003510:	3304      	adds	r3, #4
 8003512:	68fa      	ldr	r2, [r7, #12]
 8003514:	4413      	add	r3, r2
 8003516:	ed97 7a2e 	vldr	s14, [r7, #184]	@ 0xb8
 800351a:	edd7 7a2c 	vldr	s15, [r7, #176]	@ 0xb0
 800351e:	ee77 7a67 	vsub.f32	s15, s14, s15
 8003522:	edc3 7a00 	vstr	s15, [r3]
         pSrc[2 * i3]     = t1 + s3;
 8003526:	f8d7 30d0 	ldr.w	r3, [r7, #208]	@ 0xd0
 800352a:	00db      	lsls	r3, r3, #3
 800352c:	68fa      	ldr	r2, [r7, #12]
 800352e:	4413      	add	r3, r2
 8003530:	ed97 7a26 	vldr	s14, [r7, #152]	@ 0x98
 8003534:	edd7 7a23 	vldr	s15, [r7, #140]	@ 0x8c
 8003538:	ee77 7a27 	vadd.f32	s15, s14, s15
 800353c:	edc3 7a00 	vstr	s15, [r3]
         pSrc[2 * i7]     = t1 - s3;
 8003540:	f8d7 30c0 	ldr.w	r3, [r7, #192]	@ 0xc0
 8003544:	00db      	lsls	r3, r3, #3
 8003546:	68fa      	ldr	r2, [r7, #12]
 8003548:	4413      	add	r3, r2
 800354a:	ed97 7a26 	vldr	s14, [r7, #152]	@ 0x98
 800354e:	edd7 7a23 	vldr	s15, [r7, #140]	@ 0x8c
 8003552:	ee77 7a67 	vsub.f32	s15, s14, s15
 8003556:	edc3 7a00 	vstr	s15, [r3]
         pSrc[2 * i3 + 1] = t2 - r3;
 800355a:	f8d7 30d0 	ldr.w	r3, [r7, #208]	@ 0xd0
 800355e:	00db      	lsls	r3, r3, #3
 8003560:	3304      	adds	r3, #4
 8003562:	68fa      	ldr	r2, [r7, #12]
 8003564:	4413      	add	r3, r2
 8003566:	ed97 7a20 	vldr	s14, [r7, #128]	@ 0x80
 800356a:	edd7 7a2a 	vldr	s15, [r7, #168]	@ 0xa8
 800356e:	ee77 7a67 	vsub.f32	s15, s14, s15
 8003572:	edc3 7a00 	vstr	s15, [r3]
         pSrc[2 * i7 + 1] = t2 + r3;
 8003576:	f8d7 30c0 	ldr.w	r3, [r7, #192]	@ 0xc0
 800357a:	00db      	lsls	r3, r3, #3
 800357c:	3304      	adds	r3, #4
 800357e:	68fa      	ldr	r2, [r7, #12]
 8003580:	4413      	add	r3, r2
 8003582:	ed97 7a20 	vldr	s14, [r7, #128]	@ 0x80
 8003586:	edd7 7a2a 	vldr	s15, [r7, #168]	@ 0xa8
 800358a:	ee77 7a27 	vadd.f32	s15, s14, s15
 800358e:	edc3 7a00 	vstr	s15, [r3]
         r1 = (r6 - r8) * C81;
 8003592:	ed97 7a2b 	vldr	s14, [r7, #172]	@ 0xac
 8003596:	edd7 7a27 	vldr	s15, [r7, #156]	@ 0x9c
 800359a:	ee77 7a67 	vsub.f32	s15, s14, s15
 800359e:	ed97 7a37 	vldr	s14, [r7, #220]	@ 0xdc
 80035a2:	ee67 7a27 	vmul.f32	s15, s14, s15
 80035a6:	edc7 7a2e 	vstr	s15, [r7, #184]	@ 0xb8
         r6 = (r6 + r8) * C81;
 80035aa:	ed97 7a2b 	vldr	s14, [r7, #172]	@ 0xac
 80035ae:	edd7 7a27 	vldr	s15, [r7, #156]	@ 0x9c
 80035b2:	ee77 7a27 	vadd.f32	s15, s14, s15
 80035b6:	ed97 7a37 	vldr	s14, [r7, #220]	@ 0xdc
 80035ba:	ee67 7a27 	vmul.f32	s15, s14, s15
 80035be:	edc7 7a2b 	vstr	s15, [r7, #172]	@ 0xac
         r2 = (s6 - s8) * C81;
 80035c2:	ed97 7a24 	vldr	s14, [r7, #144]	@ 0x90
 80035c6:	edd7 7a21 	vldr	s15, [r7, #132]	@ 0x84
 80035ca:	ee77 7a67 	vsub.f32	s15, s14, s15
 80035ce:	ed97 7a37 	vldr	s14, [r7, #220]	@ 0xdc
 80035d2:	ee67 7a27 	vmul.f32	s15, s14, s15
 80035d6:	edc7 7a2c 	vstr	s15, [r7, #176]	@ 0xb0
         s6 = (s6 + s8) * C81;
 80035da:	ed97 7a24 	vldr	s14, [r7, #144]	@ 0x90
 80035de:	edd7 7a21 	vldr	s15, [r7, #132]	@ 0x84
 80035e2:	ee77 7a27 	vadd.f32	s15, s14, s15
 80035e6:	ed97 7a37 	vldr	s14, [r7, #220]	@ 0xdc
 80035ea:	ee67 7a27 	vmul.f32	s15, s14, s15
 80035ee:	edc7 7a24 	vstr	s15, [r7, #144]	@ 0x90
         t1 = r5 - r1;
 80035f2:	ed97 7a2d 	vldr	s14, [r7, #180]	@ 0xb4
 80035f6:	edd7 7a2e 	vldr	s15, [r7, #184]	@ 0xb8
 80035fa:	ee77 7a67 	vsub.f32	s15, s14, s15
 80035fe:	edc7 7a26 	vstr	s15, [r7, #152]	@ 0x98
         r5 = r5 + r1;
 8003602:	ed97 7a2d 	vldr	s14, [r7, #180]	@ 0xb4
 8003606:	edd7 7a2e 	vldr	s15, [r7, #184]	@ 0xb8
 800360a:	ee77 7a27 	vadd.f32	s15, s14, s15
 800360e:	edc7 7a2d 	vstr	s15, [r7, #180]	@ 0xb4
         r8 = r7 - r6;
 8003612:	ed97 7a29 	vldr	s14, [r7, #164]	@ 0xa4
 8003616:	edd7 7a2b 	vldr	s15, [r7, #172]	@ 0xac
 800361a:	ee77 7a67 	vsub.f32	s15, s14, s15
 800361e:	edc7 7a27 	vstr	s15, [r7, #156]	@ 0x9c
         r7 = r7 + r6;
 8003622:	ed97 7a29 	vldr	s14, [r7, #164]	@ 0xa4
 8003626:	edd7 7a2b 	vldr	s15, [r7, #172]	@ 0xac
 800362a:	ee77 7a27 	vadd.f32	s15, s14, s15
 800362e:	edc7 7a29 	vstr	s15, [r7, #164]	@ 0xa4
         t2 = s5 - r2;
 8003632:	ed97 7a25 	vldr	s14, [r7, #148]	@ 0x94
 8003636:	edd7 7a2c 	vldr	s15, [r7, #176]	@ 0xb0
 800363a:	ee77 7a67 	vsub.f32	s15, s14, s15
 800363e:	edc7 7a20 	vstr	s15, [r7, #128]	@ 0x80
         s5 = s5 + r2;
 8003642:	ed97 7a25 	vldr	s14, [r7, #148]	@ 0x94
 8003646:	edd7 7a2c 	vldr	s15, [r7, #176]	@ 0xb0
 800364a:	ee77 7a27 	vadd.f32	s15, s14, s15
 800364e:	edc7 7a25 	vstr	s15, [r7, #148]	@ 0x94
         s8 = s7 - s6;
 8003652:	ed97 7a22 	vldr	s14, [r7, #136]	@ 0x88
 8003656:	edd7 7a24 	vldr	s15, [r7, #144]	@ 0x90
 800365a:	ee77 7a67 	vsub.f32	s15, s14, s15
 800365e:	edc7 7a21 	vstr	s15, [r7, #132]	@ 0x84
         s7 = s7 + s6;
 8003662:	ed97 7a22 	vldr	s14, [r7, #136]	@ 0x88
 8003666:	edd7 7a24 	vldr	s15, [r7, #144]	@ 0x90
 800366a:	ee77 7a27 	vadd.f32	s15, s14, s15
 800366e:	edc7 7a22 	vstr	s15, [r7, #136]	@ 0x88
         pSrc[2 * i2]     = r5 + s7;
 8003672:	f8d7 30d4 	ldr.w	r3, [r7, #212]	@ 0xd4
 8003676:	00db      	lsls	r3, r3, #3
 8003678:	68fa      	ldr	r2, [r7, #12]
 800367a:	4413      	add	r3, r2
 800367c:	ed97 7a2d 	vldr	s14, [r7, #180]	@ 0xb4
 8003680:	edd7 7a22 	vldr	s15, [r7, #136]	@ 0x88
 8003684:	ee77 7a27 	vadd.f32	s15, s14, s15
 8003688:	edc3 7a00 	vstr	s15, [r3]
         pSrc[2 * i8]     = r5 - s7;
 800368c:	f8d7 30bc 	ldr.w	r3, [r7, #188]	@ 0xbc
 8003690:	00db      	lsls	r3, r3, #3
 8003692:	68fa      	ldr	r2, [r7, #12]
 8003694:	4413      	add	r3, r2
 8003696:	ed97 7a2d 	vldr	s14, [r7, #180]	@ 0xb4
 800369a:	edd7 7a22 	vldr	s15, [r7, #136]	@ 0x88
 800369e:	ee77 7a67 	vsub.f32	s15, s14, s15
 80036a2:	edc3 7a00 	vstr	s15, [r3]
         pSrc[2 * i6]     = t1 + s8;
 80036a6:	f8d7 30c4 	ldr.w	r3, [r7, #196]	@ 0xc4
 80036aa:	00db      	lsls	r3, r3, #3
 80036ac:	68fa      	ldr	r2, [r7, #12]
 80036ae:	4413      	add	r3, r2
 80036b0:	ed97 7a26 	vldr	s14, [r7, #152]	@ 0x98
 80036b4:	edd7 7a21 	vldr	s15, [r7, #132]	@ 0x84
 80036b8:	ee77 7a27 	vadd.f32	s15, s14, s15
 80036bc:	edc3 7a00 	vstr	s15, [r3]
         pSrc[2 * i4]     = t1 - s8;
 80036c0:	f8d7 30cc 	ldr.w	r3, [r7, #204]	@ 0xcc
 80036c4:	00db      	lsls	r3, r3, #3
 80036c6:	68fa      	ldr	r2, [r7, #12]
 80036c8:	4413      	add	r3, r2
 80036ca:	ed97 7a26 	vldr	s14, [r7, #152]	@ 0x98
 80036ce:	edd7 7a21 	vldr	s15, [r7, #132]	@ 0x84
 80036d2:	ee77 7a67 	vsub.f32	s15, s14, s15
 80036d6:	edc3 7a00 	vstr	s15, [r3]
         pSrc[2 * i2 + 1] = s5 - r7;
 80036da:	f8d7 30d4 	ldr.w	r3, [r7, #212]	@ 0xd4
 80036de:	00db      	lsls	r3, r3, #3
 80036e0:	3304      	adds	r3, #4
 80036e2:	68fa      	ldr	r2, [r7, #12]
 80036e4:	4413      	add	r3, r2
 80036e6:	ed97 7a25 	vldr	s14, [r7, #148]	@ 0x94
 80036ea:	edd7 7a29 	vldr	s15, [r7, #164]	@ 0xa4
 80036ee:	ee77 7a67 	vsub.f32	s15, s14, s15
 80036f2:	edc3 7a00 	vstr	s15, [r3]
         pSrc[2 * i8 + 1] = s5 + r7;
 80036f6:	f8d7 30bc 	ldr.w	r3, [r7, #188]	@ 0xbc
 80036fa:	00db      	lsls	r3, r3, #3
 80036fc:	3304      	adds	r3, #4
 80036fe:	68fa      	ldr	r2, [r7, #12]
 8003700:	4413      	add	r3, r2
 8003702:	ed97 7a25 	vldr	s14, [r7, #148]	@ 0x94
 8003706:	edd7 7a29 	vldr	s15, [r7, #164]	@ 0xa4
 800370a:	ee77 7a27 	vadd.f32	s15, s14, s15
 800370e:	edc3 7a00 	vstr	s15, [r3]
         pSrc[2 * i6 + 1] = t2 - r8;
 8003712:	f8d7 30c4 	ldr.w	r3, [r7, #196]	@ 0xc4
 8003716:	00db      	lsls	r3, r3, #3
 8003718:	3304      	adds	r3, #4
 800371a:	68fa      	ldr	r2, [r7, #12]
 800371c:	4413      	add	r3, r2
 800371e:	ed97 7a20 	vldr	s14, [r7, #128]	@ 0x80
 8003722:	edd7 7a27 	vldr	s15, [r7, #156]	@ 0x9c
 8003726:	ee77 7a67 	vsub.f32	s15, s14, s15
 800372a:	edc3 7a00 	vstr	s15, [r3]
         pSrc[2 * i4 + 1] = t2 + r8;
 800372e:	f8d7 30cc 	ldr.w	r3, [r7, #204]	@ 0xcc
 8003732:	00db      	lsls	r3, r3, #3
 8003734:	3304      	adds	r3, #4
 8003736:	68fa      	ldr	r2, [r7, #12]
 8003738:	4413      	add	r3, r2
 800373a:	ed97 7a20 	vldr	s14, [r7, #128]	@ 0x80
 800373e:	edd7 7a27 	vldr	s15, [r7, #156]	@ 0x9c
 8003742:	ee77 7a27 	vadd.f32	s15, s14, s15
 8003746:	edc3 7a00 	vstr	s15, [r3]

         i1 += n1;
 800374a:	f8d7 20e8 	ldr.w	r2, [r7, #232]	@ 0xe8
 800374e:	f8d7 30d8 	ldr.w	r3, [r7, #216]	@ 0xd8
 8003752:	4413      	add	r3, r2
 8003754:	f8c7 30e8 	str.w	r3, [r7, #232]	@ 0xe8
      } while (i1 < fftLen);
 8003758:	897b      	ldrh	r3, [r7, #10]
 800375a:	f8d7 20e8 	ldr.w	r2, [r7, #232]	@ 0xe8
 800375e:	429a      	cmp	r2, r3
 8003760:	f4ff ad0a 	bcc.w	8003178 <arm_radix8_butterfly_f32+0x40>

      if (n2 < 8)
 8003764:	f8d7 30e4 	ldr.w	r3, [r7, #228]	@ 0xe4
 8003768:	2b07      	cmp	r3, #7
 800376a:	f240 84e3 	bls.w	8004134 <arm_radix8_butterfly_f32+0xffc>
         break;

      ia1 = 0;
 800376e:	2300      	movs	r3, #0
 8003770:	f8c7 30ec 	str.w	r3, [r7, #236]	@ 0xec
      j = 1;
 8003774:	2301      	movs	r3, #1
 8003776:	f8c7 30e0 	str.w	r3, [r7, #224]	@ 0xe0

      do
      {
         /*  index calculation for the coefficients */
         id  = ia1 + twidCoefModifier;
 800377a:	893b      	ldrh	r3, [r7, #8]
 800377c:	f8d7 20ec 	ldr.w	r2, [r7, #236]	@ 0xec
 8003780:	4413      	add	r3, r2
 8003782:	67fb      	str	r3, [r7, #124]	@ 0x7c
         ia1 = id;
 8003784:	6ffb      	ldr	r3, [r7, #124]	@ 0x7c
 8003786:	f8c7 30ec 	str.w	r3, [r7, #236]	@ 0xec
         ia2 = ia1 + id;
 800378a:	f8d7 20ec 	ldr.w	r2, [r7, #236]	@ 0xec
 800378e:	6ffb      	ldr	r3, [r7, #124]	@ 0x7c
 8003790:	4413      	add	r3, r2
 8003792:	67bb      	str	r3, [r7, #120]	@ 0x78
         ia3 = ia2 + id;
 8003794:	6fba      	ldr	r2, [r7, #120]	@ 0x78
 8003796:	6ffb      	ldr	r3, [r7, #124]	@ 0x7c
 8003798:	4413      	add	r3, r2
 800379a:	677b      	str	r3, [r7, #116]	@ 0x74
         ia4 = ia3 + id;
 800379c:	6f7a      	ldr	r2, [r7, #116]	@ 0x74
 800379e:	6ffb      	ldr	r3, [r7, #124]	@ 0x7c
 80037a0:	4413      	add	r3, r2
 80037a2:	673b      	str	r3, [r7, #112]	@ 0x70
         ia5 = ia4 + id;
 80037a4:	6f3a      	ldr	r2, [r7, #112]	@ 0x70
 80037a6:	6ffb      	ldr	r3, [r7, #124]	@ 0x7c
 80037a8:	4413      	add	r3, r2
 80037aa:	66fb      	str	r3, [r7, #108]	@ 0x6c
         ia6 = ia5 + id;
 80037ac:	6efa      	ldr	r2, [r7, #108]	@ 0x6c
 80037ae:	6ffb      	ldr	r3, [r7, #124]	@ 0x7c
 80037b0:	4413      	add	r3, r2
 80037b2:	66bb      	str	r3, [r7, #104]	@ 0x68
         ia7 = ia6 + id;
 80037b4:	6eba      	ldr	r2, [r7, #104]	@ 0x68
 80037b6:	6ffb      	ldr	r3, [r7, #124]	@ 0x7c
 80037b8:	4413      	add	r3, r2
 80037ba:	667b      	str	r3, [r7, #100]	@ 0x64

         co2 = pCoef[2 * ia1];
 80037bc:	f8d7 30ec 	ldr.w	r3, [r7, #236]	@ 0xec
 80037c0:	00db      	lsls	r3, r3, #3
 80037c2:	687a      	ldr	r2, [r7, #4]
 80037c4:	4413      	add	r3, r2
 80037c6:	681b      	ldr	r3, [r3, #0]
 80037c8:	663b      	str	r3, [r7, #96]	@ 0x60
         co3 = pCoef[2 * ia2];
 80037ca:	6fbb      	ldr	r3, [r7, #120]	@ 0x78
 80037cc:	00db      	lsls	r3, r3, #3
 80037ce:	687a      	ldr	r2, [r7, #4]
 80037d0:	4413      	add	r3, r2
 80037d2:	681b      	ldr	r3, [r3, #0]
 80037d4:	65fb      	str	r3, [r7, #92]	@ 0x5c
         co4 = pCoef[2 * ia3];
 80037d6:	6f7b      	ldr	r3, [r7, #116]	@ 0x74
 80037d8:	00db      	lsls	r3, r3, #3
 80037da:	687a      	ldr	r2, [r7, #4]
 80037dc:	4413      	add	r3, r2
 80037de:	681b      	ldr	r3, [r3, #0]
 80037e0:	65bb      	str	r3, [r7, #88]	@ 0x58
         co5 = pCoef[2 * ia4];
 80037e2:	6f3b      	ldr	r3, [r7, #112]	@ 0x70
 80037e4:	00db      	lsls	r3, r3, #3
 80037e6:	687a      	ldr	r2, [r7, #4]
 80037e8:	4413      	add	r3, r2
 80037ea:	681b      	ldr	r3, [r3, #0]
 80037ec:	657b      	str	r3, [r7, #84]	@ 0x54
         co6 = pCoef[2 * ia5];
 80037ee:	6efb      	ldr	r3, [r7, #108]	@ 0x6c
 80037f0:	00db      	lsls	r3, r3, #3
 80037f2:	687a      	ldr	r2, [r7, #4]
 80037f4:	4413      	add	r3, r2
 80037f6:	681b      	ldr	r3, [r3, #0]
 80037f8:	653b      	str	r3, [r7, #80]	@ 0x50
         co7 = pCoef[2 * ia6];
 80037fa:	6ebb      	ldr	r3, [r7, #104]	@ 0x68
 80037fc:	00db      	lsls	r3, r3, #3
 80037fe:	687a      	ldr	r2, [r7, #4]
 8003800:	4413      	add	r3, r2
 8003802:	681b      	ldr	r3, [r3, #0]
 8003804:	64fb      	str	r3, [r7, #76]	@ 0x4c
         co8 = pCoef[2 * ia7];
 8003806:	6e7b      	ldr	r3, [r7, #100]	@ 0x64
 8003808:	00db      	lsls	r3, r3, #3
 800380a:	687a      	ldr	r2, [r7, #4]
 800380c:	4413      	add	r3, r2
 800380e:	681b      	ldr	r3, [r3, #0]
 8003810:	64bb      	str	r3, [r7, #72]	@ 0x48
         si2 = pCoef[2 * ia1 + 1];
 8003812:	f8d7 30ec 	ldr.w	r3, [r7, #236]	@ 0xec
 8003816:	00db      	lsls	r3, r3, #3
 8003818:	3304      	adds	r3, #4
 800381a:	687a      	ldr	r2, [r7, #4]
 800381c:	4413      	add	r3, r2
 800381e:	681b      	ldr	r3, [r3, #0]
 8003820:	647b      	str	r3, [r7, #68]	@ 0x44
         si3 = pCoef[2 * ia2 + 1];
 8003822:	6fbb      	ldr	r3, [r7, #120]	@ 0x78
 8003824:	00db      	lsls	r3, r3, #3
 8003826:	3304      	adds	r3, #4
 8003828:	687a      	ldr	r2, [r7, #4]
 800382a:	4413      	add	r3, r2
 800382c:	681b      	ldr	r3, [r3, #0]
 800382e:	643b      	str	r3, [r7, #64]	@ 0x40
         si4 = pCoef[2 * ia3 + 1];
 8003830:	6f7b      	ldr	r3, [r7, #116]	@ 0x74
 8003832:	00db      	lsls	r3, r3, #3
 8003834:	3304      	adds	r3, #4
 8003836:	687a      	ldr	r2, [r7, #4]
 8003838:	4413      	add	r3, r2
 800383a:	681b      	ldr	r3, [r3, #0]
 800383c:	63fb      	str	r3, [r7, #60]	@ 0x3c
         si5 = pCoef[2 * ia4 + 1];
 800383e:	6f3b      	ldr	r3, [r7, #112]	@ 0x70
 8003840:	00db      	lsls	r3, r3, #3
 8003842:	3304      	adds	r3, #4
 8003844:	687a      	ldr	r2, [r7, #4]
 8003846:	4413      	add	r3, r2
 8003848:	681b      	ldr	r3, [r3, #0]
 800384a:	63bb      	str	r3, [r7, #56]	@ 0x38
         si6 = pCoef[2 * ia5 + 1];
 800384c:	6efb      	ldr	r3, [r7, #108]	@ 0x6c
 800384e:	00db      	lsls	r3, r3, #3
 8003850:	3304      	adds	r3, #4
 8003852:	687a      	ldr	r2, [r7, #4]
 8003854:	4413      	add	r3, r2
 8003856:	681b      	ldr	r3, [r3, #0]
 8003858:	637b      	str	r3, [r7, #52]	@ 0x34
         si7 = pCoef[2 * ia6 + 1];
 800385a:	6ebb      	ldr	r3, [r7, #104]	@ 0x68
 800385c:	00db      	lsls	r3, r3, #3
 800385e:	3304      	adds	r3, #4
 8003860:	687a      	ldr	r2, [r7, #4]
 8003862:	4413      	add	r3, r2
 8003864:	681b      	ldr	r3, [r3, #0]
 8003866:	633b      	str	r3, [r7, #48]	@ 0x30
         si8 = pCoef[2 * ia7 + 1];
 8003868:	6e7b      	ldr	r3, [r7, #100]	@ 0x64
 800386a:	00db      	lsls	r3, r3, #3
 800386c:	3304      	adds	r3, #4
 800386e:	687a      	ldr	r2, [r7, #4]
 8003870:	4413      	add	r3, r2
 8003872:	681b      	ldr	r3, [r3, #0]
 8003874:	62fb      	str	r3, [r7, #44]	@ 0x2c

         i1 = j;
 8003876:	f8d7 30e0 	ldr.w	r3, [r7, #224]	@ 0xe0
 800387a:	f8c7 30e8 	str.w	r3, [r7, #232]	@ 0xe8

         do
         {
            /*  index calculation for the input */
            i2 = i1 + n2;
 800387e:	f8d7 20e8 	ldr.w	r2, [r7, #232]	@ 0xe8
 8003882:	f8d7 30e4 	ldr.w	r3, [r7, #228]	@ 0xe4
 8003886:	4413      	add	r3, r2
 8003888:	f8c7 30d4 	str.w	r3, [r7, #212]	@ 0xd4
            i3 = i2 + n2;
 800388c:	f8d7 20d4 	ldr.w	r2, [r7, #212]	@ 0xd4
 8003890:	f8d7 30e4 	ldr.w	r3, [r7, #228]	@ 0xe4
 8003894:	4413      	add	r3, r2
 8003896:	f8c7 30d0 	str.w	r3, [r7, #208]	@ 0xd0
            i4 = i3 + n2;
 800389a:	f8d7 20d0 	ldr.w	r2, [r7, #208]	@ 0xd0
 800389e:	f8d7 30e4 	ldr.w	r3, [r7, #228]	@ 0xe4
 80038a2:	4413      	add	r3, r2
 80038a4:	f8c7 30cc 	str.w	r3, [r7, #204]	@ 0xcc
            i5 = i4 + n2;
 80038a8:	f8d7 20cc 	ldr.w	r2, [r7, #204]	@ 0xcc
 80038ac:	f8d7 30e4 	ldr.w	r3, [r7, #228]	@ 0xe4
 80038b0:	4413      	add	r3, r2
 80038b2:	f8c7 30c8 	str.w	r3, [r7, #200]	@ 0xc8
            i6 = i5 + n2;
 80038b6:	f8d7 20c8 	ldr.w	r2, [r7, #200]	@ 0xc8
 80038ba:	f8d7 30e4 	ldr.w	r3, [r7, #228]	@ 0xe4
 80038be:	4413      	add	r3, r2
 80038c0:	f8c7 30c4 	str.w	r3, [r7, #196]	@ 0xc4
            i7 = i6 + n2;
 80038c4:	f8d7 20c4 	ldr.w	r2, [r7, #196]	@ 0xc4
 80038c8:	f8d7 30e4 	ldr.w	r3, [r7, #228]	@ 0xe4
 80038cc:	4413      	add	r3, r2
 80038ce:	f8c7 30c0 	str.w	r3, [r7, #192]	@ 0xc0
            i8 = i7 + n2;
 80038d2:	f8d7 20c0 	ldr.w	r2, [r7, #192]	@ 0xc0
 80038d6:	f8d7 30e4 	ldr.w	r3, [r7, #228]	@ 0xe4
 80038da:	4413      	add	r3, r2
 80038dc:	f8c7 30bc 	str.w	r3, [r7, #188]	@ 0xbc
            r1 = pSrc[2 * i1] + pSrc[2 * i5];
 80038e0:	f8d7 30e8 	ldr.w	r3, [r7, #232]	@ 0xe8
 80038e4:	00db      	lsls	r3, r3, #3
 80038e6:	68fa      	ldr	r2, [r7, #12]
 80038e8:	4413      	add	r3, r2
 80038ea:	ed93 7a00 	vldr	s14, [r3]
 80038ee:	f8d7 30c8 	ldr.w	r3, [r7, #200]	@ 0xc8
 80038f2:	00db      	lsls	r3, r3, #3
 80038f4:	68fa      	ldr	r2, [r7, #12]
 80038f6:	4413      	add	r3, r2
 80038f8:	edd3 7a00 	vldr	s15, [r3]
 80038fc:	ee77 7a27 	vadd.f32	s15, s14, s15
 8003900:	edc7 7a2e 	vstr	s15, [r7, #184]	@ 0xb8
            r5 = pSrc[2 * i1] - pSrc[2 * i5];
 8003904:	f8d7 30e8 	ldr.w	r3, [r7, #232]	@ 0xe8
 8003908:	00db      	lsls	r3, r3, #3
 800390a:	68fa      	ldr	r2, [r7, #12]
 800390c:	4413      	add	r3, r2
 800390e:	ed93 7a00 	vldr	s14, [r3]
 8003912:	f8d7 30c8 	ldr.w	r3, [r7, #200]	@ 0xc8
 8003916:	00db      	lsls	r3, r3, #3
 8003918:	68fa      	ldr	r2, [r7, #12]
 800391a:	4413      	add	r3, r2
 800391c:	edd3 7a00 	vldr	s15, [r3]
 8003920:	ee77 7a67 	vsub.f32	s15, s14, s15
 8003924:	edc7 7a2d 	vstr	s15, [r7, #180]	@ 0xb4
            r2 = pSrc[2 * i2] + pSrc[2 * i6];
 8003928:	f8d7 30d4 	ldr.w	r3, [r7, #212]	@ 0xd4
 800392c:	00db      	lsls	r3, r3, #3
 800392e:	68fa      	ldr	r2, [r7, #12]
 8003930:	4413      	add	r3, r2
 8003932:	ed93 7a00 	vldr	s14, [r3]
 8003936:	f8d7 30c4 	ldr.w	r3, [r7, #196]	@ 0xc4
 800393a:	00db      	lsls	r3, r3, #3
 800393c:	68fa      	ldr	r2, [r7, #12]
 800393e:	4413      	add	r3, r2
 8003940:	edd3 7a00 	vldr	s15, [r3]
 8003944:	ee77 7a27 	vadd.f32	s15, s14, s15
 8003948:	edc7 7a2c 	vstr	s15, [r7, #176]	@ 0xb0
            r6 = pSrc[2 * i2] - pSrc[2 * i6];
 800394c:	f8d7 30d4 	ldr.w	r3, [r7, #212]	@ 0xd4
 8003950:	00db      	lsls	r3, r3, #3
 8003952:	68fa      	ldr	r2, [r7, #12]
 8003954:	4413      	add	r3, r2
 8003956:	ed93 7a00 	vldr	s14, [r3]
 800395a:	f8d7 30c4 	ldr.w	r3, [r7, #196]	@ 0xc4
 800395e:	00db      	lsls	r3, r3, #3
 8003960:	68fa      	ldr	r2, [r7, #12]
 8003962:	4413      	add	r3, r2
 8003964:	edd3 7a00 	vldr	s15, [r3]
 8003968:	ee77 7a67 	vsub.f32	s15, s14, s15
 800396c:	edc7 7a2b 	vstr	s15, [r7, #172]	@ 0xac
            r3 = pSrc[2 * i3] + pSrc[2 * i7];
 8003970:	f8d7 30d0 	ldr.w	r3, [r7, #208]	@ 0xd0
 8003974:	00db      	lsls	r3, r3, #3
 8003976:	68fa      	ldr	r2, [r7, #12]
 8003978:	4413      	add	r3, r2
 800397a:	ed93 7a00 	vldr	s14, [r3]
 800397e:	f8d7 30c0 	ldr.w	r3, [r7, #192]	@ 0xc0
 8003982:	00db      	lsls	r3, r3, #3
 8003984:	68fa      	ldr	r2, [r7, #12]
 8003986:	4413      	add	r3, r2
 8003988:	edd3 7a00 	vldr	s15, [r3]
 800398c:	ee77 7a27 	vadd.f32	s15, s14, s15
 8003990:	edc7 7a2a 	vstr	s15, [r7, #168]	@ 0xa8
            r7 = pSrc[2 * i3] - pSrc[2 * i7];
 8003994:	f8d7 30d0 	ldr.w	r3, [r7, #208]	@ 0xd0
 8003998:	00db      	lsls	r3, r3, #3
 800399a:	68fa      	ldr	r2, [r7, #12]
 800399c:	4413      	add	r3, r2
 800399e:	ed93 7a00 	vldr	s14, [r3]
 80039a2:	f8d7 30c0 	ldr.w	r3, [r7, #192]	@ 0xc0
 80039a6:	00db      	lsls	r3, r3, #3
 80039a8:	68fa      	ldr	r2, [r7, #12]
 80039aa:	4413      	add	r3, r2
 80039ac:	edd3 7a00 	vldr	s15, [r3]
 80039b0:	ee77 7a67 	vsub.f32	s15, s14, s15
 80039b4:	edc7 7a29 	vstr	s15, [r7, #164]	@ 0xa4
            r4 = pSrc[2 * i4] + pSrc[2 * i8];
 80039b8:	f8d7 30cc 	ldr.w	r3, [r7, #204]	@ 0xcc
 80039bc:	00db      	lsls	r3, r3, #3
 80039be:	68fa      	ldr	r2, [r7, #12]
 80039c0:	4413      	add	r3, r2
 80039c2:	ed93 7a00 	vldr	s14, [r3]
 80039c6:	f8d7 30bc 	ldr.w	r3, [r7, #188]	@ 0xbc
 80039ca:	00db      	lsls	r3, r3, #3
 80039cc:	68fa      	ldr	r2, [r7, #12]
 80039ce:	4413      	add	r3, r2
 80039d0:	edd3 7a00 	vldr	s15, [r3]
 80039d4:	ee77 7a27 	vadd.f32	s15, s14, s15
 80039d8:	edc7 7a28 	vstr	s15, [r7, #160]	@ 0xa0
            r8 = pSrc[2 * i4] - pSrc[2 * i8];
 80039dc:	f8d7 30cc 	ldr.w	r3, [r7, #204]	@ 0xcc
 80039e0:	00db      	lsls	r3, r3, #3
 80039e2:	68fa      	ldr	r2, [r7, #12]
 80039e4:	4413      	add	r3, r2
 80039e6:	ed93 7a00 	vldr	s14, [r3]
 80039ea:	f8d7 30bc 	ldr.w	r3, [r7, #188]	@ 0xbc
 80039ee:	00db      	lsls	r3, r3, #3
 80039f0:	68fa      	ldr	r2, [r7, #12]
 80039f2:	4413      	add	r3, r2
 80039f4:	edd3 7a00 	vldr	s15, [r3]
 80039f8:	ee77 7a67 	vsub.f32	s15, s14, s15
 80039fc:	edc7 7a27 	vstr	s15, [r7, #156]	@ 0x9c
            t1 = r1 - r3;
 8003a00:	ed97 7a2e 	vldr	s14, [r7, #184]	@ 0xb8
 8003a04:	edd7 7a2a 	vldr	s15, [r7, #168]	@ 0xa8
 8003a08:	ee77 7a67 	vsub.f32	s15, s14, s15
 8003a0c:	edc7 7a26 	vstr	s15, [r7, #152]	@ 0x98
            r1 = r1 + r3;
 8003a10:	ed97 7a2e 	vldr	s14, [r7, #184]	@ 0xb8
 8003a14:	edd7 7a2a 	vldr	s15, [r7, #168]	@ 0xa8
 8003a18:	ee77 7a27 	vadd.f32	s15, s14, s15
 8003a1c:	edc7 7a2e 	vstr	s15, [r7, #184]	@ 0xb8
            r3 = r2 - r4;
 8003a20:	ed97 7a2c 	vldr	s14, [r7, #176]	@ 0xb0
 8003a24:	edd7 7a28 	vldr	s15, [r7, #160]	@ 0xa0
 8003a28:	ee77 7a67 	vsub.f32	s15, s14, s15
 8003a2c:	edc7 7a2a 	vstr	s15, [r7, #168]	@ 0xa8
            r2 = r2 + r4;
 8003a30:	ed97 7a2c 	vldr	s14, [r7, #176]	@ 0xb0
 8003a34:	edd7 7a28 	vldr	s15, [r7, #160]	@ 0xa0
 8003a38:	ee77 7a27 	vadd.f32	s15, s14, s15
 8003a3c:	edc7 7a2c 	vstr	s15, [r7, #176]	@ 0xb0
            pSrc[2 * i1] = r1 + r2;
 8003a40:	f8d7 30e8 	ldr.w	r3, [r7, #232]	@ 0xe8
 8003a44:	00db      	lsls	r3, r3, #3
 8003a46:	68fa      	ldr	r2, [r7, #12]
 8003a48:	4413      	add	r3, r2
 8003a4a:	ed97 7a2e 	vldr	s14, [r7, #184]	@ 0xb8
 8003a4e:	edd7 7a2c 	vldr	s15, [r7, #176]	@ 0xb0
 8003a52:	ee77 7a27 	vadd.f32	s15, s14, s15
 8003a56:	edc3 7a00 	vstr	s15, [r3]
            r2 = r1 - r2;
 8003a5a:	ed97 7a2e 	vldr	s14, [r7, #184]	@ 0xb8
 8003a5e:	edd7 7a2c 	vldr	s15, [r7, #176]	@ 0xb0
 8003a62:	ee77 7a67 	vsub.f32	s15, s14, s15
 8003a66:	edc7 7a2c 	vstr	s15, [r7, #176]	@ 0xb0
            s1 = pSrc[2 * i1 + 1] + pSrc[2 * i5 + 1];
 8003a6a:	f8d7 30e8 	ldr.w	r3, [r7, #232]	@ 0xe8
 8003a6e:	00db      	lsls	r3, r3, #3
 8003a70:	3304      	adds	r3, #4
 8003a72:	68fa      	ldr	r2, [r7, #12]
 8003a74:	4413      	add	r3, r2
 8003a76:	ed93 7a00 	vldr	s14, [r3]
 8003a7a:	f8d7 30c8 	ldr.w	r3, [r7, #200]	@ 0xc8
 8003a7e:	00db      	lsls	r3, r3, #3
 8003a80:	3304      	adds	r3, #4
 8003a82:	68fa      	ldr	r2, [r7, #12]
 8003a84:	4413      	add	r3, r2
 8003a86:	edd3 7a00 	vldr	s15, [r3]
 8003a8a:	ee77 7a27 	vadd.f32	s15, s14, s15
 8003a8e:	edc7 7a0a 	vstr	s15, [r7, #40]	@ 0x28
            s5 = pSrc[2 * i1 + 1] - pSrc[2 * i5 + 1];
 8003a92:	f8d7 30e8 	ldr.w	r3, [r7, #232]	@ 0xe8
 8003a96:	00db      	lsls	r3, r3, #3
 8003a98:	3304      	adds	r3, #4
 8003a9a:	68fa      	ldr	r2, [r7, #12]
 8003a9c:	4413      	add	r3, r2
 8003a9e:	ed93 7a00 	vldr	s14, [r3]
 8003aa2:	f8d7 30c8 	ldr.w	r3, [r7, #200]	@ 0xc8
 8003aa6:	00db      	lsls	r3, r3, #3
 8003aa8:	3304      	adds	r3, #4
 8003aaa:	68fa      	ldr	r2, [r7, #12]
 8003aac:	4413      	add	r3, r2
 8003aae:	edd3 7a00 	vldr	s15, [r3]
 8003ab2:	ee77 7a67 	vsub.f32	s15, s14, s15
 8003ab6:	edc7 7a25 	vstr	s15, [r7, #148]	@ 0x94
            s2 = pSrc[2 * i2 + 1] + pSrc[2 * i6 + 1];
 8003aba:	f8d7 30d4 	ldr.w	r3, [r7, #212]	@ 0xd4
 8003abe:	00db      	lsls	r3, r3, #3
 8003ac0:	3304      	adds	r3, #4
 8003ac2:	68fa      	ldr	r2, [r7, #12]
 8003ac4:	4413      	add	r3, r2
 8003ac6:	ed93 7a00 	vldr	s14, [r3]
 8003aca:	f8d7 30c4 	ldr.w	r3, [r7, #196]	@ 0xc4
 8003ace:	00db      	lsls	r3, r3, #3
 8003ad0:	3304      	adds	r3, #4
 8003ad2:	68fa      	ldr	r2, [r7, #12]
 8003ad4:	4413      	add	r3, r2
 8003ad6:	edd3 7a00 	vldr	s15, [r3]
 8003ada:	ee77 7a27 	vadd.f32	s15, s14, s15
 8003ade:	edc7 7a09 	vstr	s15, [r7, #36]	@ 0x24
            s6 = pSrc[2 * i2 + 1] - pSrc[2 * i6 + 1];
 8003ae2:	f8d7 30d4 	ldr.w	r3, [r7, #212]	@ 0xd4
 8003ae6:	00db      	lsls	r3, r3, #3
 8003ae8:	3304      	adds	r3, #4
 8003aea:	68fa      	ldr	r2, [r7, #12]
 8003aec:	4413      	add	r3, r2
 8003aee:	ed93 7a00 	vldr	s14, [r3]
 8003af2:	f8d7 30c4 	ldr.w	r3, [r7, #196]	@ 0xc4
 8003af6:	00db      	lsls	r3, r3, #3
 8003af8:	3304      	adds	r3, #4
 8003afa:	68fa      	ldr	r2, [r7, #12]
 8003afc:	4413      	add	r3, r2
 8003afe:	edd3 7a00 	vldr	s15, [r3]
 8003b02:	ee77 7a67 	vsub.f32	s15, s14, s15
 8003b06:	edc7 7a24 	vstr	s15, [r7, #144]	@ 0x90
            s3 = pSrc[2 * i3 + 1] + pSrc[2 * i7 + 1];
 8003b0a:	f8d7 30d0 	ldr.w	r3, [r7, #208]	@ 0xd0
 8003b0e:	00db      	lsls	r3, r3, #3
 8003b10:	3304      	adds	r3, #4
 8003b12:	68fa      	ldr	r2, [r7, #12]
 8003b14:	4413      	add	r3, r2
 8003b16:	ed93 7a00 	vldr	s14, [r3]
 8003b1a:	f8d7 30c0 	ldr.w	r3, [r7, #192]	@ 0xc0
 8003b1e:	00db      	lsls	r3, r3, #3
 8003b20:	3304      	adds	r3, #4
 8003b22:	68fa      	ldr	r2, [r7, #12]
 8003b24:	4413      	add	r3, r2
 8003b26:	edd3 7a00 	vldr	s15, [r3]
 8003b2a:	ee77 7a27 	vadd.f32	s15, s14, s15
 8003b2e:	edc7 7a23 	vstr	s15, [r7, #140]	@ 0x8c
            s7 = pSrc[2 * i3 + 1] - pSrc[2 * i7 + 1];
 8003b32:	f8d7 30d0 	ldr.w	r3, [r7, #208]	@ 0xd0
 8003b36:	00db      	lsls	r3, r3, #3
 8003b38:	3304      	adds	r3, #4
 8003b3a:	68fa      	ldr	r2, [r7, #12]
 8003b3c:	4413      	add	r3, r2
 8003b3e:	ed93 7a00 	vldr	s14, [r3]
 8003b42:	f8d7 30c0 	ldr.w	r3, [r7, #192]	@ 0xc0
 8003b46:	00db      	lsls	r3, r3, #3
 8003b48:	3304      	adds	r3, #4
 8003b4a:	68fa      	ldr	r2, [r7, #12]
 8003b4c:	4413      	add	r3, r2
 8003b4e:	edd3 7a00 	vldr	s15, [r3]
 8003b52:	ee77 7a67 	vsub.f32	s15, s14, s15
 8003b56:	edc7 7a22 	vstr	s15, [r7, #136]	@ 0x88
            s4 = pSrc[2 * i4 + 1] + pSrc[2 * i8 + 1];
 8003b5a:	f8d7 30cc 	ldr.w	r3, [r7, #204]	@ 0xcc
 8003b5e:	00db      	lsls	r3, r3, #3
 8003b60:	3304      	adds	r3, #4
 8003b62:	68fa      	ldr	r2, [r7, #12]
 8003b64:	4413      	add	r3, r2
 8003b66:	ed93 7a00 	vldr	s14, [r3]
 8003b6a:	f8d7 30bc 	ldr.w	r3, [r7, #188]	@ 0xbc
 8003b6e:	00db      	lsls	r3, r3, #3
 8003b70:	3304      	adds	r3, #4
 8003b72:	68fa      	ldr	r2, [r7, #12]
 8003b74:	4413      	add	r3, r2
 8003b76:	edd3 7a00 	vldr	s15, [r3]
 8003b7a:	ee77 7a27 	vadd.f32	s15, s14, s15
 8003b7e:	edc7 7a08 	vstr	s15, [r7, #32]
            s8 = pSrc[2 * i4 + 1] - pSrc[2 * i8 + 1];
 8003b82:	f8d7 30cc 	ldr.w	r3, [r7, #204]	@ 0xcc
 8003b86:	00db      	lsls	r3, r3, #3
 8003b88:	3304      	adds	r3, #4
 8003b8a:	68fa      	ldr	r2, [r7, #12]
 8003b8c:	4413      	add	r3, r2
 8003b8e:	ed93 7a00 	vldr	s14, [r3]
 8003b92:	f8d7 30bc 	ldr.w	r3, [r7, #188]	@ 0xbc
 8003b96:	00db      	lsls	r3, r3, #3
 8003b98:	3304      	adds	r3, #4
 8003b9a:	68fa      	ldr	r2, [r7, #12]
 8003b9c:	4413      	add	r3, r2
 8003b9e:	edd3 7a00 	vldr	s15, [r3]
 8003ba2:	ee77 7a67 	vsub.f32	s15, s14, s15
 8003ba6:	edc7 7a21 	vstr	s15, [r7, #132]	@ 0x84
            t2 = s1 - s3;
 8003baa:	ed97 7a0a 	vldr	s14, [r7, #40]	@ 0x28
 8003bae:	edd7 7a23 	vldr	s15, [r7, #140]	@ 0x8c
 8003bb2:	ee77 7a67 	vsub.f32	s15, s14, s15
 8003bb6:	edc7 7a20 	vstr	s15, [r7, #128]	@ 0x80
            s1 = s1 + s3;
 8003bba:	ed97 7a0a 	vldr	s14, [r7, #40]	@ 0x28
 8003bbe:	edd7 7a23 	vldr	s15, [r7, #140]	@ 0x8c
 8003bc2:	ee77 7a27 	vadd.f32	s15, s14, s15
 8003bc6:	edc7 7a0a 	vstr	s15, [r7, #40]	@ 0x28
            s3 = s2 - s4;
 8003bca:	ed97 7a09 	vldr	s14, [r7, #36]	@ 0x24
 8003bce:	edd7 7a08 	vldr	s15, [r7, #32]
 8003bd2:	ee77 7a67 	vsub.f32	s15, s14, s15
 8003bd6:	edc7 7a23 	vstr	s15, [r7, #140]	@ 0x8c
            s2 = s2 + s4;
 8003bda:	ed97 7a09 	vldr	s14, [r7, #36]	@ 0x24
 8003bde:	edd7 7a08 	vldr	s15, [r7, #32]
 8003be2:	ee77 7a27 	vadd.f32	s15, s14, s15
 8003be6:	edc7 7a09 	vstr	s15, [r7, #36]	@ 0x24
            r1 = t1 + s3;
 8003bea:	ed97 7a26 	vldr	s14, [r7, #152]	@ 0x98
 8003bee:	edd7 7a23 	vldr	s15, [r7, #140]	@ 0x8c
 8003bf2:	ee77 7a27 	vadd.f32	s15, s14, s15
 8003bf6:	edc7 7a2e 	vstr	s15, [r7, #184]	@ 0xb8
            t1 = t1 - s3;
 8003bfa:	ed97 7a26 	vldr	s14, [r7, #152]	@ 0x98
 8003bfe:	edd7 7a23 	vldr	s15, [r7, #140]	@ 0x8c
 8003c02:	ee77 7a67 	vsub.f32	s15, s14, s15
 8003c06:	edc7 7a26 	vstr	s15, [r7, #152]	@ 0x98
            pSrc[2 * i1 + 1] = s1 + s2;
 8003c0a:	f8d7 30e8 	ldr.w	r3, [r7, #232]	@ 0xe8
 8003c0e:	00db      	lsls	r3, r3, #3
 8003c10:	3304      	adds	r3, #4
 8003c12:	68fa      	ldr	r2, [r7, #12]
 8003c14:	4413      	add	r3, r2
 8003c16:	ed97 7a0a 	vldr	s14, [r7, #40]	@ 0x28
 8003c1a:	edd7 7a09 	vldr	s15, [r7, #36]	@ 0x24
 8003c1e:	ee77 7a27 	vadd.f32	s15, s14, s15
 8003c22:	edc3 7a00 	vstr	s15, [r3]
            s2 = s1 - s2;
 8003c26:	ed97 7a0a 	vldr	s14, [r7, #40]	@ 0x28
 8003c2a:	edd7 7a09 	vldr	s15, [r7, #36]	@ 0x24
 8003c2e:	ee77 7a67 	vsub.f32	s15, s14, s15
 8003c32:	edc7 7a09 	vstr	s15, [r7, #36]	@ 0x24
            s1 = t2 - r3;
 8003c36:	ed97 7a20 	vldr	s14, [r7, #128]	@ 0x80
 8003c3a:	edd7 7a2a 	vldr	s15, [r7, #168]	@ 0xa8
 8003c3e:	ee77 7a67 	vsub.f32	s15, s14, s15
 8003c42:	edc7 7a0a 	vstr	s15, [r7, #40]	@ 0x28
            t2 = t2 + r3;
 8003c46:	ed97 7a20 	vldr	s14, [r7, #128]	@ 0x80
 8003c4a:	edd7 7a2a 	vldr	s15, [r7, #168]	@ 0xa8
 8003c4e:	ee77 7a27 	vadd.f32	s15, s14, s15
 8003c52:	edc7 7a20 	vstr	s15, [r7, #128]	@ 0x80
            p1 = co5 * r2;
 8003c56:	ed97 7a15 	vldr	s14, [r7, #84]	@ 0x54
 8003c5a:	edd7 7a2c 	vldr	s15, [r7, #176]	@ 0xb0
 8003c5e:	ee67 7a27 	vmul.f32	s15, s14, s15
 8003c62:	edc7 7a07 	vstr	s15, [r7, #28]
            p2 = si5 * s2;
 8003c66:	ed97 7a0e 	vldr	s14, [r7, #56]	@ 0x38
 8003c6a:	edd7 7a09 	vldr	s15, [r7, #36]	@ 0x24
 8003c6e:	ee67 7a27 	vmul.f32	s15, s14, s15
 8003c72:	edc7 7a06 	vstr	s15, [r7, #24]
            p3 = co5 * s2;
 8003c76:	ed97 7a15 	vldr	s14, [r7, #84]	@ 0x54
 8003c7a:	edd7 7a09 	vldr	s15, [r7, #36]	@ 0x24
 8003c7e:	ee67 7a27 	vmul.f32	s15, s14, s15
 8003c82:	edc7 7a05 	vstr	s15, [r7, #20]
            p4 = si5 * r2;
 8003c86:	ed97 7a0e 	vldr	s14, [r7, #56]	@ 0x38
 8003c8a:	edd7 7a2c 	vldr	s15, [r7, #176]	@ 0xb0
 8003c8e:	ee67 7a27 	vmul.f32	s15, s14, s15
 8003c92:	edc7 7a04 	vstr	s15, [r7, #16]
            pSrc[2 * i5]     = p1 + p2;
 8003c96:	f8d7 30c8 	ldr.w	r3, [r7, #200]	@ 0xc8
 8003c9a:	00db      	lsls	r3, r3, #3
 8003c9c:	68fa      	ldr	r2, [r7, #12]
 8003c9e:	4413      	add	r3, r2
 8003ca0:	ed97 7a07 	vldr	s14, [r7, #28]
 8003ca4:	edd7 7a06 	vldr	s15, [r7, #24]
 8003ca8:	ee77 7a27 	vadd.f32	s15, s14, s15
 8003cac:	edc3 7a00 	vstr	s15, [r3]
            pSrc[2 * i5 + 1] = p3 - p4;
 8003cb0:	f8d7 30c8 	ldr.w	r3, [r7, #200]	@ 0xc8
 8003cb4:	00db      	lsls	r3, r3, #3
 8003cb6:	3304      	adds	r3, #4
 8003cb8:	68fa      	ldr	r2, [r7, #12]
 8003cba:	4413      	add	r3, r2
 8003cbc:	ed97 7a05 	vldr	s14, [r7, #20]
 8003cc0:	edd7 7a04 	vldr	s15, [r7, #16]
 8003cc4:	ee77 7a67 	vsub.f32	s15, s14, s15
 8003cc8:	edc3 7a00 	vstr	s15, [r3]
            p1 = co3 * r1;
 8003ccc:	ed97 7a17 	vldr	s14, [r7, #92]	@ 0x5c
 8003cd0:	edd7 7a2e 	vldr	s15, [r7, #184]	@ 0xb8
 8003cd4:	ee67 7a27 	vmul.f32	s15, s14, s15
 8003cd8:	edc7 7a07 	vstr	s15, [r7, #28]
            p2 = si3 * s1;
 8003cdc:	ed97 7a10 	vldr	s14, [r7, #64]	@ 0x40
 8003ce0:	edd7 7a0a 	vldr	s15, [r7, #40]	@ 0x28
 8003ce4:	ee67 7a27 	vmul.f32	s15, s14, s15
 8003ce8:	edc7 7a06 	vstr	s15, [r7, #24]
            p3 = co3 * s1;
 8003cec:	ed97 7a17 	vldr	s14, [r7, #92]	@ 0x5c
 8003cf0:	edd7 7a0a 	vldr	s15, [r7, #40]	@ 0x28
 8003cf4:	ee67 7a27 	vmul.f32	s15, s14, s15
 8003cf8:	edc7 7a05 	vstr	s15, [r7, #20]
            p4 = si3 * r1;
 8003cfc:	ed97 7a10 	vldr	s14, [r7, #64]	@ 0x40
 8003d00:	edd7 7a2e 	vldr	s15, [r7, #184]	@ 0xb8
 8003d04:	ee67 7a27 	vmul.f32	s15, s14, s15
 8003d08:	edc7 7a04 	vstr	s15, [r7, #16]
            pSrc[2 * i3]     = p1 + p2;
 8003d0c:	f8d7 30d0 	ldr.w	r3, [r7, #208]	@ 0xd0
 8003d10:	00db      	lsls	r3, r3, #3
 8003d12:	68fa      	ldr	r2, [r7, #12]
 8003d14:	4413      	add	r3, r2
 8003d16:	ed97 7a07 	vldr	s14, [r7, #28]
 8003d1a:	edd7 7a06 	vldr	s15, [r7, #24]
 8003d1e:	ee77 7a27 	vadd.f32	s15, s14, s15
 8003d22:	edc3 7a00 	vstr	s15, [r3]
            pSrc[2 * i3 + 1] = p3 - p4;
 8003d26:	f8d7 30d0 	ldr.w	r3, [r7, #208]	@ 0xd0
 8003d2a:	00db      	lsls	r3, r3, #3
 8003d2c:	3304      	adds	r3, #4
 8003d2e:	68fa      	ldr	r2, [r7, #12]
 8003d30:	4413      	add	r3, r2
 8003d32:	ed97 7a05 	vldr	s14, [r7, #20]
 8003d36:	edd7 7a04 	vldr	s15, [r7, #16]
 8003d3a:	ee77 7a67 	vsub.f32	s15, s14, s15
 8003d3e:	edc3 7a00 	vstr	s15, [r3]
            p1 = co7 * t1;
 8003d42:	ed97 7a13 	vldr	s14, [r7, #76]	@ 0x4c
 8003d46:	edd7 7a26 	vldr	s15, [r7, #152]	@ 0x98
 8003d4a:	ee67 7a27 	vmul.f32	s15, s14, s15
 8003d4e:	edc7 7a07 	vstr	s15, [r7, #28]
            p2 = si7 * t2;
 8003d52:	ed97 7a0c 	vldr	s14, [r7, #48]	@ 0x30
 8003d56:	edd7 7a20 	vldr	s15, [r7, #128]	@ 0x80
 8003d5a:	ee67 7a27 	vmul.f32	s15, s14, s15
 8003d5e:	edc7 7a06 	vstr	s15, [r7, #24]
            p3 = co7 * t2;
 8003d62:	ed97 7a13 	vldr	s14, [r7, #76]	@ 0x4c
 8003d66:	edd7 7a20 	vldr	s15, [r7, #128]	@ 0x80
 8003d6a:	ee67 7a27 	vmul.f32	s15, s14, s15
 8003d6e:	edc7 7a05 	vstr	s15, [r7, #20]
            p4 = si7 * t1;
 8003d72:	ed97 7a0c 	vldr	s14, [r7, #48]	@ 0x30
 8003d76:	edd7 7a26 	vldr	s15, [r7, #152]	@ 0x98
 8003d7a:	ee67 7a27 	vmul.f32	s15, s14, s15
 8003d7e:	edc7 7a04 	vstr	s15, [r7, #16]
            pSrc[2 * i7]     = p1 + p2;
 8003d82:	f8d7 30c0 	ldr.w	r3, [r7, #192]	@ 0xc0
 8003d86:	00db      	lsls	r3, r3, #3
 8003d88:	68fa      	ldr	r2, [r7, #12]
 8003d8a:	4413      	add	r3, r2
 8003d8c:	ed97 7a07 	vldr	s14, [r7, #28]
 8003d90:	edd7 7a06 	vldr	s15, [r7, #24]
 8003d94:	ee77 7a27 	vadd.f32	s15, s14, s15
 8003d98:	edc3 7a00 	vstr	s15, [r3]
            pSrc[2 * i7 + 1] = p3 - p4;
 8003d9c:	f8d7 30c0 	ldr.w	r3, [r7, #192]	@ 0xc0
 8003da0:	00db      	lsls	r3, r3, #3
 8003da2:	3304      	adds	r3, #4
 8003da4:	68fa      	ldr	r2, [r7, #12]
 8003da6:	4413      	add	r3, r2
 8003da8:	ed97 7a05 	vldr	s14, [r7, #20]
 8003dac:	edd7 7a04 	vldr	s15, [r7, #16]
 8003db0:	ee77 7a67 	vsub.f32	s15, s14, s15
 8003db4:	edc3 7a00 	vstr	s15, [r3]
            r1 = (r6 - r8) * C81;
 8003db8:	ed97 7a2b 	vldr	s14, [r7, #172]	@ 0xac
 8003dbc:	edd7 7a27 	vldr	s15, [r7, #156]	@ 0x9c
 8003dc0:	ee77 7a67 	vsub.f32	s15, s14, s15
 8003dc4:	ed97 7a37 	vldr	s14, [r7, #220]	@ 0xdc
 8003dc8:	ee67 7a27 	vmul.f32	s15, s14, s15
 8003dcc:	edc7 7a2e 	vstr	s15, [r7, #184]	@ 0xb8
            r6 = (r6 + r8) * C81;
 8003dd0:	ed97 7a2b 	vldr	s14, [r7, #172]	@ 0xac
 8003dd4:	edd7 7a27 	vldr	s15, [r7, #156]	@ 0x9c
 8003dd8:	ee77 7a27 	vadd.f32	s15, s14, s15
 8003ddc:	ed97 7a37 	vldr	s14, [r7, #220]	@ 0xdc
 8003de0:	ee67 7a27 	vmul.f32	s15, s14, s15
 8003de4:	edc7 7a2b 	vstr	s15, [r7, #172]	@ 0xac
            s1 = (s6 - s8) * C81;
 8003de8:	ed97 7a24 	vldr	s14, [r7, #144]	@ 0x90
 8003dec:	edd7 7a21 	vldr	s15, [r7, #132]	@ 0x84
 8003df0:	ee77 7a67 	vsub.f32	s15, s14, s15
 8003df4:	ed97 7a37 	vldr	s14, [r7, #220]	@ 0xdc
 8003df8:	ee67 7a27 	vmul.f32	s15, s14, s15
 8003dfc:	edc7 7a0a 	vstr	s15, [r7, #40]	@ 0x28
            s6 = (s6 + s8) * C81;
 8003e00:	ed97 7a24 	vldr	s14, [r7, #144]	@ 0x90
 8003e04:	edd7 7a21 	vldr	s15, [r7, #132]	@ 0x84
 8003e08:	ee77 7a27 	vadd.f32	s15, s14, s15
 8003e0c:	ed97 7a37 	vldr	s14, [r7, #220]	@ 0xdc
 8003e10:	ee67 7a27 	vmul.f32	s15, s14, s15
 8003e14:	edc7 7a24 	vstr	s15, [r7, #144]	@ 0x90
            t1 = r5 - r1;
 8003e18:	ed97 7a2d 	vldr	s14, [r7, #180]	@ 0xb4
 8003e1c:	edd7 7a2e 	vldr	s15, [r7, #184]	@ 0xb8
 8003e20:	ee77 7a67 	vsub.f32	s15, s14, s15
 8003e24:	edc7 7a26 	vstr	s15, [r7, #152]	@ 0x98
            r5 = r5 + r1;
 8003e28:	ed97 7a2d 	vldr	s14, [r7, #180]	@ 0xb4
 8003e2c:	edd7 7a2e 	vldr	s15, [r7, #184]	@ 0xb8
 8003e30:	ee77 7a27 	vadd.f32	s15, s14, s15
 8003e34:	edc7 7a2d 	vstr	s15, [r7, #180]	@ 0xb4
            r8 = r7 - r6;
 8003e38:	ed97 7a29 	vldr	s14, [r7, #164]	@ 0xa4
 8003e3c:	edd7 7a2b 	vldr	s15, [r7, #172]	@ 0xac
 8003e40:	ee77 7a67 	vsub.f32	s15, s14, s15
 8003e44:	edc7 7a27 	vstr	s15, [r7, #156]	@ 0x9c
            r7 = r7 + r6;
 8003e48:	ed97 7a29 	vldr	s14, [r7, #164]	@ 0xa4
 8003e4c:	edd7 7a2b 	vldr	s15, [r7, #172]	@ 0xac
 8003e50:	ee77 7a27 	vadd.f32	s15, s14, s15
 8003e54:	edc7 7a29 	vstr	s15, [r7, #164]	@ 0xa4
            t2 = s5 - s1;
 8003e58:	ed97 7a25 	vldr	s14, [r7, #148]	@ 0x94
 8003e5c:	edd7 7a0a 	vldr	s15, [r7, #40]	@ 0x28
 8003e60:	ee77 7a67 	vsub.f32	s15, s14, s15
 8003e64:	edc7 7a20 	vstr	s15, [r7, #128]	@ 0x80
            s5 = s5 + s1;
 8003e68:	ed97 7a25 	vldr	s14, [r7, #148]	@ 0x94
 8003e6c:	edd7 7a0a 	vldr	s15, [r7, #40]	@ 0x28
 8003e70:	ee77 7a27 	vadd.f32	s15, s14, s15
 8003e74:	edc7 7a25 	vstr	s15, [r7, #148]	@ 0x94
            s8 = s7 - s6;
 8003e78:	ed97 7a22 	vldr	s14, [r7, #136]	@ 0x88
 8003e7c:	edd7 7a24 	vldr	s15, [r7, #144]	@ 0x90
 8003e80:	ee77 7a67 	vsub.f32	s15, s14, s15
 8003e84:	edc7 7a21 	vstr	s15, [r7, #132]	@ 0x84
            s7 = s7 + s6;
 8003e88:	ed97 7a22 	vldr	s14, [r7, #136]	@ 0x88
 8003e8c:	edd7 7a24 	vldr	s15, [r7, #144]	@ 0x90
 8003e90:	ee77 7a27 	vadd.f32	s15, s14, s15
 8003e94:	edc7 7a22 	vstr	s15, [r7, #136]	@ 0x88
            r1 = r5 + s7;
 8003e98:	ed97 7a2d 	vldr	s14, [r7, #180]	@ 0xb4
 8003e9c:	edd7 7a22 	vldr	s15, [r7, #136]	@ 0x88
 8003ea0:	ee77 7a27 	vadd.f32	s15, s14, s15
 8003ea4:	edc7 7a2e 	vstr	s15, [r7, #184]	@ 0xb8
            r5 = r5 - s7;
 8003ea8:	ed97 7a2d 	vldr	s14, [r7, #180]	@ 0xb4
 8003eac:	edd7 7a22 	vldr	s15, [r7, #136]	@ 0x88
 8003eb0:	ee77 7a67 	vsub.f32	s15, s14, s15
 8003eb4:	edc7 7a2d 	vstr	s15, [r7, #180]	@ 0xb4
            r6 = t1 + s8;
 8003eb8:	ed97 7a26 	vldr	s14, [r7, #152]	@ 0x98
 8003ebc:	edd7 7a21 	vldr	s15, [r7, #132]	@ 0x84
 8003ec0:	ee77 7a27 	vadd.f32	s15, s14, s15
 8003ec4:	edc7 7a2b 	vstr	s15, [r7, #172]	@ 0xac
            t1 = t1 - s8;
 8003ec8:	ed97 7a26 	vldr	s14, [r7, #152]	@ 0x98
 8003ecc:	edd7 7a21 	vldr	s15, [r7, #132]	@ 0x84
 8003ed0:	ee77 7a67 	vsub.f32	s15, s14, s15
 8003ed4:	edc7 7a26 	vstr	s15, [r7, #152]	@ 0x98
            s1 = s5 - r7;
 8003ed8:	ed97 7a25 	vldr	s14, [r7, #148]	@ 0x94
 8003edc:	edd7 7a29 	vldr	s15, [r7, #164]	@ 0xa4
 8003ee0:	ee77 7a67 	vsub.f32	s15, s14, s15
 8003ee4:	edc7 7a0a 	vstr	s15, [r7, #40]	@ 0x28
            s5 = s5 + r7;
 8003ee8:	ed97 7a25 	vldr	s14, [r7, #148]	@ 0x94
 8003eec:	edd7 7a29 	vldr	s15, [r7, #164]	@ 0xa4
 8003ef0:	ee77 7a27 	vadd.f32	s15, s14, s15
 8003ef4:	edc7 7a25 	vstr	s15, [r7, #148]	@ 0x94
            s6 = t2 - r8;
 8003ef8:	ed97 7a20 	vldr	s14, [r7, #128]	@ 0x80
 8003efc:	edd7 7a27 	vldr	s15, [r7, #156]	@ 0x9c
 8003f00:	ee77 7a67 	vsub.f32	s15, s14, s15
 8003f04:	edc7 7a24 	vstr	s15, [r7, #144]	@ 0x90
            t2 = t2 + r8;
 8003f08:	ed97 7a20 	vldr	s14, [r7, #128]	@ 0x80
 8003f0c:	edd7 7a27 	vldr	s15, [r7, #156]	@ 0x9c
 8003f10:	ee77 7a27 	vadd.f32	s15, s14, s15
 8003f14:	edc7 7a20 	vstr	s15, [r7, #128]	@ 0x80
            p1 = co2 * r1;
 8003f18:	ed97 7a18 	vldr	s14, [r7, #96]	@ 0x60
 8003f1c:	edd7 7a2e 	vldr	s15, [r7, #184]	@ 0xb8
 8003f20:	ee67 7a27 	vmul.f32	s15, s14, s15
 8003f24:	edc7 7a07 	vstr	s15, [r7, #28]
            p2 = si2 * s1;
 8003f28:	ed97 7a11 	vldr	s14, [r7, #68]	@ 0x44
 8003f2c:	edd7 7a0a 	vldr	s15, [r7, #40]	@ 0x28
 8003f30:	ee67 7a27 	vmul.f32	s15, s14, s15
 8003f34:	edc7 7a06 	vstr	s15, [r7, #24]
            p3 = co2 * s1;
 8003f38:	ed97 7a18 	vldr	s14, [r7, #96]	@ 0x60
 8003f3c:	edd7 7a0a 	vldr	s15, [r7, #40]	@ 0x28
 8003f40:	ee67 7a27 	vmul.f32	s15, s14, s15
 8003f44:	edc7 7a05 	vstr	s15, [r7, #20]
            p4 = si2 * r1;
 8003f48:	ed97 7a11 	vldr	s14, [r7, #68]	@ 0x44
 8003f4c:	edd7 7a2e 	vldr	s15, [r7, #184]	@ 0xb8
 8003f50:	ee67 7a27 	vmul.f32	s15, s14, s15
 8003f54:	edc7 7a04 	vstr	s15, [r7, #16]
            pSrc[2 * i2]     = p1 + p2;
 8003f58:	f8d7 30d4 	ldr.w	r3, [r7, #212]	@ 0xd4
 8003f5c:	00db      	lsls	r3, r3, #3
 8003f5e:	68fa      	ldr	r2, [r7, #12]
 8003f60:	4413      	add	r3, r2
 8003f62:	ed97 7a07 	vldr	s14, [r7, #28]
 8003f66:	edd7 7a06 	vldr	s15, [r7, #24]
 8003f6a:	ee77 7a27 	vadd.f32	s15, s14, s15
 8003f6e:	edc3 7a00 	vstr	s15, [r3]
            pSrc[2 * i2 + 1] = p3 - p4;
 8003f72:	f8d7 30d4 	ldr.w	r3, [r7, #212]	@ 0xd4
 8003f76:	00db      	lsls	r3, r3, #3
 8003f78:	3304      	adds	r3, #4
 8003f7a:	68fa      	ldr	r2, [r7, #12]
 8003f7c:	4413      	add	r3, r2
 8003f7e:	ed97 7a05 	vldr	s14, [r7, #20]
 8003f82:	edd7 7a04 	vldr	s15, [r7, #16]
 8003f86:	ee77 7a67 	vsub.f32	s15, s14, s15
 8003f8a:	edc3 7a00 	vstr	s15, [r3]
            p1 = co8 * r5;
 8003f8e:	ed97 7a12 	vldr	s14, [r7, #72]	@ 0x48
 8003f92:	edd7 7a2d 	vldr	s15, [r7, #180]	@ 0xb4
 8003f96:	ee67 7a27 	vmul.f32	s15, s14, s15
 8003f9a:	edc7 7a07 	vstr	s15, [r7, #28]
            p2 = si8 * s5;
 8003f9e:	ed97 7a0b 	vldr	s14, [r7, #44]	@ 0x2c
 8003fa2:	edd7 7a25 	vldr	s15, [r7, #148]	@ 0x94
 8003fa6:	ee67 7a27 	vmul.f32	s15, s14, s15
 8003faa:	edc7 7a06 	vstr	s15, [r7, #24]
            p3 = co8 * s5;
 8003fae:	ed97 7a12 	vldr	s14, [r7, #72]	@ 0x48
 8003fb2:	edd7 7a25 	vldr	s15, [r7, #148]	@ 0x94
 8003fb6:	ee67 7a27 	vmul.f32	s15, s14, s15
 8003fba:	edc7 7a05 	vstr	s15, [r7, #20]
            p4 = si8 * r5;
 8003fbe:	ed97 7a0b 	vldr	s14, [r7, #44]	@ 0x2c
 8003fc2:	edd7 7a2d 	vldr	s15, [r7, #180]	@ 0xb4
 8003fc6:	ee67 7a27 	vmul.f32	s15, s14, s15
 8003fca:	edc7 7a04 	vstr	s15, [r7, #16]
            pSrc[2 * i8]     = p1 + p2;
 8003fce:	f8d7 30bc 	ldr.w	r3, [r7, #188]	@ 0xbc
 8003fd2:	00db      	lsls	r3, r3, #3
 8003fd4:	68fa      	ldr	r2, [r7, #12]
 8003fd6:	4413      	add	r3, r2
 8003fd8:	ed97 7a07 	vldr	s14, [r7, #28]
 8003fdc:	edd7 7a06 	vldr	s15, [r7, #24]
 8003fe0:	ee77 7a27 	vadd.f32	s15, s14, s15
 8003fe4:	edc3 7a00 	vstr	s15, [r3]
            pSrc[2 * i8 + 1] = p3 - p4;
 8003fe8:	f8d7 30bc 	ldr.w	r3, [r7, #188]	@ 0xbc
 8003fec:	00db      	lsls	r3, r3, #3
 8003fee:	3304      	adds	r3, #4
 8003ff0:	68fa      	ldr	r2, [r7, #12]
 8003ff2:	4413      	add	r3, r2
 8003ff4:	ed97 7a05 	vldr	s14, [r7, #20]
 8003ff8:	edd7 7a04 	vldr	s15, [r7, #16]
 8003ffc:	ee77 7a67 	vsub.f32	s15, s14, s15
 8004000:	edc3 7a00 	vstr	s15, [r3]
            p1 = co6 * r6;
 8004004:	ed97 7a14 	vldr	s14, [r7, #80]	@ 0x50
 8004008:	edd7 7a2b 	vldr	s15, [r7, #172]	@ 0xac
 800400c:	ee67 7a27 	vmul.f32	s15, s14, s15
 8004010:	edc7 7a07 	vstr	s15, [r7, #28]
            p2 = si6 * s6;
 8004014:	ed97 7a0d 	vldr	s14, [r7, #52]	@ 0x34
 8004018:	edd7 7a24 	vldr	s15, [r7, #144]	@ 0x90
 800401c:	ee67 7a27 	vmul.f32	s15, s14, s15
 8004020:	edc7 7a06 	vstr	s15, [r7, #24]
            p3 = co6 * s6;
 8004024:	ed97 7a14 	vldr	s14, [r7, #80]	@ 0x50
 8004028:	edd7 7a24 	vldr	s15, [r7, #144]	@ 0x90
 800402c:	ee67 7a27 	vmul.f32	s15, s14, s15
 8004030:	edc7 7a05 	vstr	s15, [r7, #20]
            p4 = si6 * r6;
 8004034:	ed97 7a0d 	vldr	s14, [r7, #52]	@ 0x34
 8004038:	edd7 7a2b 	vldr	s15, [r7, #172]	@ 0xac
 800403c:	ee67 7a27 	vmul.f32	s15, s14, s15
 8004040:	edc7 7a04 	vstr	s15, [r7, #16]
            pSrc[2 * i6]     = p1 + p2;
 8004044:	f8d7 30c4 	ldr.w	r3, [r7, #196]	@ 0xc4
 8004048:	00db      	lsls	r3, r3, #3
 800404a:	68fa      	ldr	r2, [r7, #12]
 800404c:	4413      	add	r3, r2
 800404e:	ed97 7a07 	vldr	s14, [r7, #28]
 8004052:	edd7 7a06 	vldr	s15, [r7, #24]
 8004056:	ee77 7a27 	vadd.f32	s15, s14, s15
 800405a:	edc3 7a00 	vstr	s15, [r3]
            pSrc[2 * i6 + 1] = p3 - p4;
 800405e:	f8d7 30c4 	ldr.w	r3, [r7, #196]	@ 0xc4
 8004062:	00db      	lsls	r3, r3, #3
 8004064:	3304      	adds	r3, #4
 8004066:	68fa      	ldr	r2, [r7, #12]
 8004068:	4413      	add	r3, r2
 800406a:	ed97 7a05 	vldr	s14, [r7, #20]
 800406e:	edd7 7a04 	vldr	s15, [r7, #16]
 8004072:	ee77 7a67 	vsub.f32	s15, s14, s15
 8004076:	edc3 7a00 	vstr	s15, [r3]
            p1 = co4 * t1;
 800407a:	ed97 7a16 	vldr	s14, [r7, #88]	@ 0x58
 800407e:	edd7 7a26 	vldr	s15, [r7, #152]	@ 0x98
 8004082:	ee67 7a27 	vmul.f32	s15, s14, s15
 8004086:	edc7 7a07 	vstr	s15, [r7, #28]
            p2 = si4 * t2;
 800408a:	ed97 7a0f 	vldr	s14, [r7, #60]	@ 0x3c
 800408e:	edd7 7a20 	vldr	s15, [r7, #128]	@ 0x80
 8004092:	ee67 7a27 	vmul.f32	s15, s14, s15
 8004096:	edc7 7a06 	vstr	s15, [r7, #24]
            p3 = co4 * t2;
 800409a:	ed97 7a16 	vldr	s14, [r7, #88]	@ 0x58
 800409e:	edd7 7a20 	vldr	s15, [r7, #128]	@ 0x80
 80040a2:	ee67 7a27 	vmul.f32	s15, s14, s15
 80040a6:	edc7 7a05 	vstr	s15, [r7, #20]
            p4 = si4 * t1;
 80040aa:	ed97 7a0f 	vldr	s14, [r7, #60]	@ 0x3c
 80040ae:	edd7 7a26 	vldr	s15, [r7, #152]	@ 0x98
 80040b2:	ee67 7a27 	vmul.f32	s15, s14, s15
 80040b6:	edc7 7a04 	vstr	s15, [r7, #16]
            pSrc[2 * i4]     = p1 + p2;
 80040ba:	f8d7 30cc 	ldr.w	r3, [r7, #204]	@ 0xcc
 80040be:	00db      	lsls	r3, r3, #3
 80040c0:	68fa      	ldr	r2, [r7, #12]
 80040c2:	4413      	add	r3, r2
 80040c4:	ed97 7a07 	vldr	s14, [r7, #28]
 80040c8:	edd7 7a06 	vldr	s15, [r7, #24]
 80040cc:	ee77 7a27 	vadd.f32	s15, s14, s15
 80040d0:	edc3 7a00 	vstr	s15, [r3]
            pSrc[2 * i4 + 1] = p3 - p4;
 80040d4:	f8d7 30cc 	ldr.w	r3, [r7, #204]	@ 0xcc
 80040d8:	00db      	lsls	r3, r3, #3
 80040da:	3304      	adds	r3, #4
 80040dc:	68fa      	ldr	r2, [r7, #12]
 80040de:	4413      	add	r3, r2
 80040e0:	ed97 7a05 	vldr	s14, [r7, #20]
 80040e4:	edd7 7a04 	vldr	s15, [r7, #16]
 80040e8:	ee77 7a67 	vsub.f32	s15, s14, s15
 80040ec:	edc3 7a00 	vstr	s15, [r3]

            i1 += n1;
 80040f0:	f8d7 20e8 	ldr.w	r2, [r7, #232]	@ 0xe8
 80040f4:	f8d7 30d8 	ldr.w	r3, [r7, #216]	@ 0xd8
 80040f8:	4413      	add	r3, r2
 80040fa:	f8c7 30e8 	str.w	r3, [r7, #232]	@ 0xe8
         } while (i1 < fftLen);
 80040fe:	897b      	ldrh	r3, [r7, #10]
 8004100:	f8d7 20e8 	ldr.w	r2, [r7, #232]	@ 0xe8
 8004104:	429a      	cmp	r2, r3
 8004106:	f4ff abba 	bcc.w	800387e <arm_radix8_butterfly_f32+0x746>

         j++;
 800410a:	f8d7 30e0 	ldr.w	r3, [r7, #224]	@ 0xe0
 800410e:	3301      	adds	r3, #1
 8004110:	f8c7 30e0 	str.w	r3, [r7, #224]	@ 0xe0
      } while (j < n2);
 8004114:	f8d7 20e0 	ldr.w	r2, [r7, #224]	@ 0xe0
 8004118:	f8d7 30e4 	ldr.w	r3, [r7, #228]	@ 0xe4
 800411c:	429a      	cmp	r2, r3
 800411e:	f4ff ab2c 	bcc.w	800377a <arm_radix8_butterfly_f32+0x642>

      twidCoefModifier <<= 3;
 8004122:	893b      	ldrh	r3, [r7, #8]
 8004124:	00db      	lsls	r3, r3, #3
 8004126:	813b      	strh	r3, [r7, #8]
   } while (n2 > 7);
 8004128:	f8d7 30e4 	ldr.w	r3, [r7, #228]	@ 0xe4
 800412c:	2b07      	cmp	r3, #7
 800412e:	f63f a813 	bhi.w	8003158 <arm_radix8_butterfly_f32+0x20>
}
 8004132:	e000      	b.n	8004136 <arm_radix8_butterfly_f32+0xffe>
         break;
 8004134:	bf00      	nop
}
 8004136:	bf00      	nop
 8004138:	37f4      	adds	r7, #244	@ 0xf4
 800413a:	46bd      	mov	sp, r7
 800413c:	f85d 7b04 	ldr.w	r7, [sp], #4
 8004140:	4770      	bx	lr
 8004142:	bf00      	nop

08004144 <stage_rfft_f32>:
#else
static void stage_rfft_f32(
  const arm_rfft_fast_instance_f32 * S,
  const float32_t * p,
        float32_t * pOut)
{
 8004144:	b480      	push	{r7}
 8004146:	b095      	sub	sp, #84	@ 0x54
 8004148:	af00      	add	r7, sp, #0
 800414a:	60f8      	str	r0, [r7, #12]
 800414c:	60b9      	str	r1, [r7, #8]
 800414e:	607a      	str	r2, [r7, #4]
        int32_t  k;                                /* Loop Counter */
        float32_t twR, twI;                         /* RFFT Twiddle coefficients */
  const float32_t * pCoeff = S->pTwiddleRFFT;       /* Points to RFFT Twiddle factors */
 8004150:	68fb      	ldr	r3, [r7, #12]
 8004152:	695b      	ldr	r3, [r3, #20]
 8004154:	64bb      	str	r3, [r7, #72]	@ 0x48
  const float32_t *pA = p;                          /* increasing pointer */
 8004156:	68bb      	ldr	r3, [r7, #8]
 8004158:	647b      	str	r3, [r7, #68]	@ 0x44
  const float32_t *pB = p;                          /* decreasing pointer */
 800415a:	68bb      	ldr	r3, [r7, #8]
 800415c:	643b      	str	r3, [r7, #64]	@ 0x40
        float32_t xAR, xAI, xBR, xBI;               /* temporary variables */
        float32_t t1a, t1b;                         /* temporary variables */
        float32_t p0, p1, p2, p3;                   /* temporary variables */


   k = (S->Sint).fftLen - 1;
 800415e:	68fb      	ldr	r3, [r7, #12]
 8004160:	881b      	ldrh	r3, [r3, #0]
 8004162:	3b01      	subs	r3, #1
 8004164:	64fb      	str	r3, [r7, #76]	@ 0x4c

   /* Pack first and last sample of the frequency domain together */

   xBR = pB[0];
 8004166:	6c3b      	ldr	r3, [r7, #64]	@ 0x40
 8004168:	681b      	ldr	r3, [r3, #0]
 800416a:	63fb      	str	r3, [r7, #60]	@ 0x3c
   xBI = pB[1];
 800416c:	6c3b      	ldr	r3, [r7, #64]	@ 0x40
 800416e:	3304      	adds	r3, #4
 8004170:	681b      	ldr	r3, [r3, #0]
 8004172:	63bb      	str	r3, [r7, #56]	@ 0x38
   xAR = pA[0];
 8004174:	6c7b      	ldr	r3, [r7, #68]	@ 0x44
 8004176:	681b      	ldr	r3, [r3, #0]
 8004178:	637b      	str	r3, [r7, #52]	@ 0x34
   xAI = pA[1];
 800417a:	6c7b      	ldr	r3, [r7, #68]	@ 0x44
 800417c:	3304      	adds	r3, #4
 800417e:	681b      	ldr	r3, [r3, #0]
 8004180:	633b      	str	r3, [r7, #48]	@ 0x30

   twR = *pCoeff++ ;
 8004182:	6cbb      	ldr	r3, [r7, #72]	@ 0x48
 8004184:	1d1a      	adds	r2, r3, #4
 8004186:	64ba      	str	r2, [r7, #72]	@ 0x48
 8004188:	681b      	ldr	r3, [r3, #0]
 800418a:	62fb      	str	r3, [r7, #44]	@ 0x2c
   twI = *pCoeff++ ;
 800418c:	6cbb      	ldr	r3, [r7, #72]	@ 0x48
 800418e:	1d1a      	adds	r2, r3, #4
 8004190:	64ba      	str	r2, [r7, #72]	@ 0x48
 8004192:	681b      	ldr	r3, [r3, #0]
 8004194:	62bb      	str	r3, [r7, #40]	@ 0x28


   // U1 = XA(1) + XB(1); % It is real
   t1a = xBR + xAR  ;
 8004196:	ed97 7a0f 	vldr	s14, [r7, #60]	@ 0x3c
 800419a:	edd7 7a0d 	vldr	s15, [r7, #52]	@ 0x34
 800419e:	ee77 7a27 	vadd.f32	s15, s14, s15
 80041a2:	edc7 7a09 	vstr	s15, [r7, #36]	@ 0x24

   // U2 = XB(1) - XA(1); % It is imaginary
   t1b = xBI + xAI  ;
 80041a6:	ed97 7a0e 	vldr	s14, [r7, #56]	@ 0x38
 80041aa:	edd7 7a0c 	vldr	s15, [r7, #48]	@ 0x30
 80041ae:	ee77 7a27 	vadd.f32	s15, s14, s15
 80041b2:	edc7 7a08 	vstr	s15, [r7, #32]

   // real(tw * (xB - xA)) = twR * (xBR - xAR) - twI * (xBI - xAI);
   // imag(tw * (xB - xA)) = twI * (xBR - xAR) + twR * (xBI - xAI);
   *pOut++ = 0.5f * ( t1a + t1b );
 80041b6:	ed97 7a09 	vldr	s14, [r7, #36]	@ 0x24
 80041ba:	edd7 7a08 	vldr	s15, [r7, #32]
 80041be:	ee77 7a27 	vadd.f32	s15, s14, s15
 80041c2:	687b      	ldr	r3, [r7, #4]
 80041c4:	1d1a      	adds	r2, r3, #4
 80041c6:	607a      	str	r2, [r7, #4]
 80041c8:	eeb6 7a00 	vmov.f32	s14, #96	@ 0x3f000000  0.5
 80041cc:	ee67 7a87 	vmul.f32	s15, s15, s14
 80041d0:	edc3 7a00 	vstr	s15, [r3]
   *pOut++ = 0.5f * ( t1a - t1b );
 80041d4:	ed97 7a09 	vldr	s14, [r7, #36]	@ 0x24
 80041d8:	edd7 7a08 	vldr	s15, [r7, #32]
 80041dc:	ee77 7a67 	vsub.f32	s15, s14, s15
 80041e0:	687b      	ldr	r3, [r7, #4]
 80041e2:	1d1a      	adds	r2, r3, #4
 80041e4:	607a      	str	r2, [r7, #4]
 80041e6:	eeb6 7a00 	vmov.f32	s14, #96	@ 0x3f000000  0.5
 80041ea:	ee67 7a87 	vmul.f32	s15, s15, s14
 80041ee:	edc3 7a00 	vstr	s15, [r3]

   // XA(1) = 1/2*( U1 - imag(U2) +  i*( U1 +imag(U2) ));
   pB  = p + 2*k;
 80041f2:	6cfb      	ldr	r3, [r7, #76]	@ 0x4c
 80041f4:	00db      	lsls	r3, r3, #3
 80041f6:	68ba      	ldr	r2, [r7, #8]
 80041f8:	4413      	add	r3, r2
 80041fa:	643b      	str	r3, [r7, #64]	@ 0x40
   pA += 2;
 80041fc:	6c7b      	ldr	r3, [r7, #68]	@ 0x44
 80041fe:	3308      	adds	r3, #8
 8004200:	647b      	str	r3, [r7, #68]	@ 0x44
         end
         XA(1) = 1/2* (XA(1) + XB(1) + TW(1) * (XB(1) - XA(1))) + i*( 1/2*( XA(1) + XB(1) + i*( XA(1) - XB(1))));
         X = XA;
      */

      xBI = pB[1];
 8004202:	6c3b      	ldr	r3, [r7, #64]	@ 0x40
 8004204:	3304      	adds	r3, #4
 8004206:	681b      	ldr	r3, [r3, #0]
 8004208:	63bb      	str	r3, [r7, #56]	@ 0x38
      xBR = pB[0];
 800420a:	6c3b      	ldr	r3, [r7, #64]	@ 0x40
 800420c:	681b      	ldr	r3, [r3, #0]
 800420e:	63fb      	str	r3, [r7, #60]	@ 0x3c
      xAR = pA[0];
 8004210:	6c7b      	ldr	r3, [r7, #68]	@ 0x44
 8004212:	681b      	ldr	r3, [r3, #0]
 8004214:	637b      	str	r3, [r7, #52]	@ 0x34
      xAI = pA[1];
 8004216:	6c7b      	ldr	r3, [r7, #68]	@ 0x44
 8004218:	3304      	adds	r3, #4
 800421a:	681b      	ldr	r3, [r3, #0]
 800421c:	633b      	str	r3, [r7, #48]	@ 0x30

      twR = *pCoeff++;
 800421e:	6cbb      	ldr	r3, [r7, #72]	@ 0x48
 8004220:	1d1a      	adds	r2, r3, #4
 8004222:	64ba      	str	r2, [r7, #72]	@ 0x48
 8004224:	681b      	ldr	r3, [r3, #0]
 8004226:	62fb      	str	r3, [r7, #44]	@ 0x2c
      twI = *pCoeff++;
 8004228:	6cbb      	ldr	r3, [r7, #72]	@ 0x48
 800422a:	1d1a      	adds	r2, r3, #4
 800422c:	64ba      	str	r2, [r7, #72]	@ 0x48
 800422e:	681b      	ldr	r3, [r3, #0]
 8004230:	62bb      	str	r3, [r7, #40]	@ 0x28

      t1a = xBR - xAR ;
 8004232:	ed97 7a0f 	vldr	s14, [r7, #60]	@ 0x3c
 8004236:	edd7 7a0d 	vldr	s15, [r7, #52]	@ 0x34
 800423a:	ee77 7a67 	vsub.f32	s15, s14, s15
 800423e:	edc7 7a09 	vstr	s15, [r7, #36]	@ 0x24
      t1b = xBI + xAI ;
 8004242:	ed97 7a0e 	vldr	s14, [r7, #56]	@ 0x38
 8004246:	edd7 7a0c 	vldr	s15, [r7, #48]	@ 0x30
 800424a:	ee77 7a27 	vadd.f32	s15, s14, s15
 800424e:	edc7 7a08 	vstr	s15, [r7, #32]

      // real(tw * (xB - xA)) = twR * (xBR - xAR) - twI * (xBI - xAI);
      // imag(tw * (xB - xA)) = twI * (xBR - xAR) + twR * (xBI - xAI);
      p0 = twR * t1a;
 8004252:	ed97 7a0b 	vldr	s14, [r7, #44]	@ 0x2c
 8004256:	edd7 7a09 	vldr	s15, [r7, #36]	@ 0x24
 800425a:	ee67 7a27 	vmul.f32	s15, s14, s15
 800425e:	edc7 7a07 	vstr	s15, [r7, #28]
      p1 = twI * t1a;
 8004262:	ed97 7a0a 	vldr	s14, [r7, #40]	@ 0x28
 8004266:	edd7 7a09 	vldr	s15, [r7, #36]	@ 0x24
 800426a:	ee67 7a27 	vmul.f32	s15, s14, s15
 800426e:	edc7 7a06 	vstr	s15, [r7, #24]
      p2 = twR * t1b;
 8004272:	ed97 7a0b 	vldr	s14, [r7, #44]	@ 0x2c
 8004276:	edd7 7a08 	vldr	s15, [r7, #32]
 800427a:	ee67 7a27 	vmul.f32	s15, s14, s15
 800427e:	edc7 7a05 	vstr	s15, [r7, #20]
      p3 = twI * t1b;
 8004282:	ed97 7a0a 	vldr	s14, [r7, #40]	@ 0x28
 8004286:	edd7 7a08 	vldr	s15, [r7, #32]
 800428a:	ee67 7a27 	vmul.f32	s15, s14, s15
 800428e:	edc7 7a04 	vstr	s15, [r7, #16]

      *pOut++ = 0.5f * (xAR + xBR + p0 + p3 ); //xAR
 8004292:	ed97 7a0d 	vldr	s14, [r7, #52]	@ 0x34
 8004296:	edd7 7a0f 	vldr	s15, [r7, #60]	@ 0x3c
 800429a:	ee37 7a27 	vadd.f32	s14, s14, s15
 800429e:	edd7 7a07 	vldr	s15, [r7, #28]
 80042a2:	ee37 7a27 	vadd.f32	s14, s14, s15
 80042a6:	edd7 7a04 	vldr	s15, [r7, #16]
 80042aa:	ee77 7a27 	vadd.f32	s15, s14, s15
 80042ae:	687b      	ldr	r3, [r7, #4]
 80042b0:	1d1a      	adds	r2, r3, #4
 80042b2:	607a      	str	r2, [r7, #4]
 80042b4:	eeb6 7a00 	vmov.f32	s14, #96	@ 0x3f000000  0.5
 80042b8:	ee67 7a87 	vmul.f32	s15, s15, s14
 80042bc:	edc3 7a00 	vstr	s15, [r3]
      *pOut++ = 0.5f * (xAI - xBI + p1 - p2 ); //xAI
 80042c0:	ed97 7a0c 	vldr	s14, [r7, #48]	@ 0x30
 80042c4:	edd7 7a0e 	vldr	s15, [r7, #56]	@ 0x38
 80042c8:	ee37 7a67 	vsub.f32	s14, s14, s15
 80042cc:	edd7 7a06 	vldr	s15, [r7, #24]
 80042d0:	ee37 7a27 	vadd.f32	s14, s14, s15
 80042d4:	edd7 7a05 	vldr	s15, [r7, #20]
 80042d8:	ee77 7a67 	vsub.f32	s15, s14, s15
 80042dc:	687b      	ldr	r3, [r7, #4]
 80042de:	1d1a      	adds	r2, r3, #4
 80042e0:	607a      	str	r2, [r7, #4]
 80042e2:	eeb6 7a00 	vmov.f32	s14, #96	@ 0x3f000000  0.5
 80042e6:	ee67 7a87 	vmul.f32	s15, s15, s14
 80042ea:	edc3 7a00 	vstr	s15, [r3]


      pA += 2;
 80042ee:	6c7b      	ldr	r3, [r7, #68]	@ 0x44
 80042f0:	3308      	adds	r3, #8
 80042f2:	647b      	str	r3, [r7, #68]	@ 0x44
      pB -= 2;
 80042f4:	6c3b      	ldr	r3, [r7, #64]	@ 0x40
 80042f6:	3b08      	subs	r3, #8
 80042f8:	643b      	str	r3, [r7, #64]	@ 0x40
      k--;
 80042fa:	6cfb      	ldr	r3, [r7, #76]	@ 0x4c
 80042fc:	3b01      	subs	r3, #1
 80042fe:	64fb      	str	r3, [r7, #76]	@ 0x4c
   } while (k > 0);
 8004300:	6cfb      	ldr	r3, [r7, #76]	@ 0x4c
 8004302:	2b00      	cmp	r3, #0
 8004304:	f73f af7d 	bgt.w	8004202 <stage_rfft_f32+0xbe>
}
 8004308:	bf00      	nop
 800430a:	bf00      	nop
 800430c:	3754      	adds	r7, #84	@ 0x54
 800430e:	46bd      	mov	sp, r7
 8004310:	f85d 7b04 	ldr.w	r7, [sp], #4
 8004314:	4770      	bx	lr

08004316 <merge_rfft_f32>:
/* Prepares data for inverse cfft */
static void merge_rfft_f32(
  const arm_rfft_fast_instance_f32 * S,
  const float32_t * p,
        float32_t * pOut)
{
 8004316:	b480      	push	{r7}
 8004318:	b095      	sub	sp, #84	@ 0x54
 800431a:	af00      	add	r7, sp, #0
 800431c:	60f8      	str	r0, [r7, #12]
 800431e:	60b9      	str	r1, [r7, #8]
 8004320:	607a      	str	r2, [r7, #4]
        int32_t  k;                                /* Loop Counter */
        float32_t twR, twI;                         /* RFFT Twiddle coefficients */
  const float32_t *pCoeff = S->pTwiddleRFFT;        /* Points to RFFT Twiddle factors */
 8004322:	68fb      	ldr	r3, [r7, #12]
 8004324:	695b      	ldr	r3, [r3, #20]
 8004326:	64bb      	str	r3, [r7, #72]	@ 0x48
  const float32_t *pA = p;                          /* increasing pointer */
 8004328:	68bb      	ldr	r3, [r7, #8]
 800432a:	647b      	str	r3, [r7, #68]	@ 0x44
  const float32_t *pB = p;                          /* decreasing pointer */
 800432c:	68bb      	ldr	r3, [r7, #8]
 800432e:	643b      	str	r3, [r7, #64]	@ 0x40
        float32_t xAR, xAI, xBR, xBI;               /* temporary variables */
        float32_t t1a, t1b, r, s, t, u;             /* temporary variables */

   k = (S->Sint).fftLen - 1;
 8004330:	68fb      	ldr	r3, [r7, #12]
 8004332:	881b      	ldrh	r3, [r3, #0]
 8004334:	3b01      	subs	r3, #1
 8004336:	64fb      	str	r3, [r7, #76]	@ 0x4c

   xAR = pA[0];
 8004338:	6c7b      	ldr	r3, [r7, #68]	@ 0x44
 800433a:	681b      	ldr	r3, [r3, #0]
 800433c:	63fb      	str	r3, [r7, #60]	@ 0x3c
   xAI = pA[1];
 800433e:	6c7b      	ldr	r3, [r7, #68]	@ 0x44
 8004340:	3304      	adds	r3, #4
 8004342:	681b      	ldr	r3, [r3, #0]
 8004344:	63bb      	str	r3, [r7, #56]	@ 0x38

   pCoeff += 2 ;
 8004346:	6cbb      	ldr	r3, [r7, #72]	@ 0x48
 8004348:	3308      	adds	r3, #8
 800434a:	64bb      	str	r3, [r7, #72]	@ 0x48

   *pOut++ = 0.5f * ( xAR + xAI );
 800434c:	ed97 7a0f 	vldr	s14, [r7, #60]	@ 0x3c
 8004350:	edd7 7a0e 	vldr	s15, [r7, #56]	@ 0x38
 8004354:	ee77 7a27 	vadd.f32	s15, s14, s15
 8004358:	687b      	ldr	r3, [r7, #4]
 800435a:	1d1a      	adds	r2, r3, #4
 800435c:	607a      	str	r2, [r7, #4]
 800435e:	eeb6 7a00 	vmov.f32	s14, #96	@ 0x3f000000  0.5
 8004362:	ee67 7a87 	vmul.f32	s15, s15, s14
 8004366:	edc3 7a00 	vstr	s15, [r3]
   *pOut++ = 0.5f * ( xAR - xAI );
 800436a:	ed97 7a0f 	vldr	s14, [r7, #60]	@ 0x3c
 800436e:	edd7 7a0e 	vldr	s15, [r7, #56]	@ 0x38
 8004372:	ee77 7a67 	vsub.f32	s15, s14, s15
 8004376:	687b      	ldr	r3, [r7, #4]
 8004378:	1d1a      	adds	r2, r3, #4
 800437a:	607a      	str	r2, [r7, #4]
 800437c:	eeb6 7a00 	vmov.f32	s14, #96	@ 0x3f000000  0.5
 8004380:	ee67 7a87 	vmul.f32	s15, s15, s14
 8004384:	edc3 7a00 	vstr	s15, [r3]

   pB  =  p + 2*k ;
 8004388:	6cfb      	ldr	r3, [r7, #76]	@ 0x4c
 800438a:	00db      	lsls	r3, r3, #3
 800438c:	68ba      	ldr	r2, [r7, #8]
 800438e:	4413      	add	r3, r2
 8004390:	643b      	str	r3, [r7, #64]	@ 0x40
   pA +=  2	   ;
 8004392:	6c7b      	ldr	r3, [r7, #68]	@ 0x44
 8004394:	3308      	adds	r3, #8
 8004396:	647b      	str	r3, [r7, #68]	@ 0x44

   while (k > 0)
 8004398:	e07e      	b.n	8004498 <merge_rfft_f32+0x182>
   {
      /* G is half of the frequency complex spectrum */
      //for k = 2:N
      //    Xk(k) = 1/2 * (G(k) + conj(G(N-k+2)) + Tw(k)*( G(k) - conj(G(N-k+2))));
      xBI =   pB[1]    ;
 800439a:	6c3b      	ldr	r3, [r7, #64]	@ 0x40
 800439c:	3304      	adds	r3, #4
 800439e:	681b      	ldr	r3, [r3, #0]
 80043a0:	637b      	str	r3, [r7, #52]	@ 0x34
      xBR =   pB[0]    ;
 80043a2:	6c3b      	ldr	r3, [r7, #64]	@ 0x40
 80043a4:	681b      	ldr	r3, [r3, #0]
 80043a6:	633b      	str	r3, [r7, #48]	@ 0x30
      xAR =  pA[0];
 80043a8:	6c7b      	ldr	r3, [r7, #68]	@ 0x44
 80043aa:	681b      	ldr	r3, [r3, #0]
 80043ac:	63fb      	str	r3, [r7, #60]	@ 0x3c
      xAI =  pA[1];
 80043ae:	6c7b      	ldr	r3, [r7, #68]	@ 0x44
 80043b0:	3304      	adds	r3, #4
 80043b2:	681b      	ldr	r3, [r3, #0]
 80043b4:	63bb      	str	r3, [r7, #56]	@ 0x38

      twR = *pCoeff++;
 80043b6:	6cbb      	ldr	r3, [r7, #72]	@ 0x48
 80043b8:	1d1a      	adds	r2, r3, #4
 80043ba:	64ba      	str	r2, [r7, #72]	@ 0x48
 80043bc:	681b      	ldr	r3, [r3, #0]
 80043be:	62fb      	str	r3, [r7, #44]	@ 0x2c
      twI = *pCoeff++;
 80043c0:	6cbb      	ldr	r3, [r7, #72]	@ 0x48
 80043c2:	1d1a      	adds	r2, r3, #4
 80043c4:	64ba      	str	r2, [r7, #72]	@ 0x48
 80043c6:	681b      	ldr	r3, [r3, #0]
 80043c8:	62bb      	str	r3, [r7, #40]	@ 0x28

      t1a = xAR - xBR ;
 80043ca:	ed97 7a0f 	vldr	s14, [r7, #60]	@ 0x3c
 80043ce:	edd7 7a0c 	vldr	s15, [r7, #48]	@ 0x30
 80043d2:	ee77 7a67 	vsub.f32	s15, s14, s15
 80043d6:	edc7 7a09 	vstr	s15, [r7, #36]	@ 0x24
      t1b = xAI + xBI ;
 80043da:	ed97 7a0e 	vldr	s14, [r7, #56]	@ 0x38
 80043de:	edd7 7a0d 	vldr	s15, [r7, #52]	@ 0x34
 80043e2:	ee77 7a27 	vadd.f32	s15, s14, s15
 80043e6:	edc7 7a08 	vstr	s15, [r7, #32]

      r = twR * t1a;
 80043ea:	ed97 7a0b 	vldr	s14, [r7, #44]	@ 0x2c
 80043ee:	edd7 7a09 	vldr	s15, [r7, #36]	@ 0x24
 80043f2:	ee67 7a27 	vmul.f32	s15, s14, s15
 80043f6:	edc7 7a07 	vstr	s15, [r7, #28]
      s = twI * t1b;
 80043fa:	ed97 7a0a 	vldr	s14, [r7, #40]	@ 0x28
 80043fe:	edd7 7a08 	vldr	s15, [r7, #32]
 8004402:	ee67 7a27 	vmul.f32	s15, s14, s15
 8004406:	edc7 7a06 	vstr	s15, [r7, #24]
      t = twI * t1a;
 800440a:	ed97 7a0a 	vldr	s14, [r7, #40]	@ 0x28
 800440e:	edd7 7a09 	vldr	s15, [r7, #36]	@ 0x24
 8004412:	ee67 7a27 	vmul.f32	s15, s14, s15
 8004416:	edc7 7a05 	vstr	s15, [r7, #20]
      u = twR * t1b;
 800441a:	ed97 7a0b 	vldr	s14, [r7, #44]	@ 0x2c
 800441e:	edd7 7a08 	vldr	s15, [r7, #32]
 8004422:	ee67 7a27 	vmul.f32	s15, s14, s15
 8004426:	edc7 7a04 	vstr	s15, [r7, #16]

      // real(tw * (xA - xB)) = twR * (xAR - xBR) - twI * (xAI - xBI);
      // imag(tw * (xA - xB)) = twI * (xAR - xBR) + twR * (xAI - xBI);
      *pOut++ = 0.5f * (xAR + xBR - r - s ); //xAR
 800442a:	ed97 7a0f 	vldr	s14, [r7, #60]	@ 0x3c
 800442e:	edd7 7a0c 	vldr	s15, [r7, #48]	@ 0x30
 8004432:	ee37 7a27 	vadd.f32	s14, s14, s15
 8004436:	edd7 7a07 	vldr	s15, [r7, #28]
 800443a:	ee37 7a67 	vsub.f32	s14, s14, s15
 800443e:	edd7 7a06 	vldr	s15, [r7, #24]
 8004442:	ee77 7a67 	vsub.f32	s15, s14, s15
 8004446:	687b      	ldr	r3, [r7, #4]
 8004448:	1d1a      	adds	r2, r3, #4
 800444a:	607a      	str	r2, [r7, #4]
 800444c:	eeb6 7a00 	vmov.f32	s14, #96	@ 0x3f000000  0.5
 8004450:	ee67 7a87 	vmul.f32	s15, s15, s14
 8004454:	edc3 7a00 	vstr	s15, [r3]
      *pOut++ = 0.5f * (xAI - xBI + t - u ); //xAI
 8004458:	ed97 7a0e 	vldr	s14, [r7, #56]	@ 0x38
 800445c:	edd7 7a0d 	vldr	s15, [r7, #52]	@ 0x34
 8004460:	ee37 7a67 	vsub.f32	s14, s14, s15
 8004464:	edd7 7a05 	vldr	s15, [r7, #20]
 8004468:	ee37 7a27 	vadd.f32	s14, s14, s15
 800446c:	edd7 7a04 	vldr	s15, [r7, #16]
 8004470:	ee77 7a67 	vsub.f32	s15, s14, s15
 8004474:	687b      	ldr	r3, [r7, #4]
 8004476:	1d1a      	adds	r2, r3, #4
 8004478:	607a      	str	r2, [r7, #4]
 800447a:	eeb6 7a00 	vmov.f32	s14, #96	@ 0x3f000000  0.5
 800447e:	ee67 7a87 	vmul.f32	s15, s15, s14
 8004482:	edc3 7a00 	vstr	s15, [r3]

      pA += 2;
 8004486:	6c7b      	ldr	r3, [r7, #68]	@ 0x44
 8004488:	3308      	adds	r3, #8
 800448a:	647b      	str	r3, [r7, #68]	@ 0x44
      pB -= 2;
 800448c:	6c3b      	ldr	r3, [r7, #64]	@ 0x40
 800448e:	3b08      	subs	r3, #8
 8004490:	643b      	str	r3, [r7, #64]	@ 0x40
      k--;
 8004492:	6cfb      	ldr	r3, [r7, #76]	@ 0x4c
 8004494:	3b01      	subs	r3, #1
 8004496:	64fb      	str	r3, [r7, #76]	@ 0x4c
   while (k > 0)
 8004498:	6cfb      	ldr	r3, [r7, #76]	@ 0x4c
 800449a:	2b00      	cmp	r3, #0
 800449c:	f73f af7d 	bgt.w	800439a <merge_rfft_f32+0x84>
   }

}
 80044a0:	bf00      	nop
 80044a2:	bf00      	nop
 80044a4:	3754      	adds	r7, #84	@ 0x54
 80044a6:	46bd      	mov	sp, r7
 80044a8:	f85d 7b04 	ldr.w	r7, [sp], #4
 80044ac:	4770      	bx	lr

080044ae <arm_rfft_fast_f32>:
ARM_DSP_ATTRIBUTE void arm_rfft_fast_f32(
  const arm_rfft_fast_instance_f32 * S,
  float32_t * p,
  float32_t * pOut,
  uint8_t ifftFlag)
{
 80044ae:	b580      	push	{r7, lr}
 80044b0:	b086      	sub	sp, #24
 80044b2:	af00      	add	r7, sp, #0
 80044b4:	60f8      	str	r0, [r7, #12]
 80044b6:	60b9      	str	r1, [r7, #8]
 80044b8:	607a      	str	r2, [r7, #4]
 80044ba:	70fb      	strb	r3, [r7, #3]
   const arm_cfft_instance_f32 * Sint = &(S->Sint);
 80044bc:	68fb      	ldr	r3, [r7, #12]
 80044be:	617b      	str	r3, [r7, #20]

   /* Calculation of Real FFT */
   if (ifftFlag)
 80044c0:	78fb      	ldrb	r3, [r7, #3]
 80044c2:	2b00      	cmp	r3, #0
 80044c4:	d00b      	beq.n	80044de <arm_rfft_fast_f32+0x30>
   {
      /*  Real FFT compression */
      merge_rfft_f32(S, p, pOut);
 80044c6:	687a      	ldr	r2, [r7, #4]
 80044c8:	68b9      	ldr	r1, [r7, #8]
 80044ca:	68f8      	ldr	r0, [r7, #12]
 80044cc:	f7ff ff23 	bl	8004316 <merge_rfft_f32>
      /* Complex radix-4 IFFT process */
      arm_cfft_f32( Sint, pOut, ifftFlag, 1);
 80044d0:	78fa      	ldrb	r2, [r7, #3]
 80044d2:	2301      	movs	r3, #1
 80044d4:	6879      	ldr	r1, [r7, #4]
 80044d6:	6978      	ldr	r0, [r7, #20]
 80044d8:	f7fe fc5c 	bl	8002d94 <arm_cfft_f32>
      arm_cfft_f32( Sint, p, ifftFlag, 1);

      /*  Real FFT extraction */
      stage_rfft_f32(S, p, pOut);
   }
}
 80044dc:	e00a      	b.n	80044f4 <arm_rfft_fast_f32+0x46>
      arm_cfft_f32( Sint, p, ifftFlag, 1);
 80044de:	78fa      	ldrb	r2, [r7, #3]
 80044e0:	2301      	movs	r3, #1
 80044e2:	68b9      	ldr	r1, [r7, #8]
 80044e4:	6978      	ldr	r0, [r7, #20]
 80044e6:	f7fe fc55 	bl	8002d94 <arm_cfft_f32>
      stage_rfft_f32(S, p, pOut);
 80044ea:	687a      	ldr	r2, [r7, #4]
 80044ec:	68b9      	ldr	r1, [r7, #8]
 80044ee:	68f8      	ldr	r0, [r7, #12]
 80044f0:	f7ff fe28 	bl	8004144 <stage_rfft_f32>
}
 80044f4:	bf00      	nop
 80044f6:	3718      	adds	r7, #24
 80044f8:	46bd      	mov	sp, r7
 80044fa:	bd80      	pop	{r7, pc}

080044fc <arm_rfft_fast_init_32_f32>:
#if defined(ARM_MATH_NEON) 

FAST_INIT_FUNC(32)

#else
ARM_DSP_ATTRIBUTE arm_status arm_rfft_fast_init_32_f32( arm_rfft_fast_instance_f32 * S ) {
 80044fc:	b580      	push	{r7, lr}
 80044fe:	b084      	sub	sp, #16
 8004500:	af00      	add	r7, sp, #0
 8004502:	6078      	str	r0, [r7, #4]

  arm_status status;

  if( !S ) return ARM_MATH_ARGUMENT_ERROR;
 8004504:	687b      	ldr	r3, [r7, #4]
 8004506:	2b00      	cmp	r3, #0
 8004508:	d102      	bne.n	8004510 <arm_rfft_fast_init_32_f32+0x14>
 800450a:	f04f 33ff 	mov.w	r3, #4294967295
 800450e:	e013      	b.n	8004538 <arm_rfft_fast_init_32_f32+0x3c>

  status=arm_cfft_init_16_f32(&(S->Sint));
 8004510:	687b      	ldr	r3, [r7, #4]
 8004512:	4618      	mov	r0, r3
 8004514:	f7fe fdee 	bl	80030f4 <arm_cfft_init_16_f32>
 8004518:	4603      	mov	r3, r0
 800451a:	73fb      	strb	r3, [r7, #15]
  if (status != ARM_MATH_SUCCESS)
 800451c:	f997 300f 	ldrsb.w	r3, [r7, #15]
 8004520:	2b00      	cmp	r3, #0
 8004522:	d002      	beq.n	800452a <arm_rfft_fast_init_32_f32+0x2e>
  {
    return(status);
 8004524:	f997 300f 	ldrsb.w	r3, [r7, #15]
 8004528:	e006      	b.n	8004538 <arm_rfft_fast_init_32_f32+0x3c>
  }

  S->fftLenRFFT = 32U;
 800452a:	687b      	ldr	r3, [r7, #4]
 800452c:	2220      	movs	r2, #32
 800452e:	821a      	strh	r2, [r3, #16]
  S->pTwiddleRFFT    = (float32_t *) twiddleCoef_rfft_32;
 8004530:	687b      	ldr	r3, [r7, #4]
 8004532:	4a03      	ldr	r2, [pc, #12]	@ (8004540 <arm_rfft_fast_init_32_f32+0x44>)
 8004534:	615a      	str	r2, [r3, #20]

  return ARM_MATH_SUCCESS;
 8004536:	2300      	movs	r3, #0
}
 8004538:	4618      	mov	r0, r3
 800453a:	3710      	adds	r7, #16
 800453c:	46bd      	mov	sp, r7
 800453e:	bd80      	pop	{r7, pc}
 8004540:	0801639c 	.word	0x0801639c

08004544 <arm_rfft_fast_init_64_f32>:
                   - \ref ARM_MATH_ARGUMENT_ERROR : an error is detected
 */
#if defined(ARM_MATH_NEON) 
FAST_INIT_FUNC(64)
#else
ARM_DSP_ATTRIBUTE arm_status arm_rfft_fast_init_64_f32( arm_rfft_fast_instance_f32 * S ) {
 8004544:	b580      	push	{r7, lr}
 8004546:	b084      	sub	sp, #16
 8004548:	af00      	add	r7, sp, #0
 800454a:	6078      	str	r0, [r7, #4]

  arm_status status;

  if( !S ) return ARM_MATH_ARGUMENT_ERROR;
 800454c:	687b      	ldr	r3, [r7, #4]
 800454e:	2b00      	cmp	r3, #0
 8004550:	d102      	bne.n	8004558 <arm_rfft_fast_init_64_f32+0x14>
 8004552:	f04f 33ff 	mov.w	r3, #4294967295
 8004556:	e013      	b.n	8004580 <arm_rfft_fast_init_64_f32+0x3c>

  status=arm_cfft_init_32_f32(&(S->Sint));
 8004558:	687b      	ldr	r3, [r7, #4]
 800455a:	4618      	mov	r0, r3
 800455c:	f7fe fda8 	bl	80030b0 <arm_cfft_init_32_f32>
 8004560:	4603      	mov	r3, r0
 8004562:	73fb      	strb	r3, [r7, #15]
  if (status != ARM_MATH_SUCCESS)
 8004564:	f997 300f 	ldrsb.w	r3, [r7, #15]
 8004568:	2b00      	cmp	r3, #0
 800456a:	d002      	beq.n	8004572 <arm_rfft_fast_init_64_f32+0x2e>
  {
    return(status);
 800456c:	f997 300f 	ldrsb.w	r3, [r7, #15]
 8004570:	e006      	b.n	8004580 <arm_rfft_fast_init_64_f32+0x3c>
  }
  S->fftLenRFFT = 64U;
 8004572:	687b      	ldr	r3, [r7, #4]
 8004574:	2240      	movs	r2, #64	@ 0x40
 8004576:	821a      	strh	r2, [r3, #16]

  S->pTwiddleRFFT    = (float32_t *) twiddleCoef_rfft_64;
 8004578:	687b      	ldr	r3, [r7, #4]
 800457a:	4a03      	ldr	r2, [pc, #12]	@ (8004588 <arm_rfft_fast_init_64_f32+0x44>)
 800457c:	615a      	str	r2, [r3, #20]

  return ARM_MATH_SUCCESS;
 800457e:	2300      	movs	r3, #0
}
 8004580:	4618      	mov	r0, r3
 8004582:	3710      	adds	r7, #16
 8004584:	46bd      	mov	sp, r7
 8004586:	bd80      	pop	{r7, pc}
 8004588:	0801641c 	.word	0x0801641c

0800458c <arm_rfft_fast_init_128_f32>:
 */

#if defined(ARM_MATH_NEON) 
FAST_INIT_FUNC(128)
#else
ARM_DSP_ATTRIBUTE arm_status arm_rfft_fast_init_128_f32( arm_rfft_fast_instance_f32 * S ) {
 800458c:	b580      	push	{r7, lr}
 800458e:	b084      	sub	sp, #16
 8004590:	af00      	add	r7, sp, #0
 8004592:	6078      	str	r0, [r7, #4]

  arm_status status;

  if( !S ) return ARM_MATH_ARGUMENT_ERROR;
 8004594:	687b      	ldr	r3, [r7, #4]
 8004596:	2b00      	cmp	r3, #0
 8004598:	d102      	bne.n	80045a0 <arm_rfft_fast_init_128_f32+0x14>
 800459a:	f04f 33ff 	mov.w	r3, #4294967295
 800459e:	e013      	b.n	80045c8 <arm_rfft_fast_init_128_f32+0x3c>

  status=arm_cfft_init_64_f32(&(S->Sint));
 80045a0:	687b      	ldr	r3, [r7, #4]
 80045a2:	4618      	mov	r0, r3
 80045a4:	f7fe fd62 	bl	800306c <arm_cfft_init_64_f32>
 80045a8:	4603      	mov	r3, r0
 80045aa:	73fb      	strb	r3, [r7, #15]
  if (status != ARM_MATH_SUCCESS)
 80045ac:	f997 300f 	ldrsb.w	r3, [r7, #15]
 80045b0:	2b00      	cmp	r3, #0
 80045b2:	d002      	beq.n	80045ba <arm_rfft_fast_init_128_f32+0x2e>
  {
    return(status);
 80045b4:	f997 300f 	ldrsb.w	r3, [r7, #15]
 80045b8:	e006      	b.n	80045c8 <arm_rfft_fast_init_128_f32+0x3c>
  }
  S->fftLenRFFT = 128;
 80045ba:	687b      	ldr	r3, [r7, #4]
 80045bc:	2280      	movs	r2, #128	@ 0x80
 80045be:	821a      	strh	r2, [r3, #16]

  S->pTwiddleRFFT    = (float32_t *) twiddleCoef_rfft_128;
 80045c0:	687b      	ldr	r3, [r7, #4]
 80045c2:	4a03      	ldr	r2, [pc, #12]	@ (80045d0 <arm_rfft_fast_init_128_f32+0x44>)
 80045c4:	615a      	str	r2, [r3, #20]

  return ARM_MATH_SUCCESS;
 80045c6:	2300      	movs	r3, #0
}
 80045c8:	4618      	mov	r0, r3
 80045ca:	3710      	adds	r7, #16
 80045cc:	46bd      	mov	sp, r7
 80045ce:	bd80      	pop	{r7, pc}
 80045d0:	0801651c 	.word	0x0801651c

080045d4 <arm_rfft_fast_init_256_f32>:
*/

#if defined(ARM_MATH_NEON) 
FAST_INIT_FUNC(256)
#else
ARM_DSP_ATTRIBUTE arm_status arm_rfft_fast_init_256_f32( arm_rfft_fast_instance_f32 * S ) {
 80045d4:	b580      	push	{r7, lr}
 80045d6:	b084      	sub	sp, #16
 80045d8:	af00      	add	r7, sp, #0
 80045da:	6078      	str	r0, [r7, #4]

  arm_status status;

  if( !S ) return ARM_MATH_ARGUMENT_ERROR;
 80045dc:	687b      	ldr	r3, [r7, #4]
 80045de:	2b00      	cmp	r3, #0
 80045e0:	d102      	bne.n	80045e8 <arm_rfft_fast_init_256_f32+0x14>
 80045e2:	f04f 33ff 	mov.w	r3, #4294967295
 80045e6:	e014      	b.n	8004612 <arm_rfft_fast_init_256_f32+0x3e>

  status=arm_cfft_init_128_f32(&(S->Sint));
 80045e8:	687b      	ldr	r3, [r7, #4]
 80045ea:	4618      	mov	r0, r3
 80045ec:	f7fe fd1c 	bl	8003028 <arm_cfft_init_128_f32>
 80045f0:	4603      	mov	r3, r0
 80045f2:	73fb      	strb	r3, [r7, #15]
  if (status != ARM_MATH_SUCCESS)
 80045f4:	f997 300f 	ldrsb.w	r3, [r7, #15]
 80045f8:	2b00      	cmp	r3, #0
 80045fa:	d002      	beq.n	8004602 <arm_rfft_fast_init_256_f32+0x2e>
  {
    return(status);
 80045fc:	f997 300f 	ldrsb.w	r3, [r7, #15]
 8004600:	e007      	b.n	8004612 <arm_rfft_fast_init_256_f32+0x3e>
  }
  S->fftLenRFFT = 256U;
 8004602:	687b      	ldr	r3, [r7, #4]
 8004604:	f44f 7280 	mov.w	r2, #256	@ 0x100
 8004608:	821a      	strh	r2, [r3, #16]

  S->pTwiddleRFFT    = (float32_t *) twiddleCoef_rfft_256;
 800460a:	687b      	ldr	r3, [r7, #4]
 800460c:	4a03      	ldr	r2, [pc, #12]	@ (800461c <arm_rfft_fast_init_256_f32+0x48>)
 800460e:	615a      	str	r2, [r3, #20]

  return ARM_MATH_SUCCESS;
 8004610:	2300      	movs	r3, #0
}
 8004612:	4618      	mov	r0, r3
 8004614:	3710      	adds	r7, #16
 8004616:	46bd      	mov	sp, r7
 8004618:	bd80      	pop	{r7, pc}
 800461a:	bf00      	nop
 800461c:	0801671c 	.word	0x0801671c

08004620 <arm_rfft_fast_init_512_f32>:
 */

#if defined(ARM_MATH_NEON) 
FAST_INIT_FUNC(512)
#else
ARM_DSP_ATTRIBUTE arm_status arm_rfft_fast_init_512_f32( arm_rfft_fast_instance_f32 * S ) {
 8004620:	b580      	push	{r7, lr}
 8004622:	b084      	sub	sp, #16
 8004624:	af00      	add	r7, sp, #0
 8004626:	6078      	str	r0, [r7, #4]

  arm_status status;

  if( !S ) return ARM_MATH_ARGUMENT_ERROR;
 8004628:	687b      	ldr	r3, [r7, #4]
 800462a:	2b00      	cmp	r3, #0
 800462c:	d102      	bne.n	8004634 <arm_rfft_fast_init_512_f32+0x14>
 800462e:	f04f 33ff 	mov.w	r3, #4294967295
 8004632:	e014      	b.n	800465e <arm_rfft_fast_init_512_f32+0x3e>

  status=arm_cfft_init_256_f32(&(S->Sint));
 8004634:	687b      	ldr	r3, [r7, #4]
 8004636:	4618      	mov	r0, r3
 8004638:	f7fe fcd2 	bl	8002fe0 <arm_cfft_init_256_f32>
 800463c:	4603      	mov	r3, r0
 800463e:	73fb      	strb	r3, [r7, #15]
  if (status != ARM_MATH_SUCCESS)
 8004640:	f997 300f 	ldrsb.w	r3, [r7, #15]
 8004644:	2b00      	cmp	r3, #0
 8004646:	d002      	beq.n	800464e <arm_rfft_fast_init_512_f32+0x2e>
  {
    return(status);
 8004648:	f997 300f 	ldrsb.w	r3, [r7, #15]
 800464c:	e007      	b.n	800465e <arm_rfft_fast_init_512_f32+0x3e>
  }
  S->fftLenRFFT = 512U;
 800464e:	687b      	ldr	r3, [r7, #4]
 8004650:	f44f 7200 	mov.w	r2, #512	@ 0x200
 8004654:	821a      	strh	r2, [r3, #16]

  S->pTwiddleRFFT    = (float32_t *) twiddleCoef_rfft_512;
 8004656:	687b      	ldr	r3, [r7, #4]
 8004658:	4a03      	ldr	r2, [pc, #12]	@ (8004668 <arm_rfft_fast_init_512_f32+0x48>)
 800465a:	615a      	str	r2, [r3, #20]

  return ARM_MATH_SUCCESS;
 800465c:	2300      	movs	r3, #0
}
 800465e:	4618      	mov	r0, r3
 8004660:	3710      	adds	r7, #16
 8004662:	46bd      	mov	sp, r7
 8004664:	bd80      	pop	{r7, pc}
 8004666:	bf00      	nop
 8004668:	08016b1c 	.word	0x08016b1c

0800466c <arm_rfft_fast_init_1024_f32>:
 */

#if defined(ARM_MATH_NEON) 
FAST_INIT_FUNC(1024)
#else
ARM_DSP_ATTRIBUTE arm_status arm_rfft_fast_init_1024_f32( arm_rfft_fast_instance_f32 * S ) {
 800466c:	b580      	push	{r7, lr}
 800466e:	b084      	sub	sp, #16
 8004670:	af00      	add	r7, sp, #0
 8004672:	6078      	str	r0, [r7, #4]

  arm_status status;

  if( !S ) return ARM_MATH_ARGUMENT_ERROR;
 8004674:	687b      	ldr	r3, [r7, #4]
 8004676:	2b00      	cmp	r3, #0
 8004678:	d102      	bne.n	8004680 <arm_rfft_fast_init_1024_f32+0x14>
 800467a:	f04f 33ff 	mov.w	r3, #4294967295
 800467e:	e014      	b.n	80046aa <arm_rfft_fast_init_1024_f32+0x3e>

  status=arm_cfft_init_512_f32(&(S->Sint));
 8004680:	687b      	ldr	r3, [r7, #4]
 8004682:	4618      	mov	r0, r3
 8004684:	f7fe fc88 	bl	8002f98 <arm_cfft_init_512_f32>
 8004688:	4603      	mov	r3, r0
 800468a:	73fb      	strb	r3, [r7, #15]
  if (status != ARM_MATH_SUCCESS)
 800468c:	f997 300f 	ldrsb.w	r3, [r7, #15]
 8004690:	2b00      	cmp	r3, #0
 8004692:	d002      	beq.n	800469a <arm_rfft_fast_init_1024_f32+0x2e>
  {
    return(status);
 8004694:	f997 300f 	ldrsb.w	r3, [r7, #15]
 8004698:	e007      	b.n	80046aa <arm_rfft_fast_init_1024_f32+0x3e>
  }
  S->fftLenRFFT = 1024U;
 800469a:	687b      	ldr	r3, [r7, #4]
 800469c:	f44f 6280 	mov.w	r2, #1024	@ 0x400
 80046a0:	821a      	strh	r2, [r3, #16]

  S->pTwiddleRFFT    = (float32_t *) twiddleCoef_rfft_1024;
 80046a2:	687b      	ldr	r3, [r7, #4]
 80046a4:	4a03      	ldr	r2, [pc, #12]	@ (80046b4 <arm_rfft_fast_init_1024_f32+0x48>)
 80046a6:	615a      	str	r2, [r3, #20]

  return ARM_MATH_SUCCESS;
 80046a8:	2300      	movs	r3, #0
}
 80046aa:	4618      	mov	r0, r3
 80046ac:	3710      	adds	r7, #16
 80046ae:	46bd      	mov	sp, r7
 80046b0:	bd80      	pop	{r7, pc}
 80046b2:	bf00      	nop
 80046b4:	0801731c 	.word	0x0801731c

080046b8 <arm_rfft_fast_init_2048_f32>:
                   - \ref ARM_MATH_ARGUMENT_ERROR : an error is detected
 */
#if defined(ARM_MATH_NEON) 
FAST_INIT_FUNC(2048)
#else
ARM_DSP_ATTRIBUTE arm_status arm_rfft_fast_init_2048_f32( arm_rfft_fast_instance_f32 * S ) {
 80046b8:	b580      	push	{r7, lr}
 80046ba:	b084      	sub	sp, #16
 80046bc:	af00      	add	r7, sp, #0
 80046be:	6078      	str	r0, [r7, #4]

  arm_status status;

  if( !S ) return ARM_MATH_ARGUMENT_ERROR;
 80046c0:	687b      	ldr	r3, [r7, #4]
 80046c2:	2b00      	cmp	r3, #0
 80046c4:	d102      	bne.n	80046cc <arm_rfft_fast_init_2048_f32+0x14>
 80046c6:	f04f 33ff 	mov.w	r3, #4294967295
 80046ca:	e014      	b.n	80046f6 <arm_rfft_fast_init_2048_f32+0x3e>

  status=arm_cfft_init_1024_f32(&(S->Sint));
 80046cc:	687b      	ldr	r3, [r7, #4]
 80046ce:	4618      	mov	r0, r3
 80046d0:	f7fe fc3e 	bl	8002f50 <arm_cfft_init_1024_f32>
 80046d4:	4603      	mov	r3, r0
 80046d6:	73fb      	strb	r3, [r7, #15]
  if (status != ARM_MATH_SUCCESS)
 80046d8:	f997 300f 	ldrsb.w	r3, [r7, #15]
 80046dc:	2b00      	cmp	r3, #0
 80046de:	d002      	beq.n	80046e6 <arm_rfft_fast_init_2048_f32+0x2e>
  {
    return(status);
 80046e0:	f997 300f 	ldrsb.w	r3, [r7, #15]
 80046e4:	e007      	b.n	80046f6 <arm_rfft_fast_init_2048_f32+0x3e>
  }
  S->fftLenRFFT = 2048U;
 80046e6:	687b      	ldr	r3, [r7, #4]
 80046e8:	f44f 6200 	mov.w	r2, #2048	@ 0x800
 80046ec:	821a      	strh	r2, [r3, #16]

  S->pTwiddleRFFT    = (float32_t *) twiddleCoef_rfft_2048;
 80046ee:	687b      	ldr	r3, [r7, #4]
 80046f0:	4a03      	ldr	r2, [pc, #12]	@ (8004700 <arm_rfft_fast_init_2048_f32+0x48>)
 80046f2:	615a      	str	r2, [r3, #20]

  return ARM_MATH_SUCCESS;
 80046f4:	2300      	movs	r3, #0
}
 80046f6:	4618      	mov	r0, r3
 80046f8:	3710      	adds	r7, #16
 80046fa:	46bd      	mov	sp, r7
 80046fc:	bd80      	pop	{r7, pc}
 80046fe:	bf00      	nop
 8004700:	0801831c 	.word	0x0801831c

08004704 <arm_rfft_fast_init_4096_f32>:
 */

#if defined(ARM_MATH_NEON) 
FAST_INIT_FUNC(4096)
#else
ARM_DSP_ATTRIBUTE arm_status arm_rfft_fast_init_4096_f32( arm_rfft_fast_instance_f32 * S ) {
 8004704:	b580      	push	{r7, lr}
 8004706:	b084      	sub	sp, #16
 8004708:	af00      	add	r7, sp, #0
 800470a:	6078      	str	r0, [r7, #4]

  arm_status status;

  if( !S ) return ARM_MATH_ARGUMENT_ERROR;
 800470c:	687b      	ldr	r3, [r7, #4]
 800470e:	2b00      	cmp	r3, #0
 8004710:	d102      	bne.n	8004718 <arm_rfft_fast_init_4096_f32+0x14>
 8004712:	f04f 33ff 	mov.w	r3, #4294967295
 8004716:	e014      	b.n	8004742 <arm_rfft_fast_init_4096_f32+0x3e>

  status=arm_cfft_init_2048_f32(&(S->Sint));
 8004718:	687b      	ldr	r3, [r7, #4]
 800471a:	4618      	mov	r0, r3
 800471c:	f7fe fbf4 	bl	8002f08 <arm_cfft_init_2048_f32>
 8004720:	4603      	mov	r3, r0
 8004722:	73fb      	strb	r3, [r7, #15]
  if (status != ARM_MATH_SUCCESS)
 8004724:	f997 300f 	ldrsb.w	r3, [r7, #15]
 8004728:	2b00      	cmp	r3, #0
 800472a:	d002      	beq.n	8004732 <arm_rfft_fast_init_4096_f32+0x2e>
  {
    return(status);
 800472c:	f997 300f 	ldrsb.w	r3, [r7, #15]
 8004730:	e007      	b.n	8004742 <arm_rfft_fast_init_4096_f32+0x3e>
  }
  S->fftLenRFFT = 4096U;
 8004732:	687b      	ldr	r3, [r7, #4]
 8004734:	f44f 5280 	mov.w	r2, #4096	@ 0x1000
 8004738:	821a      	strh	r2, [r3, #16]

  S->pTwiddleRFFT    = (float32_t *) twiddleCoef_rfft_4096;
 800473a:	687b      	ldr	r3, [r7, #4]
 800473c:	4a03      	ldr	r2, [pc, #12]	@ (800474c <arm_rfft_fast_init_4096_f32+0x48>)
 800473e:	615a      	str	r2, [r3, #20]

  return ARM_MATH_SUCCESS;
 8004740:	2300      	movs	r3, #0
}
 8004742:	4618      	mov	r0, r3
 8004744:	3710      	adds	r7, #16
 8004746:	46bd      	mov	sp, r7
 8004748:	bd80      	pop	{r7, pc}
 800474a:	bf00      	nop
 800474c:	0801a31c 	.word	0x0801a31c

08004750 <arm_rfft_fast_init_f32>:
 */

ARM_DSP_ATTRIBUTE arm_status arm_rfft_fast_init_f32(
  arm_rfft_fast_instance_f32 * S,
  uint16_t fftLen)
{
 8004750:	b580      	push	{r7, lr}
 8004752:	b084      	sub	sp, #16
 8004754:	af00      	add	r7, sp, #0
 8004756:	6078      	str	r0, [r7, #4]
 8004758:	460b      	mov	r3, r1
 800475a:	807b      	strh	r3, [r7, #2]
  arm_status status;


  switch (fftLen)
 800475c:	887b      	ldrh	r3, [r7, #2]
 800475e:	f5b3 5f80 	cmp.w	r3, #4096	@ 0x1000
 8004762:	d023      	beq.n	80047ac <arm_rfft_fast_init_f32+0x5c>
 8004764:	f5b3 5f80 	cmp.w	r3, #4096	@ 0x1000
 8004768:	dc50      	bgt.n	800480c <arm_rfft_fast_init_f32+0xbc>
 800476a:	f5b3 6f00 	cmp.w	r3, #2048	@ 0x800
 800476e:	d023      	beq.n	80047b8 <arm_rfft_fast_init_f32+0x68>
 8004770:	f5b3 6f00 	cmp.w	r3, #2048	@ 0x800
 8004774:	dc4a      	bgt.n	800480c <arm_rfft_fast_init_f32+0xbc>
 8004776:	f5b3 6f80 	cmp.w	r3, #1024	@ 0x400
 800477a:	d023      	beq.n	80047c4 <arm_rfft_fast_init_f32+0x74>
 800477c:	f5b3 6f80 	cmp.w	r3, #1024	@ 0x400
 8004780:	dc44      	bgt.n	800480c <arm_rfft_fast_init_f32+0xbc>
 8004782:	f5b3 7f00 	cmp.w	r3, #512	@ 0x200
 8004786:	d023      	beq.n	80047d0 <arm_rfft_fast_init_f32+0x80>
 8004788:	f5b3 7f00 	cmp.w	r3, #512	@ 0x200
 800478c:	dc3e      	bgt.n	800480c <arm_rfft_fast_init_f32+0xbc>
 800478e:	f5b3 7f80 	cmp.w	r3, #256	@ 0x100
 8004792:	d023      	beq.n	80047dc <arm_rfft_fast_init_f32+0x8c>
 8004794:	f5b3 7f80 	cmp.w	r3, #256	@ 0x100
 8004798:	dc38      	bgt.n	800480c <arm_rfft_fast_init_f32+0xbc>
 800479a:	2b80      	cmp	r3, #128	@ 0x80
 800479c:	d024      	beq.n	80047e8 <arm_rfft_fast_init_f32+0x98>
 800479e:	2b80      	cmp	r3, #128	@ 0x80
 80047a0:	dc34      	bgt.n	800480c <arm_rfft_fast_init_f32+0xbc>
 80047a2:	2b20      	cmp	r3, #32
 80047a4:	d02c      	beq.n	8004800 <arm_rfft_fast_init_f32+0xb0>
 80047a6:	2b40      	cmp	r3, #64	@ 0x40
 80047a8:	d024      	beq.n	80047f4 <arm_rfft_fast_init_f32+0xa4>
 80047aa:	e02f      	b.n	800480c <arm_rfft_fast_init_f32+0xbc>
  {
  case 4096U:
    status = arm_rfft_fast_init_4096_f32(S);
 80047ac:	6878      	ldr	r0, [r7, #4]
 80047ae:	f7ff ffa9 	bl	8004704 <arm_rfft_fast_init_4096_f32>
 80047b2:	4603      	mov	r3, r0
 80047b4:	73fb      	strb	r3, [r7, #15]
    break;
 80047b6:	e02c      	b.n	8004812 <arm_rfft_fast_init_f32+0xc2>
  case 2048U:
    status = arm_rfft_fast_init_2048_f32(S);
 80047b8:	6878      	ldr	r0, [r7, #4]
 80047ba:	f7ff ff7d 	bl	80046b8 <arm_rfft_fast_init_2048_f32>
 80047be:	4603      	mov	r3, r0
 80047c0:	73fb      	strb	r3, [r7, #15]
    break;
 80047c2:	e026      	b.n	8004812 <arm_rfft_fast_init_f32+0xc2>
  case 1024U:
    status = arm_rfft_fast_init_1024_f32(S);
 80047c4:	6878      	ldr	r0, [r7, #4]
 80047c6:	f7ff ff51 	bl	800466c <arm_rfft_fast_init_1024_f32>
 80047ca:	4603      	mov	r3, r0
 80047cc:	73fb      	strb	r3, [r7, #15]
    break;
 80047ce:	e020      	b.n	8004812 <arm_rfft_fast_init_f32+0xc2>
  case 512U:
    status = arm_rfft_fast_init_512_f32(S);
 80047d0:	6878      	ldr	r0, [r7, #4]
 80047d2:	f7ff ff25 	bl	8004620 <arm_rfft_fast_init_512_f32>
 80047d6:	4603      	mov	r3, r0
 80047d8:	73fb      	strb	r3, [r7, #15]
    break;
 80047da:	e01a      	b.n	8004812 <arm_rfft_fast_init_f32+0xc2>
  case 256U:
    status = arm_rfft_fast_init_256_f32(S);
 80047dc:	6878      	ldr	r0, [r7, #4]
 80047de:	f7ff fef9 	bl	80045d4 <arm_rfft_fast_init_256_f32>
 80047e2:	4603      	mov	r3, r0
 80047e4:	73fb      	strb	r3, [r7, #15]
    break;
 80047e6:	e014      	b.n	8004812 <arm_rfft_fast_init_f32+0xc2>
  case 128U:
    status = arm_rfft_fast_init_128_f32(S);
 80047e8:	6878      	ldr	r0, [r7, #4]
 80047ea:	f7ff fecf 	bl	800458c <arm_rfft_fast_init_128_f32>
 80047ee:	4603      	mov	r3, r0
 80047f0:	73fb      	strb	r3, [r7, #15]
    break;
 80047f2:	e00e      	b.n	8004812 <arm_rfft_fast_init_f32+0xc2>
  case 64U:
    status = arm_rfft_fast_init_64_f32(S);
 80047f4:	6878      	ldr	r0, [r7, #4]
 80047f6:	f7ff fea5 	bl	8004544 <arm_rfft_fast_init_64_f32>
 80047fa:	4603      	mov	r3, r0
 80047fc:	73fb      	strb	r3, [r7, #15]
    break;
 80047fe:	e008      	b.n	8004812 <arm_rfft_fast_init_f32+0xc2>
  case 32U:
    status = arm_rfft_fast_init_32_f32(S);
 8004800:	6878      	ldr	r0, [r7, #4]
 8004802:	f7ff fe7b 	bl	80044fc <arm_rfft_fast_init_32_f32>
 8004806:	4603      	mov	r3, r0
 8004808:	73fb      	strb	r3, [r7, #15]
    break;
 800480a:	e002      	b.n	8004812 <arm_rfft_fast_init_f32+0xc2>
  default:
    return(ARM_MATH_ARGUMENT_ERROR);
 800480c:	f04f 33ff 	mov.w	r3, #4294967295
 8004810:	e001      	b.n	8004816 <arm_rfft_fast_init_f32+0xc6>
    break;
  }

  return(status);
 8004812:	f997 300f 	ldrsb.w	r3, [r7, #15]

}
 8004816:	4618      	mov	r0, r3
 8004818:	3710      	adds	r7, #16
 800481a:	46bd      	mov	sp, r7
 800481c:	bd80      	pop	{r7, pc}
	...

08004820 <arm_hanning_f32>:


ARM_DSP_ATTRIBUTE void arm_hanning_f32(
        float32_t * pDst,
        uint32_t blockSize)
{
 8004820:	b580      	push	{r7, lr}
 8004822:	b086      	sub	sp, #24
 8004824:	af00      	add	r7, sp, #0
 8004826:	6078      	str	r0, [r7, #4]
 8004828:	6039      	str	r1, [r7, #0]
   float32_t k = 2.0f / ((float32_t) blockSize);
 800482a:	683b      	ldr	r3, [r7, #0]
 800482c:	ee07 3a90 	vmov	s15, r3
 8004830:	eeb8 7a67 	vcvt.f32.u32	s14, s15
 8004834:	eef0 6a00 	vmov.f32	s13, #0	@ 0x40000000  2.0
 8004838:	eec6 7a87 	vdiv.f32	s15, s13, s14
 800483c:	edc7 7a04 	vstr	s15, [r7, #16]
   float32_t w;

   for(uint32_t i=0;i<blockSize;i++)
 8004840:	2300      	movs	r3, #0
 8004842:	617b      	str	r3, [r7, #20]
 8004844:	e027      	b.n	8004896 <arm_hanning_f32+0x76>
   {
     w = PI * i * k;
 8004846:	697b      	ldr	r3, [r7, #20]
 8004848:	ee07 3a90 	vmov	s15, r3
 800484c:	eef8 7a67 	vcvt.f32.u32	s15, s15
 8004850:	ed9f 7a15 	vldr	s14, [pc, #84]	@ 80048a8 <arm_hanning_f32+0x88>
 8004854:	ee67 7a87 	vmul.f32	s15, s15, s14
 8004858:	ed97 7a04 	vldr	s14, [r7, #16]
 800485c:	ee67 7a27 	vmul.f32	s15, s14, s15
 8004860:	edc7 7a03 	vstr	s15, [r7, #12]
     w = 0.5f * (1.0f - cosf (w));
 8004864:	ed97 0a03 	vldr	s0, [r7, #12]
 8004868:	f005 fccc 	bl	800a204 <cosf>
 800486c:	eef0 7a40 	vmov.f32	s15, s0
 8004870:	eeb7 7a00 	vmov.f32	s14, #112	@ 0x3f800000  1.0
 8004874:	ee77 7a67 	vsub.f32	s15, s14, s15
 8004878:	eeb6 7a00 	vmov.f32	s14, #96	@ 0x3f000000  0.5
 800487c:	ee67 7a87 	vmul.f32	s15, s15, s14
 8004880:	edc7 7a03 	vstr	s15, [r7, #12]
     pDst[i] = w;
 8004884:	697b      	ldr	r3, [r7, #20]
 8004886:	009b      	lsls	r3, r3, #2
 8004888:	687a      	ldr	r2, [r7, #4]
 800488a:	4413      	add	r3, r2
 800488c:	68fa      	ldr	r2, [r7, #12]
 800488e:	601a      	str	r2, [r3, #0]
   for(uint32_t i=0;i<blockSize;i++)
 8004890:	697b      	ldr	r3, [r7, #20]
 8004892:	3301      	adds	r3, #1
 8004894:	617b      	str	r3, [r7, #20]
 8004896:	697a      	ldr	r2, [r7, #20]
 8004898:	683b      	ldr	r3, [r7, #0]
 800489a:	429a      	cmp	r2, r3
 800489c:	d3d3      	bcc.n	8004846 <arm_hanning_f32+0x26>
   }
}
 800489e:	bf00      	nop
 80048a0:	bf00      	nop
 80048a2:	3718      	adds	r7, #24
 80048a4:	46bd      	mov	sp, r7
 80048a6:	bd80      	pop	{r7, pc}
 80048a8:	40490fdb 	.word	0x40490fdb

080048ac <HAL_Init>:
  *         need to ensure that the SysTick time base is always set to 1 millisecond
  *         to have correct HAL operation.
  * @retval HAL status
  */
HAL_StatusTypeDef HAL_Init(void)
{
 80048ac:	b580      	push	{r7, lr}
 80048ae:	af00      	add	r7, sp, #0
  /* Configure Flash prefetch, Instruction cache, Data cache */ 
#if (INSTRUCTION_CACHE_ENABLE != 0U)
  __HAL_FLASH_INSTRUCTION_CACHE_ENABLE();
 80048b0:	4b0e      	ldr	r3, [pc, #56]	@ (80048ec <HAL_Init+0x40>)
 80048b2:	681b      	ldr	r3, [r3, #0]
 80048b4:	4a0d      	ldr	r2, [pc, #52]	@ (80048ec <HAL_Init+0x40>)
 80048b6:	f443 7300 	orr.w	r3, r3, #512	@ 0x200
 80048ba:	6013      	str	r3, [r2, #0]
#endif /* INSTRUCTION_CACHE_ENABLE */

#if (DATA_CACHE_ENABLE != 0U)
  __HAL_FLASH_DATA_CACHE_ENABLE();
 80048bc:	4b0b      	ldr	r3, [pc, #44]	@ (80048ec <HAL_Init+0x40>)
 80048be:	681b      	ldr	r3, [r3, #0]
 80048c0:	4a0a      	ldr	r2, [pc, #40]	@ (80048ec <HAL_Init+0x40>)
 80048c2:	f443 6380 	orr.w	r3, r3, #1024	@ 0x400
 80048c6:	6013      	str	r3, [r2, #0]
#endif /* DATA_CACHE_ENABLE */

#if (PREFETCH_ENABLE != 0U)
  __HAL_FLASH_PREFETCH_BUFFER_ENABLE();
 80048c8:	4b08      	ldr	r3, [pc, #32]	@ (80048ec <HAL_Init+0x40>)
 80048ca:	681b      	ldr	r3, [r3, #0]
 80048cc:	4a07      	ldr	r2, [pc, #28]	@ (80048ec <HAL_Init+0x40>)
 80048ce:	f443 7380 	orr.w	r3, r3, #256	@ 0x100
 80048d2:	6013      	str	r3, [r2, #0]
#endif /* PREFETCH_ENABLE */

  /* Set Interrupt Group Priority */
  HAL_NVIC_SetPriorityGrouping(NVIC_PRIORITYGROUP_4);
 80048d4:	2003      	movs	r0, #3
 80048d6:	f000 f94f 	bl	8004b78 <HAL_NVIC_SetPriorityGrouping>

  /* Use systick as time base source and configure 1ms tick (default clock after Reset is HSI) */
  HAL_InitTick(TICK_INT_PRIORITY);
 80048da:	200f      	movs	r0, #15
 80048dc:	f000 f808 	bl	80048f0 <HAL_InitTick>

  /* Init the low level hardware */
  HAL_MspInit();
 80048e0:	f7fc feb4 	bl	800164c <HAL_MspInit>

  /* Return function status */
  return HAL_OK;
 80048e4:	2300      	movs	r3, #0
}
 80048e6:	4618      	mov	r0, r3
 80048e8:	bd80      	pop	{r7, pc}
 80048ea:	bf00      	nop
 80048ec:	40023c00 	.word	0x40023c00

080048f0 <HAL_InitTick>:
  *       implementation  in user file.
  * @param TickPriority Tick interrupt priority.
  * @retval HAL status
  */
__weak HAL_StatusTypeDef HAL_InitTick(uint32_t TickPriority)
{
 80048f0:	b580      	push	{r7, lr}
 80048f2:	b082      	sub	sp, #8
 80048f4:	af00      	add	r7, sp, #0
 80048f6:	6078      	str	r0, [r7, #4]
  /* Configure the SysTick to have interrupt in 1ms time basis*/
  if (HAL_SYSTICK_Config(SystemCoreClock / (1000U / uwTickFreq)) > 0U)
 80048f8:	4b12      	ldr	r3, [pc, #72]	@ (8004944 <HAL_InitTick+0x54>)
 80048fa:	681a      	ldr	r2, [r3, #0]
 80048fc:	4b12      	ldr	r3, [pc, #72]	@ (8004948 <HAL_InitTick+0x58>)
 80048fe:	781b      	ldrb	r3, [r3, #0]
 8004900:	4619      	mov	r1, r3
 8004902:	f44f 737a 	mov.w	r3, #1000	@ 0x3e8
 8004906:	fbb3 f3f1 	udiv	r3, r3, r1
 800490a:	fbb2 f3f3 	udiv	r3, r2, r3
 800490e:	4618      	mov	r0, r3
 8004910:	f000 f967 	bl	8004be2 <HAL_SYSTICK_Config>
 8004914:	4603      	mov	r3, r0
 8004916:	2b00      	cmp	r3, #0
 8004918:	d001      	beq.n	800491e <HAL_InitTick+0x2e>
  {
    return HAL_ERROR;
 800491a:	2301      	movs	r3, #1
 800491c:	e00e      	b.n	800493c <HAL_InitTick+0x4c>
  }

  /* Configure the SysTick IRQ priority */
  if (TickPriority < (1UL << __NVIC_PRIO_BITS))
 800491e:	687b      	ldr	r3, [r7, #4]
 8004920:	2b0f      	cmp	r3, #15
 8004922:	d80a      	bhi.n	800493a <HAL_InitTick+0x4a>
  {
    HAL_NVIC_SetPriority(SysTick_IRQn, TickPriority, 0U);
 8004924:	2200      	movs	r2, #0
 8004926:	6879      	ldr	r1, [r7, #4]
 8004928:	f04f 30ff 	mov.w	r0, #4294967295
 800492c:	f000 f92f 	bl	8004b8e <HAL_NVIC_SetPriority>
    uwTickPrio = TickPriority;
 8004930:	4a06      	ldr	r2, [pc, #24]	@ (800494c <HAL_InitTick+0x5c>)
 8004932:	687b      	ldr	r3, [r7, #4]
 8004934:	6013      	str	r3, [r2, #0]
  {
    return HAL_ERROR;
  }

  /* Return function status */
  return HAL_OK;
 8004936:	2300      	movs	r3, #0
 8004938:	e000      	b.n	800493c <HAL_InitTick+0x4c>
    return HAL_ERROR;
 800493a:	2301      	movs	r3, #1
}
 800493c:	4618      	mov	r0, r3
 800493e:	3708      	adds	r7, #8
 8004940:	46bd      	mov	sp, r7
 8004942:	bd80      	pop	{r7, pc}
 8004944:	20002004 	.word	0x20002004
 8004948:	2000200c 	.word	0x2000200c
 800494c:	20002008 	.word	0x20002008

08004950 <HAL_IncTick>:
 * @note This function is declared as __weak to be overwritten in case of other 
  *      implementations in user file.
  * @retval None
  */
__weak void HAL_IncTick(void)
{
 8004950:	b480      	push	{r7}
 8004952:	af00      	add	r7, sp, #0
  uwTick += uwTickFreq;
 8004954:	4b06      	ldr	r3, [pc, #24]	@ (8004970 <HAL_IncTick+0x20>)
 8004956:	781b      	ldrb	r3, [r3, #0]
 8004958:	461a      	mov	r2, r3
 800495a:	4b06      	ldr	r3, [pc, #24]	@ (8004974 <HAL_IncTick+0x24>)
 800495c:	681b      	ldr	r3, [r3, #0]
 800495e:	4413      	add	r3, r2
 8004960:	4a04      	ldr	r2, [pc, #16]	@ (8004974 <HAL_IncTick+0x24>)
 8004962:	6013      	str	r3, [r2, #0]
}
 8004964:	bf00      	nop
 8004966:	46bd      	mov	sp, r7
 8004968:	f85d 7b04 	ldr.w	r7, [sp], #4
 800496c:	4770      	bx	lr
 800496e:	bf00      	nop
 8004970:	2000200c 	.word	0x2000200c
 8004974:	2000d31c 	.word	0x2000d31c

08004978 <HAL_GetTick>:
  * @note This function is declared as __weak to be overwritten in case of other 
  *       implementations in user file.
  * @retval tick value
  */
__weak uint32_t HAL_GetTick(void)
{
 8004978:	b480      	push	{r7}
 800497a:	af00      	add	r7, sp, #0
  return uwTick;
 800497c:	4b03      	ldr	r3, [pc, #12]	@ (800498c <HAL_GetTick+0x14>)
 800497e:	681b      	ldr	r3, [r3, #0]
}
 8004980:	4618      	mov	r0, r3
 8004982:	46bd      	mov	sp, r7
 8004984:	f85d 7b04 	ldr.w	r7, [sp], #4
 8004988:	4770      	bx	lr
 800498a:	bf00      	nop
 800498c:	2000d31c 	.word	0x2000d31c

08004990 <HAL_Delay>:
  *       implementations in user file.
  * @param Delay specifies the delay time length, in milliseconds.
  * @retval None
  */
__weak void HAL_Delay(uint32_t Delay)
{
 8004990:	b580      	push	{r7, lr}
 8004992:	b084      	sub	sp, #16
 8004994:	af00      	add	r7, sp, #0
 8004996:	6078      	str	r0, [r7, #4]
  uint32_t tickstart = HAL_GetTick();
 8004998:	f7ff ffee 	bl	8004978 <HAL_GetTick>
 800499c:	60b8      	str	r0, [r7, #8]
  uint32_t wait = Delay;
 800499e:	687b      	ldr	r3, [r7, #4]
 80049a0:	60fb      	str	r3, [r7, #12]

  /* Add a freq to guarantee minimum wait */
  if (wait < HAL_MAX_DELAY)
 80049a2:	68fb      	ldr	r3, [r7, #12]
 80049a4:	f1b3 3fff 	cmp.w	r3, #4294967295
 80049a8:	d005      	beq.n	80049b6 <HAL_Delay+0x26>
  {
    wait += (uint32_t)(uwTickFreq);
 80049aa:	4b0a      	ldr	r3, [pc, #40]	@ (80049d4 <HAL_Delay+0x44>)
 80049ac:	781b      	ldrb	r3, [r3, #0]
 80049ae:	461a      	mov	r2, r3
 80049b0:	68fb      	ldr	r3, [r7, #12]
 80049b2:	4413      	add	r3, r2
 80049b4:	60fb      	str	r3, [r7, #12]
  }

  while((HAL_GetTick() - tickstart) < wait)
 80049b6:	bf00      	nop
 80049b8:	f7ff ffde 	bl	8004978 <HAL_GetTick>
 80049bc:	4602      	mov	r2, r0
 80049be:	68bb      	ldr	r3, [r7, #8]
 80049c0:	1ad3      	subs	r3, r2, r3
 80049c2:	68fa      	ldr	r2, [r7, #12]
 80049c4:	429a      	cmp	r2, r3
 80049c6:	d8f7      	bhi.n	80049b8 <HAL_Delay+0x28>
  {
  }
}
 80049c8:	bf00      	nop
 80049ca:	bf00      	nop
 80049cc:	3710      	adds	r7, #16
 80049ce:	46bd      	mov	sp, r7
 80049d0:	bd80      	pop	{r7, pc}
 80049d2:	bf00      	nop
 80049d4:	2000200c 	.word	0x2000200c

080049d8 <__NVIC_SetPriorityGrouping>:
           In case of a conflict between priority grouping and available
           priority bits (__NVIC_PRIO_BITS), the smallest possible priority group is set.
  \param [in]      PriorityGroup  Priority grouping field.
 */
__STATIC_INLINE void __NVIC_SetPriorityGrouping(uint32_t PriorityGroup)
{
 80049d8:	b480      	push	{r7}
 80049da:	b085      	sub	sp, #20
 80049dc:	af00      	add	r7, sp, #0
 80049de:	6078      	str	r0, [r7, #4]
  uint32_t reg_value;
  uint32_t PriorityGroupTmp = (PriorityGroup & (uint32_t)0x07UL);             /* only values 0..7 are used          */
 80049e0:	687b      	ldr	r3, [r7, #4]
 80049e2:	f003 0307 	and.w	r3, r3, #7
 80049e6:	60fb      	str	r3, [r7, #12]

  reg_value  =  SCB->AIRCR;                                                   /* read old register configuration    */
 80049e8:	4b0c      	ldr	r3, [pc, #48]	@ (8004a1c <__NVIC_SetPriorityGrouping+0x44>)
 80049ea:	68db      	ldr	r3, [r3, #12]
 80049ec:	60bb      	str	r3, [r7, #8]
  reg_value &= ~((uint32_t)(SCB_AIRCR_VECTKEY_Msk | SCB_AIRCR_PRIGROUP_Msk)); /* clear bits to change               */
 80049ee:	68ba      	ldr	r2, [r7, #8]
 80049f0:	f64f 03ff 	movw	r3, #63743	@ 0xf8ff
 80049f4:	4013      	ands	r3, r2
 80049f6:	60bb      	str	r3, [r7, #8]
  reg_value  =  (reg_value                                   |
                ((uint32_t)0x5FAUL << SCB_AIRCR_VECTKEY_Pos) |
                (PriorityGroupTmp << SCB_AIRCR_PRIGROUP_Pos)  );              /* Insert write key and priority group */
 80049f8:	68fb      	ldr	r3, [r7, #12]
 80049fa:	021a      	lsls	r2, r3, #8
                ((uint32_t)0x5FAUL << SCB_AIRCR_VECTKEY_Pos) |
 80049fc:	68bb      	ldr	r3, [r7, #8]
 80049fe:	4313      	orrs	r3, r2
  reg_value  =  (reg_value                                   |
 8004a00:	f043 63bf 	orr.w	r3, r3, #100139008	@ 0x5f80000
 8004a04:	f443 3300 	orr.w	r3, r3, #131072	@ 0x20000
 8004a08:	60bb      	str	r3, [r7, #8]
  SCB->AIRCR =  reg_value;
 8004a0a:	4a04      	ldr	r2, [pc, #16]	@ (8004a1c <__NVIC_SetPriorityGrouping+0x44>)
 8004a0c:	68bb      	ldr	r3, [r7, #8]
 8004a0e:	60d3      	str	r3, [r2, #12]
}
 8004a10:	bf00      	nop
 8004a12:	3714      	adds	r7, #20
 8004a14:	46bd      	mov	sp, r7
 8004a16:	f85d 7b04 	ldr.w	r7, [sp], #4
 8004a1a:	4770      	bx	lr
 8004a1c:	e000ed00 	.word	0xe000ed00

08004a20 <__NVIC_GetPriorityGrouping>:
  \brief   Get Priority Grouping
  \details Reads the priority grouping field from the NVIC Interrupt Controller.
  \return                Priority grouping field (SCB->AIRCR [10:8] PRIGROUP field).
 */
__STATIC_INLINE uint32_t __NVIC_GetPriorityGrouping(void)
{
 8004a20:	b480      	push	{r7}
 8004a22:	af00      	add	r7, sp, #0
  return ((uint32_t)((SCB->AIRCR & SCB_AIRCR_PRIGROUP_Msk) >> SCB_AIRCR_PRIGROUP_Pos));
 8004a24:	4b04      	ldr	r3, [pc, #16]	@ (8004a38 <__NVIC_GetPriorityGrouping+0x18>)
 8004a26:	68db      	ldr	r3, [r3, #12]
 8004a28:	0a1b      	lsrs	r3, r3, #8
 8004a2a:	f003 0307 	and.w	r3, r3, #7
}
 8004a2e:	4618      	mov	r0, r3
 8004a30:	46bd      	mov	sp, r7
 8004a32:	f85d 7b04 	ldr.w	r7, [sp], #4
 8004a36:	4770      	bx	lr
 8004a38:	e000ed00 	.word	0xe000ed00

08004a3c <__NVIC_EnableIRQ>:
  \details Enables a device specific interrupt in the NVIC interrupt controller.
  \param [in]      IRQn  Device specific interrupt number.
  \note    IRQn must not be negative.
 */
__STATIC_INLINE void __NVIC_EnableIRQ(IRQn_Type IRQn)
{
 8004a3c:	b480      	push	{r7}
 8004a3e:	b083      	sub	sp, #12
 8004a40:	af00      	add	r7, sp, #0
 8004a42:	4603      	mov	r3, r0
 8004a44:	71fb      	strb	r3, [r7, #7]
  if ((int32_t)(IRQn) >= 0)
 8004a46:	f997 3007 	ldrsb.w	r3, [r7, #7]
 8004a4a:	2b00      	cmp	r3, #0
 8004a4c:	db0b      	blt.n	8004a66 <__NVIC_EnableIRQ+0x2a>
  {
    __COMPILER_BARRIER();
    NVIC->ISER[(((uint32_t)IRQn) >> 5UL)] = (uint32_t)(1UL << (((uint32_t)IRQn) & 0x1FUL));
 8004a4e:	79fb      	ldrb	r3, [r7, #7]
 8004a50:	f003 021f 	and.w	r2, r3, #31
 8004a54:	4907      	ldr	r1, [pc, #28]	@ (8004a74 <__NVIC_EnableIRQ+0x38>)
 8004a56:	f997 3007 	ldrsb.w	r3, [r7, #7]
 8004a5a:	095b      	lsrs	r3, r3, #5
 8004a5c:	2001      	movs	r0, #1
 8004a5e:	fa00 f202 	lsl.w	r2, r0, r2
 8004a62:	f841 2023 	str.w	r2, [r1, r3, lsl #2]
    __COMPILER_BARRIER();
  }
}
 8004a66:	bf00      	nop
 8004a68:	370c      	adds	r7, #12
 8004a6a:	46bd      	mov	sp, r7
 8004a6c:	f85d 7b04 	ldr.w	r7, [sp], #4
 8004a70:	4770      	bx	lr
 8004a72:	bf00      	nop
 8004a74:	e000e100 	.word	0xe000e100

08004a78 <__NVIC_SetPriority>:
  \param [in]      IRQn  Interrupt number.
  \param [in]  priority  Priority to set.
  \note    The priority cannot be set for every processor exception.
 */
__STATIC_INLINE void __NVIC_SetPriority(IRQn_Type IRQn, uint32_t priority)
{
 8004a78:	b480      	push	{r7}
 8004a7a:	b083      	sub	sp, #12
 8004a7c:	af00      	add	r7, sp, #0
 8004a7e:	4603      	mov	r3, r0
 8004a80:	6039      	str	r1, [r7, #0]
 8004a82:	71fb      	strb	r3, [r7, #7]
  if ((int32_t)(IRQn) >= 0)
 8004a84:	f997 3007 	ldrsb.w	r3, [r7, #7]
 8004a88:	2b00      	cmp	r3, #0
 8004a8a:	db0a      	blt.n	8004aa2 <__NVIC_SetPriority+0x2a>
  {
    NVIC->IP[((uint32_t)IRQn)]               = (uint8_t)((priority << (8U - __NVIC_PRIO_BITS)) & (uint32_t)0xFFUL);
 8004a8c:	683b      	ldr	r3, [r7, #0]
 8004a8e:	b2da      	uxtb	r2, r3
 8004a90:	490c      	ldr	r1, [pc, #48]	@ (8004ac4 <__NVIC_SetPriority+0x4c>)
 8004a92:	f997 3007 	ldrsb.w	r3, [r7, #7]
 8004a96:	0112      	lsls	r2, r2, #4
 8004a98:	b2d2      	uxtb	r2, r2
 8004a9a:	440b      	add	r3, r1
 8004a9c:	f883 2300 	strb.w	r2, [r3, #768]	@ 0x300
  }
  else
  {
    SCB->SHP[(((uint32_t)IRQn) & 0xFUL)-4UL] = (uint8_t)((priority << (8U - __NVIC_PRIO_BITS)) & (uint32_t)0xFFUL);
  }
}
 8004aa0:	e00a      	b.n	8004ab8 <__NVIC_SetPriority+0x40>
    SCB->SHP[(((uint32_t)IRQn) & 0xFUL)-4UL] = (uint8_t)((priority << (8U - __NVIC_PRIO_BITS)) & (uint32_t)0xFFUL);
 8004aa2:	683b      	ldr	r3, [r7, #0]
 8004aa4:	b2da      	uxtb	r2, r3
 8004aa6:	4908      	ldr	r1, [pc, #32]	@ (8004ac8 <__NVIC_SetPriority+0x50>)
 8004aa8:	79fb      	ldrb	r3, [r7, #7]
 8004aaa:	f003 030f 	and.w	r3, r3, #15
 8004aae:	3b04      	subs	r3, #4
 8004ab0:	0112      	lsls	r2, r2, #4
 8004ab2:	b2d2      	uxtb	r2, r2
 8004ab4:	440b      	add	r3, r1
 8004ab6:	761a      	strb	r2, [r3, #24]
}
 8004ab8:	bf00      	nop
 8004aba:	370c      	adds	r7, #12
 8004abc:	46bd      	mov	sp, r7
 8004abe:	f85d 7b04 	ldr.w	r7, [sp], #4
 8004ac2:	4770      	bx	lr
 8004ac4:	e000e100 	.word	0xe000e100
 8004ac8:	e000ed00 	.word	0xe000ed00

08004acc <NVIC_EncodePriority>:
  \param [in]   PreemptPriority  Preemptive priority value (starting from 0).
  \param [in]       SubPriority  Subpriority value (starting from 0).
  \return                        Encoded priority. Value can be used in the function \ref NVIC_SetPriority().
 */
__STATIC_INLINE uint32_t NVIC_EncodePriority (uint32_t PriorityGroup, uint32_t PreemptPriority, uint32_t SubPriority)
{
 8004acc:	b480      	push	{r7}
 8004ace:	b089      	sub	sp, #36	@ 0x24
 8004ad0:	af00      	add	r7, sp, #0
 8004ad2:	60f8      	str	r0, [r7, #12]
 8004ad4:	60b9      	str	r1, [r7, #8]
 8004ad6:	607a      	str	r2, [r7, #4]
  uint32_t PriorityGroupTmp = (PriorityGroup & (uint32_t)0x07UL);   /* only values 0..7 are used          */
 8004ad8:	68fb      	ldr	r3, [r7, #12]
 8004ada:	f003 0307 	and.w	r3, r3, #7
 8004ade:	61fb      	str	r3, [r7, #28]
  uint32_t PreemptPriorityBits;
  uint32_t SubPriorityBits;

  PreemptPriorityBits = ((7UL - PriorityGroupTmp) > (uint32_t)(__NVIC_PRIO_BITS)) ? (uint32_t)(__NVIC_PRIO_BITS) : (uint32_t)(7UL - PriorityGroupTmp);
 8004ae0:	69fb      	ldr	r3, [r7, #28]
 8004ae2:	f1c3 0307 	rsb	r3, r3, #7
 8004ae6:	2b04      	cmp	r3, #4
 8004ae8:	bf28      	it	cs
 8004aea:	2304      	movcs	r3, #4
 8004aec:	61bb      	str	r3, [r7, #24]
  SubPriorityBits     = ((PriorityGroupTmp + (uint32_t)(__NVIC_PRIO_BITS)) < (uint32_t)7UL) ? (uint32_t)0UL : (uint32_t)((PriorityGroupTmp - 7UL) + (uint32_t)(__NVIC_PRIO_BITS));
 8004aee:	69fb      	ldr	r3, [r7, #28]
 8004af0:	3304      	adds	r3, #4
 8004af2:	2b06      	cmp	r3, #6
 8004af4:	d902      	bls.n	8004afc <NVIC_EncodePriority+0x30>
 8004af6:	69fb      	ldr	r3, [r7, #28]
 8004af8:	3b03      	subs	r3, #3
 8004afa:	e000      	b.n	8004afe <NVIC_EncodePriority+0x32>
 8004afc:	2300      	movs	r3, #0
 8004afe:	617b      	str	r3, [r7, #20]

  return (
           ((PreemptPriority & (uint32_t)((1UL << (PreemptPriorityBits)) - 1UL)) << SubPriorityBits) |
 8004b00:	f04f 32ff 	mov.w	r2, #4294967295
 8004b04:	69bb      	ldr	r3, [r7, #24]
 8004b06:	fa02 f303 	lsl.w	r3, r2, r3
 8004b0a:	43da      	mvns	r2, r3
 8004b0c:	68bb      	ldr	r3, [r7, #8]
 8004b0e:	401a      	ands	r2, r3
 8004b10:	697b      	ldr	r3, [r7, #20]
 8004b12:	409a      	lsls	r2, r3
           ((SubPriority     & (uint32_t)((1UL << (SubPriorityBits    )) - 1UL)))
 8004b14:	f04f 31ff 	mov.w	r1, #4294967295
 8004b18:	697b      	ldr	r3, [r7, #20]
 8004b1a:	fa01 f303 	lsl.w	r3, r1, r3
 8004b1e:	43d9      	mvns	r1, r3
 8004b20:	687b      	ldr	r3, [r7, #4]
 8004b22:	400b      	ands	r3, r1
           ((PreemptPriority & (uint32_t)((1UL << (PreemptPriorityBits)) - 1UL)) << SubPriorityBits) |
 8004b24:	4313      	orrs	r3, r2
         );
}
 8004b26:	4618      	mov	r0, r3
 8004b28:	3724      	adds	r7, #36	@ 0x24
 8004b2a:	46bd      	mov	sp, r7
 8004b2c:	f85d 7b04 	ldr.w	r7, [sp], #4
 8004b30:	4770      	bx	lr
	...

08004b34 <SysTick_Config>:
  \note    When the variable <b>__Vendor_SysTickConfig</b> is set to 1, then the
           function <b>SysTick_Config</b> is not included. In this case, the file <b><i>device</i>.h</b>
           must contain a vendor-specific implementation of this function.
 */
__STATIC_INLINE uint32_t SysTick_Config(uint32_t ticks)
{
 8004b34:	b580      	push	{r7, lr}
 8004b36:	b082      	sub	sp, #8
 8004b38:	af00      	add	r7, sp, #0
 8004b3a:	6078      	str	r0, [r7, #4]
  if ((ticks - 1UL) > SysTick_LOAD_RELOAD_Msk)
 8004b3c:	687b      	ldr	r3, [r7, #4]
 8004b3e:	3b01      	subs	r3, #1
 8004b40:	f1b3 7f80 	cmp.w	r3, #16777216	@ 0x1000000
 8004b44:	d301      	bcc.n	8004b4a <SysTick_Config+0x16>
  {
    return (1UL);                                                   /* Reload value impossible */
 8004b46:	2301      	movs	r3, #1
 8004b48:	e00f      	b.n	8004b6a <SysTick_Config+0x36>
  }

  SysTick->LOAD  = (uint32_t)(ticks - 1UL);                         /* set reload register */
 8004b4a:	4a0a      	ldr	r2, [pc, #40]	@ (8004b74 <SysTick_Config+0x40>)
 8004b4c:	687b      	ldr	r3, [r7, #4]
 8004b4e:	3b01      	subs	r3, #1
 8004b50:	6053      	str	r3, [r2, #4]
  NVIC_SetPriority (SysTick_IRQn, (1UL << __NVIC_PRIO_BITS) - 1UL); /* set Priority for Systick Interrupt */
 8004b52:	210f      	movs	r1, #15
 8004b54:	f04f 30ff 	mov.w	r0, #4294967295
 8004b58:	f7ff ff8e 	bl	8004a78 <__NVIC_SetPriority>
  SysTick->VAL   = 0UL;                                             /* Load the SysTick Counter Value */
 8004b5c:	4b05      	ldr	r3, [pc, #20]	@ (8004b74 <SysTick_Config+0x40>)
 8004b5e:	2200      	movs	r2, #0
 8004b60:	609a      	str	r2, [r3, #8]
  SysTick->CTRL  = SysTick_CTRL_CLKSOURCE_Msk |
 8004b62:	4b04      	ldr	r3, [pc, #16]	@ (8004b74 <SysTick_Config+0x40>)
 8004b64:	2207      	movs	r2, #7
 8004b66:	601a      	str	r2, [r3, #0]
                   SysTick_CTRL_TICKINT_Msk   |
                   SysTick_CTRL_ENABLE_Msk;                         /* Enable SysTick IRQ and SysTick Timer */
  return (0UL);                                                     /* Function successful */
 8004b68:	2300      	movs	r3, #0
}
 8004b6a:	4618      	mov	r0, r3
 8004b6c:	3708      	adds	r7, #8
 8004b6e:	46bd      	mov	sp, r7
 8004b70:	bd80      	pop	{r7, pc}
 8004b72:	bf00      	nop
 8004b74:	e000e010 	.word	0xe000e010

08004b78 <HAL_NVIC_SetPriorityGrouping>:
  * @note   When the NVIC_PriorityGroup_0 is selected, IRQ preemption is no more possible. 
  *         The pending IRQ priority will be managed only by the subpriority. 
  * @retval None
  */
void HAL_NVIC_SetPriorityGrouping(uint32_t PriorityGroup)
{
 8004b78:	b580      	push	{r7, lr}
 8004b7a:	b082      	sub	sp, #8
 8004b7c:	af00      	add	r7, sp, #0
 8004b7e:	6078      	str	r0, [r7, #4]
  /* Check the parameters */
  assert_param(IS_NVIC_PRIORITY_GROUP(PriorityGroup));
  
  /* Set the PRIGROUP[10:8] bits according to the PriorityGroup parameter value */
  NVIC_SetPriorityGrouping(PriorityGroup);
 8004b80:	6878      	ldr	r0, [r7, #4]
 8004b82:	f7ff ff29 	bl	80049d8 <__NVIC_SetPriorityGrouping>
}
 8004b86:	bf00      	nop
 8004b88:	3708      	adds	r7, #8
 8004b8a:	46bd      	mov	sp, r7
 8004b8c:	bd80      	pop	{r7, pc}

08004b8e <HAL_NVIC_SetPriority>:
  *         This parameter can be a value between 0 and 15
  *         A lower priority value indicates a higher priority.          
  * @retval None
  */
void HAL_NVIC_SetPriority(IRQn_Type IRQn, uint32_t PreemptPriority, uint32_t SubPriority)
{ 
 8004b8e:	b580      	push	{r7, lr}
 8004b90:	b086      	sub	sp, #24
 8004b92:	af00      	add	r7, sp, #0
 8004b94:	4603      	mov	r3, r0
 8004b96:	60b9      	str	r1, [r7, #8]
 8004b98:	607a      	str	r2, [r7, #4]
 8004b9a:	73fb      	strb	r3, [r7, #15]
  uint32_t prioritygroup = 0x00U;
 8004b9c:	2300      	movs	r3, #0
 8004b9e:	617b      	str	r3, [r7, #20]
  
  /* Check the parameters */
  assert_param(IS_NVIC_SUB_PRIORITY(SubPriority));
  assert_param(IS_NVIC_PREEMPTION_PRIORITY(PreemptPriority));
  
  prioritygroup = NVIC_GetPriorityGrouping();
 8004ba0:	f7ff ff3e 	bl	8004a20 <__NVIC_GetPriorityGrouping>
 8004ba4:	6178      	str	r0, [r7, #20]
  
  NVIC_SetPriority(IRQn, NVIC_EncodePriority(prioritygroup, PreemptPriority, SubPriority));
 8004ba6:	687a      	ldr	r2, [r7, #4]
 8004ba8:	68b9      	ldr	r1, [r7, #8]
 8004baa:	6978      	ldr	r0, [r7, #20]
 8004bac:	f7ff ff8e 	bl	8004acc <NVIC_EncodePriority>
 8004bb0:	4602      	mov	r2, r0
 8004bb2:	f997 300f 	ldrsb.w	r3, [r7, #15]
 8004bb6:	4611      	mov	r1, r2
 8004bb8:	4618      	mov	r0, r3
 8004bba:	f7ff ff5d 	bl	8004a78 <__NVIC_SetPriority>
}
 8004bbe:	bf00      	nop
 8004bc0:	3718      	adds	r7, #24
 8004bc2:	46bd      	mov	sp, r7
 8004bc4:	bd80      	pop	{r7, pc}

08004bc6 <HAL_NVIC_EnableIRQ>:
  *         This parameter can be an enumerator of IRQn_Type enumeration
  *         (For the complete STM32 Devices IRQ Channels list, please refer to the appropriate CMSIS device file (stm32f4xxxx.h))
  * @retval None
  */
void HAL_NVIC_EnableIRQ(IRQn_Type IRQn)
{
 8004bc6:	b580      	push	{r7, lr}
 8004bc8:	b082      	sub	sp, #8
 8004bca:	af00      	add	r7, sp, #0
 8004bcc:	4603      	mov	r3, r0
 8004bce:	71fb      	strb	r3, [r7, #7]
  /* Check the parameters */
  assert_param(IS_NVIC_DEVICE_IRQ(IRQn));
  
  /* Enable interrupt */
  NVIC_EnableIRQ(IRQn);
 8004bd0:	f997 3007 	ldrsb.w	r3, [r7, #7]
 8004bd4:	4618      	mov	r0, r3
 8004bd6:	f7ff ff31 	bl	8004a3c <__NVIC_EnableIRQ>
}
 8004bda:	bf00      	nop
 8004bdc:	3708      	adds	r7, #8
 8004bde:	46bd      	mov	sp, r7
 8004be0:	bd80      	pop	{r7, pc}

08004be2 <HAL_SYSTICK_Config>:
  * @param  TicksNumb Specifies the ticks Number of ticks between two interrupts.
  * @retval status:  - 0  Function succeeded.
  *                  - 1  Function failed.
  */
uint32_t HAL_SYSTICK_Config(uint32_t TicksNumb)
{
 8004be2:	b580      	push	{r7, lr}
 8004be4:	b082      	sub	sp, #8
 8004be6:	af00      	add	r7, sp, #0
 8004be8:	6078      	str	r0, [r7, #4]
   return SysTick_Config(TicksNumb);
 8004bea:	6878      	ldr	r0, [r7, #4]
 8004bec:	f7ff ffa2 	bl	8004b34 <SysTick_Config>
 8004bf0:	4603      	mov	r3, r0
}
 8004bf2:	4618      	mov	r0, r3
 8004bf4:	3708      	adds	r7, #8
 8004bf6:	46bd      	mov	sp, r7
 8004bf8:	bd80      	pop	{r7, pc}

08004bfa <HAL_CRC_Init>:
  *         parameters in the CRC_InitTypeDef and create the associated handle.
  * @param  hcrc CRC handle
  * @retval HAL status
  */
HAL_StatusTypeDef HAL_CRC_Init(CRC_HandleTypeDef *hcrc)
{
 8004bfa:	b580      	push	{r7, lr}
 8004bfc:	b082      	sub	sp, #8
 8004bfe:	af00      	add	r7, sp, #0
 8004c00:	6078      	str	r0, [r7, #4]
  /* Check the CRC handle allocation */
  if (hcrc == NULL)
 8004c02:	687b      	ldr	r3, [r7, #4]
 8004c04:	2b00      	cmp	r3, #0
 8004c06:	d101      	bne.n	8004c0c <HAL_CRC_Init+0x12>
  {
    return HAL_ERROR;
 8004c08:	2301      	movs	r3, #1
 8004c0a:	e00e      	b.n	8004c2a <HAL_CRC_Init+0x30>
  }

  /* Check the parameters */
  assert_param(IS_CRC_ALL_INSTANCE(hcrc->Instance));

  if (hcrc->State == HAL_CRC_STATE_RESET)
 8004c0c:	687b      	ldr	r3, [r7, #4]
 8004c0e:	795b      	ldrb	r3, [r3, #5]
 8004c10:	b2db      	uxtb	r3, r3
 8004c12:	2b00      	cmp	r3, #0
 8004c14:	d105      	bne.n	8004c22 <HAL_CRC_Init+0x28>
  {
    /* Allocate lock resource and initialize it */
    hcrc->Lock = HAL_UNLOCKED;
 8004c16:	687b      	ldr	r3, [r7, #4]
 8004c18:	2200      	movs	r2, #0
 8004c1a:	711a      	strb	r2, [r3, #4]
    /* Init the low level hardware */
    HAL_CRC_MspInit(hcrc);
 8004c1c:	6878      	ldr	r0, [r7, #4]
 8004c1e:	f7fc fd3d 	bl	800169c <HAL_CRC_MspInit>
  }

  /* Change CRC peripheral state */
  hcrc->State = HAL_CRC_STATE_READY;
 8004c22:	687b      	ldr	r3, [r7, #4]
 8004c24:	2201      	movs	r2, #1
 8004c26:	715a      	strb	r2, [r3, #5]

  /* Return function status */
  return HAL_OK;
 8004c28:	2300      	movs	r3, #0
}
 8004c2a:	4618      	mov	r0, r3
 8004c2c:	3708      	adds	r7, #8
 8004c2e:	46bd      	mov	sp, r7
 8004c30:	bd80      	pop	{r7, pc}
	...

08004c34 <HAL_DMA_Init>:
  * @param  hdma Pointer to a DMA_HandleTypeDef structure that contains
  *               the configuration information for the specified DMA Stream.  
  * @retval HAL status
  */
HAL_StatusTypeDef HAL_DMA_Init(DMA_HandleTypeDef *hdma)
{
 8004c34:	b580      	push	{r7, lr}
 8004c36:	b086      	sub	sp, #24
 8004c38:	af00      	add	r7, sp, #0
 8004c3a:	6078      	str	r0, [r7, #4]
  uint32_t tmp = 0U;
 8004c3c:	2300      	movs	r3, #0
 8004c3e:	617b      	str	r3, [r7, #20]
  uint32_t tickstart = HAL_GetTick();
 8004c40:	f7ff fe9a 	bl	8004978 <HAL_GetTick>
 8004c44:	6138      	str	r0, [r7, #16]
  DMA_Base_Registers *regs;

  /* Check the DMA peripheral state */
  if(hdma == NULL)
 8004c46:	687b      	ldr	r3, [r7, #4]
 8004c48:	2b00      	cmp	r3, #0
 8004c4a:	d101      	bne.n	8004c50 <HAL_DMA_Init+0x1c>
  {
    return HAL_ERROR;
 8004c4c:	2301      	movs	r3, #1
 8004c4e:	e099      	b.n	8004d84 <HAL_DMA_Init+0x150>
    assert_param(IS_DMA_MEMORY_BURST(hdma->Init.MemBurst));
    assert_param(IS_DMA_PERIPHERAL_BURST(hdma->Init.PeriphBurst));
  }

  /* Change DMA peripheral state */
  hdma->State = HAL_DMA_STATE_BUSY;
 8004c50:	687b      	ldr	r3, [r7, #4]
 8004c52:	2202      	movs	r2, #2
 8004c54:	f883 2035 	strb.w	r2, [r3, #53]	@ 0x35

  /* Allocate lock resource */
  __HAL_UNLOCK(hdma);
 8004c58:	687b      	ldr	r3, [r7, #4]
 8004c5a:	2200      	movs	r2, #0
 8004c5c:	f883 2034 	strb.w	r2, [r3, #52]	@ 0x34
  
  /* Disable the peripheral */
  __HAL_DMA_DISABLE(hdma);
 8004c60:	687b      	ldr	r3, [r7, #4]
 8004c62:	681b      	ldr	r3, [r3, #0]
 8004c64:	681a      	ldr	r2, [r3, #0]
 8004c66:	687b      	ldr	r3, [r7, #4]
 8004c68:	681b      	ldr	r3, [r3, #0]
 8004c6a:	f022 0201 	bic.w	r2, r2, #1
 8004c6e:	601a      	str	r2, [r3, #0]
  
  /* Check if the DMA Stream is effectively disabled */
  while((hdma->Instance->CR & DMA_SxCR_EN) != RESET)
 8004c70:	e00f      	b.n	8004c92 <HAL_DMA_Init+0x5e>
  {
    /* Check for the Timeout */
    if((HAL_GetTick() - tickstart ) > HAL_TIMEOUT_DMA_ABORT)
 8004c72:	f7ff fe81 	bl	8004978 <HAL_GetTick>
 8004c76:	4602      	mov	r2, r0
 8004c78:	693b      	ldr	r3, [r7, #16]
 8004c7a:	1ad3      	subs	r3, r2, r3
 8004c7c:	2b05      	cmp	r3, #5
 8004c7e:	d908      	bls.n	8004c92 <HAL_DMA_Init+0x5e>
    {
      /* Update error code */
      hdma->ErrorCode = HAL_DMA_ERROR_TIMEOUT;
 8004c80:	687b      	ldr	r3, [r7, #4]
 8004c82:	2220      	movs	r2, #32
 8004c84:	655a      	str	r2, [r3, #84]	@ 0x54
      
      /* Change the DMA state */
      hdma->State = HAL_DMA_STATE_TIMEOUT;
 8004c86:	687b      	ldr	r3, [r7, #4]
 8004c88:	2203      	movs	r2, #3
 8004c8a:	f883 2035 	strb.w	r2, [r3, #53]	@ 0x35
      
      return HAL_TIMEOUT;
 8004c8e:	2303      	movs	r3, #3
 8004c90:	e078      	b.n	8004d84 <HAL_DMA_Init+0x150>
  while((hdma->Instance->CR & DMA_SxCR_EN) != RESET)
 8004c92:	687b      	ldr	r3, [r7, #4]
 8004c94:	681b      	ldr	r3, [r3, #0]
 8004c96:	681b      	ldr	r3, [r3, #0]
 8004c98:	f003 0301 	and.w	r3, r3, #1
 8004c9c:	2b00      	cmp	r3, #0
 8004c9e:	d1e8      	bne.n	8004c72 <HAL_DMA_Init+0x3e>
    }
  }
  
  /* Get the CR register value */
  tmp = hdma->Instance->CR;
 8004ca0:	687b      	ldr	r3, [r7, #4]
 8004ca2:	681b      	ldr	r3, [r3, #0]
 8004ca4:	681b      	ldr	r3, [r3, #0]
 8004ca6:	617b      	str	r3, [r7, #20]

  /* Clear CHSEL, MBURST, PBURST, PL, MSIZE, PSIZE, MINC, PINC, CIRC, DIR, CT and DBM bits */
  tmp &= ((uint32_t)~(DMA_SxCR_CHSEL | DMA_SxCR_MBURST | DMA_SxCR_PBURST | \
 8004ca8:	697a      	ldr	r2, [r7, #20]
 8004caa:	4b38      	ldr	r3, [pc, #224]	@ (8004d8c <HAL_DMA_Init+0x158>)
 8004cac:	4013      	ands	r3, r2
 8004cae:	617b      	str	r3, [r7, #20]
                      DMA_SxCR_PL    | DMA_SxCR_MSIZE  | DMA_SxCR_PSIZE  | \
                      DMA_SxCR_MINC  | DMA_SxCR_PINC   | DMA_SxCR_CIRC   | \
                      DMA_SxCR_DIR   | DMA_SxCR_CT     | DMA_SxCR_DBM));

  /* Prepare the DMA Stream configuration */
  tmp |=  hdma->Init.Channel             | hdma->Init.Direction        |
 8004cb0:	687b      	ldr	r3, [r7, #4]
 8004cb2:	685a      	ldr	r2, [r3, #4]
 8004cb4:	687b      	ldr	r3, [r7, #4]
 8004cb6:	689b      	ldr	r3, [r3, #8]
 8004cb8:	431a      	orrs	r2, r3
          hdma->Init.PeriphInc           | hdma->Init.MemInc           |
 8004cba:	687b      	ldr	r3, [r7, #4]
 8004cbc:	68db      	ldr	r3, [r3, #12]
  tmp |=  hdma->Init.Channel             | hdma->Init.Direction        |
 8004cbe:	431a      	orrs	r2, r3
          hdma->Init.PeriphInc           | hdma->Init.MemInc           |
 8004cc0:	687b      	ldr	r3, [r7, #4]
 8004cc2:	691b      	ldr	r3, [r3, #16]
 8004cc4:	431a      	orrs	r2, r3
          hdma->Init.PeriphDataAlignment | hdma->Init.MemDataAlignment |
 8004cc6:	687b      	ldr	r3, [r7, #4]
 8004cc8:	695b      	ldr	r3, [r3, #20]
          hdma->Init.PeriphInc           | hdma->Init.MemInc           |
 8004cca:	431a      	orrs	r2, r3
          hdma->Init.PeriphDataAlignment | hdma->Init.MemDataAlignment |
 8004ccc:	687b      	ldr	r3, [r7, #4]
 8004cce:	699b      	ldr	r3, [r3, #24]
 8004cd0:	431a      	orrs	r2, r3
          hdma->Init.Mode                | hdma->Init.Priority;
 8004cd2:	687b      	ldr	r3, [r7, #4]
 8004cd4:	69db      	ldr	r3, [r3, #28]
          hdma->Init.PeriphDataAlignment | hdma->Init.MemDataAlignment |
 8004cd6:	431a      	orrs	r2, r3
          hdma->Init.Mode                | hdma->Init.Priority;
 8004cd8:	687b      	ldr	r3, [r7, #4]
 8004cda:	6a1b      	ldr	r3, [r3, #32]
 8004cdc:	4313      	orrs	r3, r2
  tmp |=  hdma->Init.Channel             | hdma->Init.Direction        |
 8004cde:	697a      	ldr	r2, [r7, #20]
 8004ce0:	4313      	orrs	r3, r2
 8004ce2:	617b      	str	r3, [r7, #20]

  /* the Memory burst and peripheral burst are not used when the FIFO is disabled */
  if(hdma->Init.FIFOMode == DMA_FIFOMODE_ENABLE)
 8004ce4:	687b      	ldr	r3, [r7, #4]
 8004ce6:	6a5b      	ldr	r3, [r3, #36]	@ 0x24
 8004ce8:	2b04      	cmp	r3, #4
 8004cea:	d107      	bne.n	8004cfc <HAL_DMA_Init+0xc8>
  {
    /* Get memory burst and peripheral burst */
    tmp |=  hdma->Init.MemBurst | hdma->Init.PeriphBurst;
 8004cec:	687b      	ldr	r3, [r7, #4]
 8004cee:	6ada      	ldr	r2, [r3, #44]	@ 0x2c
 8004cf0:	687b      	ldr	r3, [r7, #4]
 8004cf2:	6b1b      	ldr	r3, [r3, #48]	@ 0x30
 8004cf4:	4313      	orrs	r3, r2
 8004cf6:	697a      	ldr	r2, [r7, #20]
 8004cf8:	4313      	orrs	r3, r2
 8004cfa:	617b      	str	r3, [r7, #20]
  }
  
  /* Write to DMA Stream CR register */
  hdma->Instance->CR = tmp;  
 8004cfc:	687b      	ldr	r3, [r7, #4]
 8004cfe:	681b      	ldr	r3, [r3, #0]
 8004d00:	697a      	ldr	r2, [r7, #20]
 8004d02:	601a      	str	r2, [r3, #0]

  /* Get the FCR register value */
  tmp = hdma->Instance->FCR;
 8004d04:	687b      	ldr	r3, [r7, #4]
 8004d06:	681b      	ldr	r3, [r3, #0]
 8004d08:	695b      	ldr	r3, [r3, #20]
 8004d0a:	617b      	str	r3, [r7, #20]

  /* Clear Direct mode and FIFO threshold bits */
  tmp &= (uint32_t)~(DMA_SxFCR_DMDIS | DMA_SxFCR_FTH);
 8004d0c:	697b      	ldr	r3, [r7, #20]
 8004d0e:	f023 0307 	bic.w	r3, r3, #7
 8004d12:	617b      	str	r3, [r7, #20]

  /* Prepare the DMA Stream FIFO configuration */
  tmp |= hdma->Init.FIFOMode;
 8004d14:	687b      	ldr	r3, [r7, #4]
 8004d16:	6a5b      	ldr	r3, [r3, #36]	@ 0x24
 8004d18:	697a      	ldr	r2, [r7, #20]
 8004d1a:	4313      	orrs	r3, r2
 8004d1c:	617b      	str	r3, [r7, #20]

  /* The FIFO threshold is not used when the FIFO mode is disabled */
  if(hdma->Init.FIFOMode == DMA_FIFOMODE_ENABLE)
 8004d1e:	687b      	ldr	r3, [r7, #4]
 8004d20:	6a5b      	ldr	r3, [r3, #36]	@ 0x24
 8004d22:	2b04      	cmp	r3, #4
 8004d24:	d117      	bne.n	8004d56 <HAL_DMA_Init+0x122>
  {
    /* Get the FIFO threshold */
    tmp |= hdma->Init.FIFOThreshold;
 8004d26:	687b      	ldr	r3, [r7, #4]
 8004d28:	6a9b      	ldr	r3, [r3, #40]	@ 0x28
 8004d2a:	697a      	ldr	r2, [r7, #20]
 8004d2c:	4313      	orrs	r3, r2
 8004d2e:	617b      	str	r3, [r7, #20]
    
    /* Check compatibility between FIFO threshold level and size of the memory burst */
    /* for INCR4, INCR8, INCR16 bursts */
    if (hdma->Init.MemBurst != DMA_MBURST_SINGLE)
 8004d30:	687b      	ldr	r3, [r7, #4]
 8004d32:	6adb      	ldr	r3, [r3, #44]	@ 0x2c
 8004d34:	2b00      	cmp	r3, #0
 8004d36:	d00e      	beq.n	8004d56 <HAL_DMA_Init+0x122>
    {
      if (DMA_CheckFifoParam(hdma) != HAL_OK)
 8004d38:	6878      	ldr	r0, [r7, #4]
 8004d3a:	f000 fa6f 	bl	800521c <DMA_CheckFifoParam>
 8004d3e:	4603      	mov	r3, r0
 8004d40:	2b00      	cmp	r3, #0
 8004d42:	d008      	beq.n	8004d56 <HAL_DMA_Init+0x122>
      {
        /* Update error code */
        hdma->ErrorCode = HAL_DMA_ERROR_PARAM;
 8004d44:	687b      	ldr	r3, [r7, #4]
 8004d46:	2240      	movs	r2, #64	@ 0x40
 8004d48:	655a      	str	r2, [r3, #84]	@ 0x54
        
        /* Change the DMA state */
        hdma->State = HAL_DMA_STATE_READY;
 8004d4a:	687b      	ldr	r3, [r7, #4]
 8004d4c:	2201      	movs	r2, #1
 8004d4e:	f883 2035 	strb.w	r2, [r3, #53]	@ 0x35
        
        return HAL_ERROR; 
 8004d52:	2301      	movs	r3, #1
 8004d54:	e016      	b.n	8004d84 <HAL_DMA_Init+0x150>
      }
    }
  }
  
  /* Write to DMA Stream FCR */
  hdma->Instance->FCR = tmp;
 8004d56:	687b      	ldr	r3, [r7, #4]
 8004d58:	681b      	ldr	r3, [r3, #0]
 8004d5a:	697a      	ldr	r2, [r7, #20]
 8004d5c:	615a      	str	r2, [r3, #20]

  /* Initialize StreamBaseAddress and StreamIndex parameters to be used to calculate
     DMA steam Base Address needed by HAL_DMA_IRQHandler() and HAL_DMA_PollForTransfer() */
  regs = (DMA_Base_Registers *)DMA_CalcBaseAndBitshift(hdma);
 8004d5e:	6878      	ldr	r0, [r7, #4]
 8004d60:	f000 fa26 	bl	80051b0 <DMA_CalcBaseAndBitshift>
 8004d64:	4603      	mov	r3, r0
 8004d66:	60fb      	str	r3, [r7, #12]
  
  /* Clear all interrupt flags */
  regs->IFCR = 0x3FU << hdma->StreamIndex;
 8004d68:	687b      	ldr	r3, [r7, #4]
 8004d6a:	6ddb      	ldr	r3, [r3, #92]	@ 0x5c
 8004d6c:	223f      	movs	r2, #63	@ 0x3f
 8004d6e:	409a      	lsls	r2, r3
 8004d70:	68fb      	ldr	r3, [r7, #12]
 8004d72:	609a      	str	r2, [r3, #8]

  /* Initialize the error code */
  hdma->ErrorCode = HAL_DMA_ERROR_NONE;
 8004d74:	687b      	ldr	r3, [r7, #4]
 8004d76:	2200      	movs	r2, #0
 8004d78:	655a      	str	r2, [r3, #84]	@ 0x54
                                                                                     
  /* Initialize the DMA state */
  hdma->State = HAL_DMA_STATE_READY;
 8004d7a:	687b      	ldr	r3, [r7, #4]
 8004d7c:	2201      	movs	r2, #1
 8004d7e:	f883 2035 	strb.w	r2, [r3, #53]	@ 0x35

  return HAL_OK;
 8004d82:	2300      	movs	r3, #0
}
 8004d84:	4618      	mov	r0, r3
 8004d86:	3718      	adds	r7, #24
 8004d88:	46bd      	mov	sp, r7
 8004d8a:	bd80      	pop	{r7, pc}
 8004d8c:	f010803f 	.word	0xf010803f

08004d90 <HAL_DMA_Start_IT>:
  * @param  DstAddress The destination memory Buffer address
  * @param  DataLength The length of data to be transferred from source to destination
  * @retval HAL status
  */
HAL_StatusTypeDef HAL_DMA_Start_IT(DMA_HandleTypeDef *hdma, uint32_t SrcAddress, uint32_t DstAddress, uint32_t DataLength)
{
 8004d90:	b580      	push	{r7, lr}
 8004d92:	b086      	sub	sp, #24
 8004d94:	af00      	add	r7, sp, #0
 8004d96:	60f8      	str	r0, [r7, #12]
 8004d98:	60b9      	str	r1, [r7, #8]
 8004d9a:	607a      	str	r2, [r7, #4]
 8004d9c:	603b      	str	r3, [r7, #0]
  HAL_StatusTypeDef status = HAL_OK;
 8004d9e:	2300      	movs	r3, #0
 8004da0:	75fb      	strb	r3, [r7, #23]

  /* calculate DMA base and stream number */
  DMA_Base_Registers *regs = (DMA_Base_Registers *)hdma->StreamBaseAddress;
 8004da2:	68fb      	ldr	r3, [r7, #12]
 8004da4:	6d9b      	ldr	r3, [r3, #88]	@ 0x58
 8004da6:	613b      	str	r3, [r7, #16]
  
  /* Check the parameters */
  assert_param(IS_DMA_BUFFER_SIZE(DataLength));
 
  /* Process locked */
  __HAL_LOCK(hdma);
 8004da8:	68fb      	ldr	r3, [r7, #12]
 8004daa:	f893 3034 	ldrb.w	r3, [r3, #52]	@ 0x34
 8004dae:	2b01      	cmp	r3, #1
 8004db0:	d101      	bne.n	8004db6 <HAL_DMA_Start_IT+0x26>
 8004db2:	2302      	movs	r3, #2
 8004db4:	e040      	b.n	8004e38 <HAL_DMA_Start_IT+0xa8>
 8004db6:	68fb      	ldr	r3, [r7, #12]
 8004db8:	2201      	movs	r2, #1
 8004dba:	f883 2034 	strb.w	r2, [r3, #52]	@ 0x34
  
  if(HAL_DMA_STATE_READY == hdma->State)
 8004dbe:	68fb      	ldr	r3, [r7, #12]
 8004dc0:	f893 3035 	ldrb.w	r3, [r3, #53]	@ 0x35
 8004dc4:	b2db      	uxtb	r3, r3
 8004dc6:	2b01      	cmp	r3, #1
 8004dc8:	d12f      	bne.n	8004e2a <HAL_DMA_Start_IT+0x9a>
  {
    /* Change DMA peripheral state */
    hdma->State = HAL_DMA_STATE_BUSY;
 8004dca:	68fb      	ldr	r3, [r7, #12]
 8004dcc:	2202      	movs	r2, #2
 8004dce:	f883 2035 	strb.w	r2, [r3, #53]	@ 0x35
    
    /* Initialize the error code */
    hdma->ErrorCode = HAL_DMA_ERROR_NONE;
 8004dd2:	68fb      	ldr	r3, [r7, #12]
 8004dd4:	2200      	movs	r2, #0
 8004dd6:	655a      	str	r2, [r3, #84]	@ 0x54
    
    /* Configure the source, destination address and the data length */
    DMA_SetConfig(hdma, SrcAddress, DstAddress, DataLength);
 8004dd8:	683b      	ldr	r3, [r7, #0]
 8004dda:	687a      	ldr	r2, [r7, #4]
 8004ddc:	68b9      	ldr	r1, [r7, #8]
 8004dde:	68f8      	ldr	r0, [r7, #12]
 8004de0:	f000 f9b8 	bl	8005154 <DMA_SetConfig>
    
    /* Clear all interrupt flags at correct offset within the register */
    regs->IFCR = 0x3FU << hdma->StreamIndex;
 8004de4:	68fb      	ldr	r3, [r7, #12]
 8004de6:	6ddb      	ldr	r3, [r3, #92]	@ 0x5c
 8004de8:	223f      	movs	r2, #63	@ 0x3f
 8004dea:	409a      	lsls	r2, r3
 8004dec:	693b      	ldr	r3, [r7, #16]
 8004dee:	609a      	str	r2, [r3, #8]
    
    /* Enable Common interrupts*/
    hdma->Instance->CR  |= DMA_IT_TC | DMA_IT_TE | DMA_IT_DME;
 8004df0:	68fb      	ldr	r3, [r7, #12]
 8004df2:	681b      	ldr	r3, [r3, #0]
 8004df4:	681a      	ldr	r2, [r3, #0]
 8004df6:	68fb      	ldr	r3, [r7, #12]
 8004df8:	681b      	ldr	r3, [r3, #0]
 8004dfa:	f042 0216 	orr.w	r2, r2, #22
 8004dfe:	601a      	str	r2, [r3, #0]
    
    if(hdma->XferHalfCpltCallback != NULL)
 8004e00:	68fb      	ldr	r3, [r7, #12]
 8004e02:	6c1b      	ldr	r3, [r3, #64]	@ 0x40
 8004e04:	2b00      	cmp	r3, #0
 8004e06:	d007      	beq.n	8004e18 <HAL_DMA_Start_IT+0x88>
    {
      hdma->Instance->CR  |= DMA_IT_HT;
 8004e08:	68fb      	ldr	r3, [r7, #12]
 8004e0a:	681b      	ldr	r3, [r3, #0]
 8004e0c:	681a      	ldr	r2, [r3, #0]
 8004e0e:	68fb      	ldr	r3, [r7, #12]
 8004e10:	681b      	ldr	r3, [r3, #0]
 8004e12:	f042 0208 	orr.w	r2, r2, #8
 8004e16:	601a      	str	r2, [r3, #0]
    }
    
    /* Enable the Peripheral */
    __HAL_DMA_ENABLE(hdma);
 8004e18:	68fb      	ldr	r3, [r7, #12]
 8004e1a:	681b      	ldr	r3, [r3, #0]
 8004e1c:	681a      	ldr	r2, [r3, #0]
 8004e1e:	68fb      	ldr	r3, [r7, #12]
 8004e20:	681b      	ldr	r3, [r3, #0]
 8004e22:	f042 0201 	orr.w	r2, r2, #1
 8004e26:	601a      	str	r2, [r3, #0]
 8004e28:	e005      	b.n	8004e36 <HAL_DMA_Start_IT+0xa6>
  }
  else
  {
    /* Process unlocked */
    __HAL_UNLOCK(hdma);	  
 8004e2a:	68fb      	ldr	r3, [r7, #12]
 8004e2c:	2200      	movs	r2, #0
 8004e2e:	f883 2034 	strb.w	r2, [r3, #52]	@ 0x34
    
    /* Return error status */
    status = HAL_BUSY;
 8004e32:	2302      	movs	r3, #2
 8004e34:	75fb      	strb	r3, [r7, #23]
  }
  
  return status;
 8004e36:	7dfb      	ldrb	r3, [r7, #23]
}
 8004e38:	4618      	mov	r0, r3
 8004e3a:	3718      	adds	r7, #24
 8004e3c:	46bd      	mov	sp, r7
 8004e3e:	bd80      	pop	{r7, pc}

08004e40 <HAL_DMA_IRQHandler>:
  * @param  hdma pointer to a DMA_HandleTypeDef structure that contains
  *               the configuration information for the specified DMA Stream.  
  * @retval None
  */
void HAL_DMA_IRQHandler(DMA_HandleTypeDef *hdma)
{
 8004e40:	b580      	push	{r7, lr}
 8004e42:	b086      	sub	sp, #24
 8004e44:	af00      	add	r7, sp, #0
 8004e46:	6078      	str	r0, [r7, #4]
  uint32_t tmpisr;
  __IO uint32_t count = 0U;
 8004e48:	2300      	movs	r3, #0
 8004e4a:	60bb      	str	r3, [r7, #8]
  uint32_t timeout = SystemCoreClock / 9600U;
 8004e4c:	4b8e      	ldr	r3, [pc, #568]	@ (8005088 <HAL_DMA_IRQHandler+0x248>)
 8004e4e:	681b      	ldr	r3, [r3, #0]
 8004e50:	4a8e      	ldr	r2, [pc, #568]	@ (800508c <HAL_DMA_IRQHandler+0x24c>)
 8004e52:	fba2 2303 	umull	r2, r3, r2, r3
 8004e56:	0a9b      	lsrs	r3, r3, #10
 8004e58:	617b      	str	r3, [r7, #20]

  /* calculate DMA base and stream number */
  DMA_Base_Registers *regs = (DMA_Base_Registers *)hdma->StreamBaseAddress;
 8004e5a:	687b      	ldr	r3, [r7, #4]
 8004e5c:	6d9b      	ldr	r3, [r3, #88]	@ 0x58
 8004e5e:	613b      	str	r3, [r7, #16]

  tmpisr = regs->ISR;
 8004e60:	693b      	ldr	r3, [r7, #16]
 8004e62:	681b      	ldr	r3, [r3, #0]
 8004e64:	60fb      	str	r3, [r7, #12]

  /* Transfer Error Interrupt management ***************************************/
  if ((tmpisr & (DMA_FLAG_TEIF0_4 << hdma->StreamIndex)) != RESET)
 8004e66:	687b      	ldr	r3, [r7, #4]
 8004e68:	6ddb      	ldr	r3, [r3, #92]	@ 0x5c
 8004e6a:	2208      	movs	r2, #8
 8004e6c:	409a      	lsls	r2, r3
 8004e6e:	68fb      	ldr	r3, [r7, #12]
 8004e70:	4013      	ands	r3, r2
 8004e72:	2b00      	cmp	r3, #0
 8004e74:	d01a      	beq.n	8004eac <HAL_DMA_IRQHandler+0x6c>
  {
    if(__HAL_DMA_GET_IT_SOURCE(hdma, DMA_IT_TE) != RESET)
 8004e76:	687b      	ldr	r3, [r7, #4]
 8004e78:	681b      	ldr	r3, [r3, #0]
 8004e7a:	681b      	ldr	r3, [r3, #0]
 8004e7c:	f003 0304 	and.w	r3, r3, #4
 8004e80:	2b00      	cmp	r3, #0
 8004e82:	d013      	beq.n	8004eac <HAL_DMA_IRQHandler+0x6c>
    {
      /* Disable the transfer error interrupt */
      hdma->Instance->CR  &= ~(DMA_IT_TE);
 8004e84:	687b      	ldr	r3, [r7, #4]
 8004e86:	681b      	ldr	r3, [r3, #0]
 8004e88:	681a      	ldr	r2, [r3, #0]
 8004e8a:	687b      	ldr	r3, [r7, #4]
 8004e8c:	681b      	ldr	r3, [r3, #0]
 8004e8e:	f022 0204 	bic.w	r2, r2, #4
 8004e92:	601a      	str	r2, [r3, #0]
      
      /* Clear the transfer error flag */
      regs->IFCR = DMA_FLAG_TEIF0_4 << hdma->StreamIndex;
 8004e94:	687b      	ldr	r3, [r7, #4]
 8004e96:	6ddb      	ldr	r3, [r3, #92]	@ 0x5c
 8004e98:	2208      	movs	r2, #8
 8004e9a:	409a      	lsls	r2, r3
 8004e9c:	693b      	ldr	r3, [r7, #16]
 8004e9e:	609a      	str	r2, [r3, #8]
      
      /* Update error code */
      hdma->ErrorCode |= HAL_DMA_ERROR_TE;
 8004ea0:	687b      	ldr	r3, [r7, #4]
 8004ea2:	6d5b      	ldr	r3, [r3, #84]	@ 0x54
 8004ea4:	f043 0201 	orr.w	r2, r3, #1
 8004ea8:	687b      	ldr	r3, [r7, #4]
 8004eaa:	655a      	str	r2, [r3, #84]	@ 0x54
    }
  }
  /* FIFO Error Interrupt management ******************************************/
  if ((tmpisr & (DMA_FLAG_FEIF0_4 << hdma->StreamIndex)) != RESET)
 8004eac:	687b      	ldr	r3, [r7, #4]
 8004eae:	6ddb      	ldr	r3, [r3, #92]	@ 0x5c
 8004eb0:	2201      	movs	r2, #1
 8004eb2:	409a      	lsls	r2, r3
 8004eb4:	68fb      	ldr	r3, [r7, #12]
 8004eb6:	4013      	ands	r3, r2
 8004eb8:	2b00      	cmp	r3, #0
 8004eba:	d012      	beq.n	8004ee2 <HAL_DMA_IRQHandler+0xa2>
  {
    if(__HAL_DMA_GET_IT_SOURCE(hdma, DMA_IT_FE) != RESET)
 8004ebc:	687b      	ldr	r3, [r7, #4]
 8004ebe:	681b      	ldr	r3, [r3, #0]
 8004ec0:	695b      	ldr	r3, [r3, #20]
 8004ec2:	f003 0380 	and.w	r3, r3, #128	@ 0x80
 8004ec6:	2b00      	cmp	r3, #0
 8004ec8:	d00b      	beq.n	8004ee2 <HAL_DMA_IRQHandler+0xa2>
    {
      /* Clear the FIFO error flag */
      regs->IFCR = DMA_FLAG_FEIF0_4 << hdma->StreamIndex;
 8004eca:	687b      	ldr	r3, [r7, #4]
 8004ecc:	6ddb      	ldr	r3, [r3, #92]	@ 0x5c
 8004ece:	2201      	movs	r2, #1
 8004ed0:	409a      	lsls	r2, r3
 8004ed2:	693b      	ldr	r3, [r7, #16]
 8004ed4:	609a      	str	r2, [r3, #8]

      /* Update error code */
      hdma->ErrorCode |= HAL_DMA_ERROR_FE;
 8004ed6:	687b      	ldr	r3, [r7, #4]
 8004ed8:	6d5b      	ldr	r3, [r3, #84]	@ 0x54
 8004eda:	f043 0202 	orr.w	r2, r3, #2
 8004ede:	687b      	ldr	r3, [r7, #4]
 8004ee0:	655a      	str	r2, [r3, #84]	@ 0x54
    }
  }
  /* Direct Mode Error Interrupt management ***********************************/
  if ((tmpisr & (DMA_FLAG_DMEIF0_4 << hdma->StreamIndex)) != RESET)
 8004ee2:	687b      	ldr	r3, [r7, #4]
 8004ee4:	6ddb      	ldr	r3, [r3, #92]	@ 0x5c
 8004ee6:	2204      	movs	r2, #4
 8004ee8:	409a      	lsls	r2, r3
 8004eea:	68fb      	ldr	r3, [r7, #12]
 8004eec:	4013      	ands	r3, r2
 8004eee:	2b00      	cmp	r3, #0
 8004ef0:	d012      	beq.n	8004f18 <HAL_DMA_IRQHandler+0xd8>
  {
    if(__HAL_DMA_GET_IT_SOURCE(hdma, DMA_IT_DME) != RESET)
 8004ef2:	687b      	ldr	r3, [r7, #4]
 8004ef4:	681b      	ldr	r3, [r3, #0]
 8004ef6:	681b      	ldr	r3, [r3, #0]
 8004ef8:	f003 0302 	and.w	r3, r3, #2
 8004efc:	2b00      	cmp	r3, #0
 8004efe:	d00b      	beq.n	8004f18 <HAL_DMA_IRQHandler+0xd8>
    {
      /* Clear the direct mode error flag */
      regs->IFCR = DMA_FLAG_DMEIF0_4 << hdma->StreamIndex;
 8004f00:	687b      	ldr	r3, [r7, #4]
 8004f02:	6ddb      	ldr	r3, [r3, #92]	@ 0x5c
 8004f04:	2204      	movs	r2, #4
 8004f06:	409a      	lsls	r2, r3
 8004f08:	693b      	ldr	r3, [r7, #16]
 8004f0a:	609a      	str	r2, [r3, #8]

      /* Update error code */
      hdma->ErrorCode |= HAL_DMA_ERROR_DME;
 8004f0c:	687b      	ldr	r3, [r7, #4]
 8004f0e:	6d5b      	ldr	r3, [r3, #84]	@ 0x54
 8004f10:	f043 0204 	orr.w	r2, r3, #4
 8004f14:	687b      	ldr	r3, [r7, #4]
 8004f16:	655a      	str	r2, [r3, #84]	@ 0x54
    }
  }
  /* Half Transfer Complete Interrupt management ******************************/
  if ((tmpisr & (DMA_FLAG_HTIF0_4 << hdma->StreamIndex)) != RESET)
 8004f18:	687b      	ldr	r3, [r7, #4]
 8004f1a:	6ddb      	ldr	r3, [r3, #92]	@ 0x5c
 8004f1c:	2210      	movs	r2, #16
 8004f1e:	409a      	lsls	r2, r3
 8004f20:	68fb      	ldr	r3, [r7, #12]
 8004f22:	4013      	ands	r3, r2
 8004f24:	2b00      	cmp	r3, #0
 8004f26:	d043      	beq.n	8004fb0 <HAL_DMA_IRQHandler+0x170>
  {
    if(__HAL_DMA_GET_IT_SOURCE(hdma, DMA_IT_HT) != RESET)
 8004f28:	687b      	ldr	r3, [r7, #4]
 8004f2a:	681b      	ldr	r3, [r3, #0]
 8004f2c:	681b      	ldr	r3, [r3, #0]
 8004f2e:	f003 0308 	and.w	r3, r3, #8
 8004f32:	2b00      	cmp	r3, #0
 8004f34:	d03c      	beq.n	8004fb0 <HAL_DMA_IRQHandler+0x170>
    {
      /* Clear the half transfer complete flag */
      regs->IFCR = DMA_FLAG_HTIF0_4 << hdma->StreamIndex;
 8004f36:	687b      	ldr	r3, [r7, #4]
 8004f38:	6ddb      	ldr	r3, [r3, #92]	@ 0x5c
 8004f3a:	2210      	movs	r2, #16
 8004f3c:	409a      	lsls	r2, r3
 8004f3e:	693b      	ldr	r3, [r7, #16]
 8004f40:	609a      	str	r2, [r3, #8]
      
      /* Multi_Buffering mode enabled */
      if(((hdma->Instance->CR) & (uint32_t)(DMA_SxCR_DBM)) != RESET)
 8004f42:	687b      	ldr	r3, [r7, #4]
 8004f44:	681b      	ldr	r3, [r3, #0]
 8004f46:	681b      	ldr	r3, [r3, #0]
 8004f48:	f403 2380 	and.w	r3, r3, #262144	@ 0x40000
 8004f4c:	2b00      	cmp	r3, #0
 8004f4e:	d018      	beq.n	8004f82 <HAL_DMA_IRQHandler+0x142>
      {
        /* Current memory buffer used is Memory 0 */
        if((hdma->Instance->CR & DMA_SxCR_CT) == RESET)
 8004f50:	687b      	ldr	r3, [r7, #4]
 8004f52:	681b      	ldr	r3, [r3, #0]
 8004f54:	681b      	ldr	r3, [r3, #0]
 8004f56:	f403 2300 	and.w	r3, r3, #524288	@ 0x80000
 8004f5a:	2b00      	cmp	r3, #0
 8004f5c:	d108      	bne.n	8004f70 <HAL_DMA_IRQHandler+0x130>
        {
          if(hdma->XferHalfCpltCallback != NULL)
 8004f5e:	687b      	ldr	r3, [r7, #4]
 8004f60:	6c1b      	ldr	r3, [r3, #64]	@ 0x40
 8004f62:	2b00      	cmp	r3, #0
 8004f64:	d024      	beq.n	8004fb0 <HAL_DMA_IRQHandler+0x170>
          {
            /* Half transfer callback */
            hdma->XferHalfCpltCallback(hdma);
 8004f66:	687b      	ldr	r3, [r7, #4]
 8004f68:	6c1b      	ldr	r3, [r3, #64]	@ 0x40
 8004f6a:	6878      	ldr	r0, [r7, #4]
 8004f6c:	4798      	blx	r3
 8004f6e:	e01f      	b.n	8004fb0 <HAL_DMA_IRQHandler+0x170>
          }
        }
        /* Current memory buffer used is Memory 1 */
        else
        {
          if(hdma->XferM1HalfCpltCallback != NULL)
 8004f70:	687b      	ldr	r3, [r7, #4]
 8004f72:	6c9b      	ldr	r3, [r3, #72]	@ 0x48
 8004f74:	2b00      	cmp	r3, #0
 8004f76:	d01b      	beq.n	8004fb0 <HAL_DMA_IRQHandler+0x170>
          {
            /* Half transfer callback */
            hdma->XferM1HalfCpltCallback(hdma);
 8004f78:	687b      	ldr	r3, [r7, #4]
 8004f7a:	6c9b      	ldr	r3, [r3, #72]	@ 0x48
 8004f7c:	6878      	ldr	r0, [r7, #4]
 8004f7e:	4798      	blx	r3
 8004f80:	e016      	b.n	8004fb0 <HAL_DMA_IRQHandler+0x170>
        }
      }
      else
      {
        /* Disable the half transfer interrupt if the DMA mode is not CIRCULAR */
        if((hdma->Instance->CR & DMA_SxCR_CIRC) == RESET)
 8004f82:	687b      	ldr	r3, [r7, #4]
 8004f84:	681b      	ldr	r3, [r3, #0]
 8004f86:	681b      	ldr	r3, [r3, #0]
 8004f88:	f403 7380 	and.w	r3, r3, #256	@ 0x100
 8004f8c:	2b00      	cmp	r3, #0
 8004f8e:	d107      	bne.n	8004fa0 <HAL_DMA_IRQHandler+0x160>
        {
          /* Disable the half transfer interrupt */
          hdma->Instance->CR  &= ~(DMA_IT_HT);
 8004f90:	687b      	ldr	r3, [r7, #4]
 8004f92:	681b      	ldr	r3, [r3, #0]
 8004f94:	681a      	ldr	r2, [r3, #0]
 8004f96:	687b      	ldr	r3, [r7, #4]
 8004f98:	681b      	ldr	r3, [r3, #0]
 8004f9a:	f022 0208 	bic.w	r2, r2, #8
 8004f9e:	601a      	str	r2, [r3, #0]
        }
        
        if(hdma->XferHalfCpltCallback != NULL)
 8004fa0:	687b      	ldr	r3, [r7, #4]
 8004fa2:	6c1b      	ldr	r3, [r3, #64]	@ 0x40
 8004fa4:	2b00      	cmp	r3, #0
 8004fa6:	d003      	beq.n	8004fb0 <HAL_DMA_IRQHandler+0x170>
        {
          /* Half transfer callback */
          hdma->XferHalfCpltCallback(hdma);
 8004fa8:	687b      	ldr	r3, [r7, #4]
 8004faa:	6c1b      	ldr	r3, [r3, #64]	@ 0x40
 8004fac:	6878      	ldr	r0, [r7, #4]
 8004fae:	4798      	blx	r3
        }
      }
    }
  }
  /* Transfer Complete Interrupt management ***********************************/
  if ((tmpisr & (DMA_FLAG_TCIF0_4 << hdma->StreamIndex)) != RESET)
 8004fb0:	687b      	ldr	r3, [r7, #4]
 8004fb2:	6ddb      	ldr	r3, [r3, #92]	@ 0x5c
 8004fb4:	2220      	movs	r2, #32
 8004fb6:	409a      	lsls	r2, r3
 8004fb8:	68fb      	ldr	r3, [r7, #12]
 8004fba:	4013      	ands	r3, r2
 8004fbc:	2b00      	cmp	r3, #0
 8004fbe:	f000 808f 	beq.w	80050e0 <HAL_DMA_IRQHandler+0x2a0>
  {
    if(__HAL_DMA_GET_IT_SOURCE(hdma, DMA_IT_TC) != RESET)
 8004fc2:	687b      	ldr	r3, [r7, #4]
 8004fc4:	681b      	ldr	r3, [r3, #0]
 8004fc6:	681b      	ldr	r3, [r3, #0]
 8004fc8:	f003 0310 	and.w	r3, r3, #16
 8004fcc:	2b00      	cmp	r3, #0
 8004fce:	f000 8087 	beq.w	80050e0 <HAL_DMA_IRQHandler+0x2a0>
    {
      /* Clear the transfer complete flag */
      regs->IFCR = DMA_FLAG_TCIF0_4 << hdma->StreamIndex;
 8004fd2:	687b      	ldr	r3, [r7, #4]
 8004fd4:	6ddb      	ldr	r3, [r3, #92]	@ 0x5c
 8004fd6:	2220      	movs	r2, #32
 8004fd8:	409a      	lsls	r2, r3
 8004fda:	693b      	ldr	r3, [r7, #16]
 8004fdc:	609a      	str	r2, [r3, #8]
      
      if(HAL_DMA_STATE_ABORT == hdma->State)
 8004fde:	687b      	ldr	r3, [r7, #4]
 8004fe0:	f893 3035 	ldrb.w	r3, [r3, #53]	@ 0x35
 8004fe4:	b2db      	uxtb	r3, r3
 8004fe6:	2b05      	cmp	r3, #5
 8004fe8:	d136      	bne.n	8005058 <HAL_DMA_IRQHandler+0x218>
      {
        /* Disable all the transfer interrupts */
        hdma->Instance->CR  &= ~(DMA_IT_TC | DMA_IT_TE | DMA_IT_DME);
 8004fea:	687b      	ldr	r3, [r7, #4]
 8004fec:	681b      	ldr	r3, [r3, #0]
 8004fee:	681a      	ldr	r2, [r3, #0]
 8004ff0:	687b      	ldr	r3, [r7, #4]
 8004ff2:	681b      	ldr	r3, [r3, #0]
 8004ff4:	f022 0216 	bic.w	r2, r2, #22
 8004ff8:	601a      	str	r2, [r3, #0]
        hdma->Instance->FCR &= ~(DMA_IT_FE);
 8004ffa:	687b      	ldr	r3, [r7, #4]
 8004ffc:	681b      	ldr	r3, [r3, #0]
 8004ffe:	695a      	ldr	r2, [r3, #20]
 8005000:	687b      	ldr	r3, [r7, #4]
 8005002:	681b      	ldr	r3, [r3, #0]
 8005004:	f022 0280 	bic.w	r2, r2, #128	@ 0x80
 8005008:	615a      	str	r2, [r3, #20]
        
        if((hdma->XferHalfCpltCallback != NULL) || (hdma->XferM1HalfCpltCallback != NULL))
 800500a:	687b      	ldr	r3, [r7, #4]
 800500c:	6c1b      	ldr	r3, [r3, #64]	@ 0x40
 800500e:	2b00      	cmp	r3, #0
 8005010:	d103      	bne.n	800501a <HAL_DMA_IRQHandler+0x1da>
 8005012:	687b      	ldr	r3, [r7, #4]
 8005014:	6c9b      	ldr	r3, [r3, #72]	@ 0x48
 8005016:	2b00      	cmp	r3, #0
 8005018:	d007      	beq.n	800502a <HAL_DMA_IRQHandler+0x1ea>
        {
          hdma->Instance->CR  &= ~(DMA_IT_HT);
 800501a:	687b      	ldr	r3, [r7, #4]
 800501c:	681b      	ldr	r3, [r3, #0]
 800501e:	681a      	ldr	r2, [r3, #0]
 8005020:	687b      	ldr	r3, [r7, #4]
 8005022:	681b      	ldr	r3, [r3, #0]
 8005024:	f022 0208 	bic.w	r2, r2, #8
 8005028:	601a      	str	r2, [r3, #0]
        }

        /* Clear all interrupt flags at correct offset within the register */
        regs->IFCR = 0x3FU << hdma->StreamIndex;
 800502a:	687b      	ldr	r3, [r7, #4]
 800502c:	6ddb      	ldr	r3, [r3, #92]	@ 0x5c
 800502e:	223f      	movs	r2, #63	@ 0x3f
 8005030:	409a      	lsls	r2, r3
 8005032:	693b      	ldr	r3, [r7, #16]
 8005034:	609a      	str	r2, [r3, #8]

        /* Change the DMA state */
        hdma->State = HAL_DMA_STATE_READY;
 8005036:	687b      	ldr	r3, [r7, #4]
 8005038:	2201      	movs	r2, #1
 800503a:	f883 2035 	strb.w	r2, [r3, #53]	@ 0x35

        /* Process Unlocked */
        __HAL_UNLOCK(hdma);
 800503e:	687b      	ldr	r3, [r7, #4]
 8005040:	2200      	movs	r2, #0
 8005042:	f883 2034 	strb.w	r2, [r3, #52]	@ 0x34

        if(hdma->XferAbortCallback != NULL)
 8005046:	687b      	ldr	r3, [r7, #4]
 8005048:	6d1b      	ldr	r3, [r3, #80]	@ 0x50
 800504a:	2b00      	cmp	r3, #0
 800504c:	d07e      	beq.n	800514c <HAL_DMA_IRQHandler+0x30c>
        {
          hdma->XferAbortCallback(hdma);
 800504e:	687b      	ldr	r3, [r7, #4]
 8005050:	6d1b      	ldr	r3, [r3, #80]	@ 0x50
 8005052:	6878      	ldr	r0, [r7, #4]
 8005054:	4798      	blx	r3
        }
        return;
 8005056:	e079      	b.n	800514c <HAL_DMA_IRQHandler+0x30c>
      }

      if(((hdma->Instance->CR) & (uint32_t)(DMA_SxCR_DBM)) != RESET)
 8005058:	687b      	ldr	r3, [r7, #4]
 800505a:	681b      	ldr	r3, [r3, #0]
 800505c:	681b      	ldr	r3, [r3, #0]
 800505e:	f403 2380 	and.w	r3, r3, #262144	@ 0x40000
 8005062:	2b00      	cmp	r3, #0
 8005064:	d01d      	beq.n	80050a2 <HAL_DMA_IRQHandler+0x262>
      {
        /* Current memory buffer used is Memory 0 */
        if((hdma->Instance->CR & DMA_SxCR_CT) == RESET)
 8005066:	687b      	ldr	r3, [r7, #4]
 8005068:	681b      	ldr	r3, [r3, #0]
 800506a:	681b      	ldr	r3, [r3, #0]
 800506c:	f403 2300 	and.w	r3, r3, #524288	@ 0x80000
 8005070:	2b00      	cmp	r3, #0
 8005072:	d10d      	bne.n	8005090 <HAL_DMA_IRQHandler+0x250>
        {
          if(hdma->XferM1CpltCallback != NULL)
 8005074:	687b      	ldr	r3, [r7, #4]
 8005076:	6c5b      	ldr	r3, [r3, #68]	@ 0x44
 8005078:	2b00      	cmp	r3, #0
 800507a:	d031      	beq.n	80050e0 <HAL_DMA_IRQHandler+0x2a0>
          {
            /* Transfer complete Callback for memory1 */
            hdma->XferM1CpltCallback(hdma);
 800507c:	687b      	ldr	r3, [r7, #4]
 800507e:	6c5b      	ldr	r3, [r3, #68]	@ 0x44
 8005080:	6878      	ldr	r0, [r7, #4]
 8005082:	4798      	blx	r3
 8005084:	e02c      	b.n	80050e0 <HAL_DMA_IRQHandler+0x2a0>
 8005086:	bf00      	nop
 8005088:	20002004 	.word	0x20002004
 800508c:	1b4e81b5 	.word	0x1b4e81b5
          }
        }
        /* Current memory buffer used is Memory 1 */
        else
        {
          if(hdma->XferCpltCallback != NULL)
 8005090:	687b      	ldr	r3, [r7, #4]
 8005092:	6bdb      	ldr	r3, [r3, #60]	@ 0x3c
 8005094:	2b00      	cmp	r3, #0
 8005096:	d023      	beq.n	80050e0 <HAL_DMA_IRQHandler+0x2a0>
          {
            /* Transfer complete Callback for memory0 */
            hdma->XferCpltCallback(hdma);
 8005098:	687b      	ldr	r3, [r7, #4]
 800509a:	6bdb      	ldr	r3, [r3, #60]	@ 0x3c
 800509c:	6878      	ldr	r0, [r7, #4]
 800509e:	4798      	blx	r3
 80050a0:	e01e      	b.n	80050e0 <HAL_DMA_IRQHandler+0x2a0>
        }
      }
      /* Disable the transfer complete interrupt if the DMA mode is not CIRCULAR */
      else
      {
        if((hdma->Instance->CR & DMA_SxCR_CIRC) == RESET)
 80050a2:	687b      	ldr	r3, [r7, #4]
 80050a4:	681b      	ldr	r3, [r3, #0]
 80050a6:	681b      	ldr	r3, [r3, #0]
 80050a8:	f403 7380 	and.w	r3, r3, #256	@ 0x100
 80050ac:	2b00      	cmp	r3, #0
 80050ae:	d10f      	bne.n	80050d0 <HAL_DMA_IRQHandler+0x290>
        {
          /* Disable the transfer complete interrupt */
          hdma->Instance->CR  &= ~(DMA_IT_TC);
 80050b0:	687b      	ldr	r3, [r7, #4]
 80050b2:	681b      	ldr	r3, [r3, #0]
 80050b4:	681a      	ldr	r2, [r3, #0]
 80050b6:	687b      	ldr	r3, [r7, #4]
 80050b8:	681b      	ldr	r3, [r3, #0]
 80050ba:	f022 0210 	bic.w	r2, r2, #16
 80050be:	601a      	str	r2, [r3, #0]

          /* Change the DMA state */
          hdma->State = HAL_DMA_STATE_READY;
 80050c0:	687b      	ldr	r3, [r7, #4]
 80050c2:	2201      	movs	r2, #1
 80050c4:	f883 2035 	strb.w	r2, [r3, #53]	@ 0x35

          /* Process Unlocked */
          __HAL_UNLOCK(hdma);
 80050c8:	687b      	ldr	r3, [r7, #4]
 80050ca:	2200      	movs	r2, #0
 80050cc:	f883 2034 	strb.w	r2, [r3, #52]	@ 0x34
        }

        if(hdma->XferCpltCallback != NULL)
 80050d0:	687b      	ldr	r3, [r7, #4]
 80050d2:	6bdb      	ldr	r3, [r3, #60]	@ 0x3c
 80050d4:	2b00      	cmp	r3, #0
 80050d6:	d003      	beq.n	80050e0 <HAL_DMA_IRQHandler+0x2a0>
        {
          /* Transfer complete callback */
          hdma->XferCpltCallback(hdma);
 80050d8:	687b      	ldr	r3, [r7, #4]
 80050da:	6bdb      	ldr	r3, [r3, #60]	@ 0x3c
 80050dc:	6878      	ldr	r0, [r7, #4]
 80050de:	4798      	blx	r3
      }
    }
  }
  
  /* manage error case */
  if(hdma->ErrorCode != HAL_DMA_ERROR_NONE)
 80050e0:	687b      	ldr	r3, [r7, #4]
 80050e2:	6d5b      	ldr	r3, [r3, #84]	@ 0x54
 80050e4:	2b00      	cmp	r3, #0
 80050e6:	d032      	beq.n	800514e <HAL_DMA_IRQHandler+0x30e>
  {
    if((hdma->ErrorCode & HAL_DMA_ERROR_TE) != RESET)
 80050e8:	687b      	ldr	r3, [r7, #4]
 80050ea:	6d5b      	ldr	r3, [r3, #84]	@ 0x54
 80050ec:	f003 0301 	and.w	r3, r3, #1
 80050f0:	2b00      	cmp	r3, #0
 80050f2:	d022      	beq.n	800513a <HAL_DMA_IRQHandler+0x2fa>
    {
      hdma->State = HAL_DMA_STATE_ABORT;
 80050f4:	687b      	ldr	r3, [r7, #4]
 80050f6:	2205      	movs	r2, #5
 80050f8:	f883 2035 	strb.w	r2, [r3, #53]	@ 0x35

      /* Disable the stream */
      __HAL_DMA_DISABLE(hdma);
 80050fc:	687b      	ldr	r3, [r7, #4]
 80050fe:	681b      	ldr	r3, [r3, #0]
 8005100:	681a      	ldr	r2, [r3, #0]
 8005102:	687b      	ldr	r3, [r7, #4]
 8005104:	681b      	ldr	r3, [r3, #0]
 8005106:	f022 0201 	bic.w	r2, r2, #1
 800510a:	601a      	str	r2, [r3, #0]

      do
      {
        if (++count > timeout)
 800510c:	68bb      	ldr	r3, [r7, #8]
 800510e:	3301      	adds	r3, #1
 8005110:	60bb      	str	r3, [r7, #8]
 8005112:	697a      	ldr	r2, [r7, #20]
 8005114:	429a      	cmp	r2, r3
 8005116:	d307      	bcc.n	8005128 <HAL_DMA_IRQHandler+0x2e8>
        {
          break;
        }
      }
      while((hdma->Instance->CR & DMA_SxCR_EN) != RESET);
 8005118:	687b      	ldr	r3, [r7, #4]
 800511a:	681b      	ldr	r3, [r3, #0]
 800511c:	681b      	ldr	r3, [r3, #0]
 800511e:	f003 0301 	and.w	r3, r3, #1
 8005122:	2b00      	cmp	r3, #0
 8005124:	d1f2      	bne.n	800510c <HAL_DMA_IRQHandler+0x2cc>
 8005126:	e000      	b.n	800512a <HAL_DMA_IRQHandler+0x2ea>
          break;
 8005128:	bf00      	nop

      /* Change the DMA state */
      hdma->State = HAL_DMA_STATE_READY;
 800512a:	687b      	ldr	r3, [r7, #4]
 800512c:	2201      	movs	r2, #1
 800512e:	f883 2035 	strb.w	r2, [r3, #53]	@ 0x35

      /* Process Unlocked */
      __HAL_UNLOCK(hdma);
 8005132:	687b      	ldr	r3, [r7, #4]
 8005134:	2200      	movs	r2, #0
 8005136:	f883 2034 	strb.w	r2, [r3, #52]	@ 0x34
    }

    if(hdma->XferErrorCallback != NULL)
 800513a:	687b      	ldr	r3, [r7, #4]
 800513c:	6cdb      	ldr	r3, [r3, #76]	@ 0x4c
 800513e:	2b00      	cmp	r3, #0
 8005140:	d005      	beq.n	800514e <HAL_DMA_IRQHandler+0x30e>
    {
      /* Transfer error callback */
      hdma->XferErrorCallback(hdma);
 8005142:	687b      	ldr	r3, [r7, #4]
 8005144:	6cdb      	ldr	r3, [r3, #76]	@ 0x4c
 8005146:	6878      	ldr	r0, [r7, #4]
 8005148:	4798      	blx	r3
 800514a:	e000      	b.n	800514e <HAL_DMA_IRQHandler+0x30e>
        return;
 800514c:	bf00      	nop
    }
  }
}
 800514e:	3718      	adds	r7, #24
 8005150:	46bd      	mov	sp, r7
 8005152:	bd80      	pop	{r7, pc}

08005154 <DMA_SetConfig>:
  * @param  DstAddress The destination memory Buffer address
  * @param  DataLength The length of data to be transferred from source to destination
  * @retval HAL status
  */
static void DMA_SetConfig(DMA_HandleTypeDef *hdma, uint32_t SrcAddress, uint32_t DstAddress, uint32_t DataLength)
{
 8005154:	b480      	push	{r7}
 8005156:	b085      	sub	sp, #20
 8005158:	af00      	add	r7, sp, #0
 800515a:	60f8      	str	r0, [r7, #12]
 800515c:	60b9      	str	r1, [r7, #8]
 800515e:	607a      	str	r2, [r7, #4]
 8005160:	603b      	str	r3, [r7, #0]
  /* Clear DBM bit */
  hdma->Instance->CR &= (uint32_t)(~DMA_SxCR_DBM);
 8005162:	68fb      	ldr	r3, [r7, #12]
 8005164:	681b      	ldr	r3, [r3, #0]
 8005166:	681a      	ldr	r2, [r3, #0]
 8005168:	68fb      	ldr	r3, [r7, #12]
 800516a:	681b      	ldr	r3, [r3, #0]
 800516c:	f422 2280 	bic.w	r2, r2, #262144	@ 0x40000
 8005170:	601a      	str	r2, [r3, #0]

  /* Configure DMA Stream data length */
  hdma->Instance->NDTR = DataLength;
 8005172:	68fb      	ldr	r3, [r7, #12]
 8005174:	681b      	ldr	r3, [r3, #0]
 8005176:	683a      	ldr	r2, [r7, #0]
 8005178:	605a      	str	r2, [r3, #4]

  /* Memory to Peripheral */
  if((hdma->Init.Direction) == DMA_MEMORY_TO_PERIPH)
 800517a:	68fb      	ldr	r3, [r7, #12]
 800517c:	689b      	ldr	r3, [r3, #8]
 800517e:	2b40      	cmp	r3, #64	@ 0x40
 8005180:	d108      	bne.n	8005194 <DMA_SetConfig+0x40>
  {
    /* Configure DMA Stream destination address */
    hdma->Instance->PAR = DstAddress;
 8005182:	68fb      	ldr	r3, [r7, #12]
 8005184:	681b      	ldr	r3, [r3, #0]
 8005186:	687a      	ldr	r2, [r7, #4]
 8005188:	609a      	str	r2, [r3, #8]

    /* Configure DMA Stream source address */
    hdma->Instance->M0AR = SrcAddress;
 800518a:	68fb      	ldr	r3, [r7, #12]
 800518c:	681b      	ldr	r3, [r3, #0]
 800518e:	68ba      	ldr	r2, [r7, #8]
 8005190:	60da      	str	r2, [r3, #12]
    hdma->Instance->PAR = SrcAddress;

    /* Configure DMA Stream destination address */
    hdma->Instance->M0AR = DstAddress;
  }
}
 8005192:	e007      	b.n	80051a4 <DMA_SetConfig+0x50>
    hdma->Instance->PAR = SrcAddress;
 8005194:	68fb      	ldr	r3, [r7, #12]
 8005196:	681b      	ldr	r3, [r3, #0]
 8005198:	68ba      	ldr	r2, [r7, #8]
 800519a:	609a      	str	r2, [r3, #8]
    hdma->Instance->M0AR = DstAddress;
 800519c:	68fb      	ldr	r3, [r7, #12]
 800519e:	681b      	ldr	r3, [r3, #0]
 80051a0:	687a      	ldr	r2, [r7, #4]
 80051a2:	60da      	str	r2, [r3, #12]
}
 80051a4:	bf00      	nop
 80051a6:	3714      	adds	r7, #20
 80051a8:	46bd      	mov	sp, r7
 80051aa:	f85d 7b04 	ldr.w	r7, [sp], #4
 80051ae:	4770      	bx	lr

080051b0 <DMA_CalcBaseAndBitshift>:
  * @param  hdma       pointer to a DMA_HandleTypeDef structure that contains
  *                     the configuration information for the specified DMA Stream. 
  * @retval Stream base address
  */
static uint32_t DMA_CalcBaseAndBitshift(DMA_HandleTypeDef *hdma)
{
 80051b0:	b480      	push	{r7}
 80051b2:	b085      	sub	sp, #20
 80051b4:	af00      	add	r7, sp, #0
 80051b6:	6078      	str	r0, [r7, #4]
  uint32_t stream_number = (((uint32_t)hdma->Instance & 0xFFU) - 16U) / 24U;
 80051b8:	687b      	ldr	r3, [r7, #4]
 80051ba:	681b      	ldr	r3, [r3, #0]
 80051bc:	b2db      	uxtb	r3, r3
 80051be:	3b10      	subs	r3, #16
 80051c0:	4a14      	ldr	r2, [pc, #80]	@ (8005214 <DMA_CalcBaseAndBitshift+0x64>)
 80051c2:	fba2 2303 	umull	r2, r3, r2, r3
 80051c6:	091b      	lsrs	r3, r3, #4
 80051c8:	60fb      	str	r3, [r7, #12]
  
  /* lookup table for necessary bitshift of flags within status registers */
  static const uint8_t flagBitshiftOffset[8U] = {0U, 6U, 16U, 22U, 0U, 6U, 16U, 22U};
  hdma->StreamIndex = flagBitshiftOffset[stream_number];
 80051ca:	4a13      	ldr	r2, [pc, #76]	@ (8005218 <DMA_CalcBaseAndBitshift+0x68>)
 80051cc:	68fb      	ldr	r3, [r7, #12]
 80051ce:	4413      	add	r3, r2
 80051d0:	781b      	ldrb	r3, [r3, #0]
 80051d2:	461a      	mov	r2, r3
 80051d4:	687b      	ldr	r3, [r7, #4]
 80051d6:	65da      	str	r2, [r3, #92]	@ 0x5c
  
  if (stream_number > 3U)
 80051d8:	68fb      	ldr	r3, [r7, #12]
 80051da:	2b03      	cmp	r3, #3
 80051dc:	d909      	bls.n	80051f2 <DMA_CalcBaseAndBitshift+0x42>
  {
    /* return pointer to HISR and HIFCR */
    hdma->StreamBaseAddress = (((uint32_t)hdma->Instance & (uint32_t)(~0x3FFU)) + 4U);
 80051de:	687b      	ldr	r3, [r7, #4]
 80051e0:	681b      	ldr	r3, [r3, #0]
 80051e2:	f423 737f 	bic.w	r3, r3, #1020	@ 0x3fc
 80051e6:	f023 0303 	bic.w	r3, r3, #3
 80051ea:	1d1a      	adds	r2, r3, #4
 80051ec:	687b      	ldr	r3, [r7, #4]
 80051ee:	659a      	str	r2, [r3, #88]	@ 0x58
 80051f0:	e007      	b.n	8005202 <DMA_CalcBaseAndBitshift+0x52>
  }
  else
  {
    /* return pointer to LISR and LIFCR */
    hdma->StreamBaseAddress = ((uint32_t)hdma->Instance & (uint32_t)(~0x3FFU));
 80051f2:	687b      	ldr	r3, [r7, #4]
 80051f4:	681b      	ldr	r3, [r3, #0]
 80051f6:	f423 737f 	bic.w	r3, r3, #1020	@ 0x3fc
 80051fa:	f023 0303 	bic.w	r3, r3, #3
 80051fe:	687a      	ldr	r2, [r7, #4]
 8005200:	6593      	str	r3, [r2, #88]	@ 0x58
  }
  
  return hdma->StreamBaseAddress;
 8005202:	687b      	ldr	r3, [r7, #4]
 8005204:	6d9b      	ldr	r3, [r3, #88]	@ 0x58
}
 8005206:	4618      	mov	r0, r3
 8005208:	3714      	adds	r7, #20
 800520a:	46bd      	mov	sp, r7
 800520c:	f85d 7b04 	ldr.w	r7, [sp], #4
 8005210:	4770      	bx	lr
 8005212:	bf00      	nop
 8005214:	aaaaaaab 	.word	0xaaaaaaab
 8005218:	0801e39c 	.word	0x0801e39c

0800521c <DMA_CheckFifoParam>:
  * @param  hdma       pointer to a DMA_HandleTypeDef structure that contains
  *                     the configuration information for the specified DMA Stream. 
  * @retval HAL status
  */
static HAL_StatusTypeDef DMA_CheckFifoParam(DMA_HandleTypeDef *hdma)
{
 800521c:	b480      	push	{r7}
 800521e:	b085      	sub	sp, #20
 8005220:	af00      	add	r7, sp, #0
 8005222:	6078      	str	r0, [r7, #4]
  HAL_StatusTypeDef status = HAL_OK;
 8005224:	2300      	movs	r3, #0
 8005226:	73fb      	strb	r3, [r7, #15]
  uint32_t tmp = hdma->Init.FIFOThreshold;
 8005228:	687b      	ldr	r3, [r7, #4]
 800522a:	6a9b      	ldr	r3, [r3, #40]	@ 0x28
 800522c:	60bb      	str	r3, [r7, #8]
  
  /* Memory Data size equal to Byte */
  if(hdma->Init.MemDataAlignment == DMA_MDATAALIGN_BYTE)
 800522e:	687b      	ldr	r3, [r7, #4]
 8005230:	699b      	ldr	r3, [r3, #24]
 8005232:	2b00      	cmp	r3, #0
 8005234:	d11f      	bne.n	8005276 <DMA_CheckFifoParam+0x5a>
  {
    switch (tmp)
 8005236:	68bb      	ldr	r3, [r7, #8]
 8005238:	2b03      	cmp	r3, #3
 800523a:	d856      	bhi.n	80052ea <DMA_CheckFifoParam+0xce>
 800523c:	a201      	add	r2, pc, #4	@ (adr r2, 8005244 <DMA_CheckFifoParam+0x28>)
 800523e:	f852 f023 	ldr.w	pc, [r2, r3, lsl #2]
 8005242:	bf00      	nop
 8005244:	08005255 	.word	0x08005255
 8005248:	08005267 	.word	0x08005267
 800524c:	08005255 	.word	0x08005255
 8005250:	080052eb 	.word	0x080052eb
    {
    case DMA_FIFO_THRESHOLD_1QUARTERFULL:
    case DMA_FIFO_THRESHOLD_3QUARTERSFULL:
      if ((hdma->Init.MemBurst & DMA_SxCR_MBURST_1) == DMA_SxCR_MBURST_1)
 8005254:	687b      	ldr	r3, [r7, #4]
 8005256:	6adb      	ldr	r3, [r3, #44]	@ 0x2c
 8005258:	f003 7380 	and.w	r3, r3, #16777216	@ 0x1000000
 800525c:	2b00      	cmp	r3, #0
 800525e:	d046      	beq.n	80052ee <DMA_CheckFifoParam+0xd2>
      {
        status = HAL_ERROR;
 8005260:	2301      	movs	r3, #1
 8005262:	73fb      	strb	r3, [r7, #15]
      }
      break;
 8005264:	e043      	b.n	80052ee <DMA_CheckFifoParam+0xd2>
    case DMA_FIFO_THRESHOLD_HALFFULL:
      if (hdma->Init.MemBurst == DMA_MBURST_INC16)
 8005266:	687b      	ldr	r3, [r7, #4]
 8005268:	6adb      	ldr	r3, [r3, #44]	@ 0x2c
 800526a:	f1b3 7fc0 	cmp.w	r3, #25165824	@ 0x1800000
 800526e:	d140      	bne.n	80052f2 <DMA_CheckFifoParam+0xd6>
      {
        status = HAL_ERROR;
 8005270:	2301      	movs	r3, #1
 8005272:	73fb      	strb	r3, [r7, #15]
      }
      break;
 8005274:	e03d      	b.n	80052f2 <DMA_CheckFifoParam+0xd6>
      break;
    }
  }
  
  /* Memory Data size equal to Half-Word */
  else if (hdma->Init.MemDataAlignment == DMA_MDATAALIGN_HALFWORD)
 8005276:	687b      	ldr	r3, [r7, #4]
 8005278:	699b      	ldr	r3, [r3, #24]
 800527a:	f5b3 5f00 	cmp.w	r3, #8192	@ 0x2000
 800527e:	d121      	bne.n	80052c4 <DMA_CheckFifoParam+0xa8>
  {
    switch (tmp)
 8005280:	68bb      	ldr	r3, [r7, #8]
 8005282:	2b03      	cmp	r3, #3
 8005284:	d837      	bhi.n	80052f6 <DMA_CheckFifoParam+0xda>
 8005286:	a201      	add	r2, pc, #4	@ (adr r2, 800528c <DMA_CheckFifoParam+0x70>)
 8005288:	f852 f023 	ldr.w	pc, [r2, r3, lsl #2]
 800528c:	0800529d 	.word	0x0800529d
 8005290:	080052a3 	.word	0x080052a3
 8005294:	0800529d 	.word	0x0800529d
 8005298:	080052b5 	.word	0x080052b5
    {
    case DMA_FIFO_THRESHOLD_1QUARTERFULL:
    case DMA_FIFO_THRESHOLD_3QUARTERSFULL:
      status = HAL_ERROR;
 800529c:	2301      	movs	r3, #1
 800529e:	73fb      	strb	r3, [r7, #15]
      break;
 80052a0:	e030      	b.n	8005304 <DMA_CheckFifoParam+0xe8>
    case DMA_FIFO_THRESHOLD_HALFFULL:
      if ((hdma->Init.MemBurst & DMA_SxCR_MBURST_1) == DMA_SxCR_MBURST_1)
 80052a2:	687b      	ldr	r3, [r7, #4]
 80052a4:	6adb      	ldr	r3, [r3, #44]	@ 0x2c
 80052a6:	f003 7380 	and.w	r3, r3, #16777216	@ 0x1000000
 80052aa:	2b00      	cmp	r3, #0
 80052ac:	d025      	beq.n	80052fa <DMA_CheckFifoParam+0xde>
      {
        status = HAL_ERROR;
 80052ae:	2301      	movs	r3, #1
 80052b0:	73fb      	strb	r3, [r7, #15]
      }
      break;
 80052b2:	e022      	b.n	80052fa <DMA_CheckFifoParam+0xde>
    case DMA_FIFO_THRESHOLD_FULL:
      if (hdma->Init.MemBurst == DMA_MBURST_INC16)
 80052b4:	687b      	ldr	r3, [r7, #4]
 80052b6:	6adb      	ldr	r3, [r3, #44]	@ 0x2c
 80052b8:	f1b3 7fc0 	cmp.w	r3, #25165824	@ 0x1800000
 80052bc:	d11f      	bne.n	80052fe <DMA_CheckFifoParam+0xe2>
      {
        status = HAL_ERROR;
 80052be:	2301      	movs	r3, #1
 80052c0:	73fb      	strb	r3, [r7, #15]
      }
      break;   
 80052c2:	e01c      	b.n	80052fe <DMA_CheckFifoParam+0xe2>
  }
  
  /* Memory Data size equal to Word */
  else
  {
    switch (tmp)
 80052c4:	68bb      	ldr	r3, [r7, #8]
 80052c6:	2b02      	cmp	r3, #2
 80052c8:	d903      	bls.n	80052d2 <DMA_CheckFifoParam+0xb6>
 80052ca:	68bb      	ldr	r3, [r7, #8]
 80052cc:	2b03      	cmp	r3, #3
 80052ce:	d003      	beq.n	80052d8 <DMA_CheckFifoParam+0xbc>
      {
        status = HAL_ERROR;
      }
      break;
    default:
      break;
 80052d0:	e018      	b.n	8005304 <DMA_CheckFifoParam+0xe8>
      status = HAL_ERROR;
 80052d2:	2301      	movs	r3, #1
 80052d4:	73fb      	strb	r3, [r7, #15]
      break;
 80052d6:	e015      	b.n	8005304 <DMA_CheckFifoParam+0xe8>
      if ((hdma->Init.MemBurst & DMA_SxCR_MBURST_1) == DMA_SxCR_MBURST_1)
 80052d8:	687b      	ldr	r3, [r7, #4]
 80052da:	6adb      	ldr	r3, [r3, #44]	@ 0x2c
 80052dc:	f003 7380 	and.w	r3, r3, #16777216	@ 0x1000000
 80052e0:	2b00      	cmp	r3, #0
 80052e2:	d00e      	beq.n	8005302 <DMA_CheckFifoParam+0xe6>
        status = HAL_ERROR;
 80052e4:	2301      	movs	r3, #1
 80052e6:	73fb      	strb	r3, [r7, #15]
      break;
 80052e8:	e00b      	b.n	8005302 <DMA_CheckFifoParam+0xe6>
      break;
 80052ea:	bf00      	nop
 80052ec:	e00a      	b.n	8005304 <DMA_CheckFifoParam+0xe8>
      break;
 80052ee:	bf00      	nop
 80052f0:	e008      	b.n	8005304 <DMA_CheckFifoParam+0xe8>
      break;
 80052f2:	bf00      	nop
 80052f4:	e006      	b.n	8005304 <DMA_CheckFifoParam+0xe8>
      break;
 80052f6:	bf00      	nop
 80052f8:	e004      	b.n	8005304 <DMA_CheckFifoParam+0xe8>
      break;
 80052fa:	bf00      	nop
 80052fc:	e002      	b.n	8005304 <DMA_CheckFifoParam+0xe8>
      break;   
 80052fe:	bf00      	nop
 8005300:	e000      	b.n	8005304 <DMA_CheckFifoParam+0xe8>
      break;
 8005302:	bf00      	nop
    }
  } 
  
  return status; 
 8005304:	7bfb      	ldrb	r3, [r7, #15]
}
 8005306:	4618      	mov	r0, r3
 8005308:	3714      	adds	r7, #20
 800530a:	46bd      	mov	sp, r7
 800530c:	f85d 7b04 	ldr.w	r7, [sp], #4
 8005310:	4770      	bx	lr
 8005312:	bf00      	nop

08005314 <HAL_GPIO_Init>:
  * @param  GPIO_Init pointer to a GPIO_InitTypeDef structure that contains
  *         the configuration information for the specified GPIO peripheral.
  * @retval None
  */
void HAL_GPIO_Init(GPIO_TypeDef  *GPIOx, GPIO_InitTypeDef *GPIO_Init)
{
 8005314:	b480      	push	{r7}
 8005316:	b089      	sub	sp, #36	@ 0x24
 8005318:	af00      	add	r7, sp, #0
 800531a:	6078      	str	r0, [r7, #4]
 800531c:	6039      	str	r1, [r7, #0]
  uint32_t position;
  uint32_t ioposition = 0x00U;
 800531e:	2300      	movs	r3, #0
 8005320:	617b      	str	r3, [r7, #20]
  uint32_t iocurrent = 0x00U;
 8005322:	2300      	movs	r3, #0
 8005324:	613b      	str	r3, [r7, #16]
  uint32_t temp = 0x00U;
 8005326:	2300      	movs	r3, #0
 8005328:	61bb      	str	r3, [r7, #24]
  assert_param(IS_GPIO_ALL_INSTANCE(GPIOx));
  assert_param(IS_GPIO_PIN(GPIO_Init->Pin));
  assert_param(IS_GPIO_MODE(GPIO_Init->Mode));

  /* Configure the port pins */
  for(position = 0U; position < GPIO_NUMBER; position++)
 800532a:	2300      	movs	r3, #0
 800532c:	61fb      	str	r3, [r7, #28]
 800532e:	e159      	b.n	80055e4 <HAL_GPIO_Init+0x2d0>
  {
    /* Get the IO position */
    ioposition = 0x01U << position;
 8005330:	2201      	movs	r2, #1
 8005332:	69fb      	ldr	r3, [r7, #28]
 8005334:	fa02 f303 	lsl.w	r3, r2, r3
 8005338:	617b      	str	r3, [r7, #20]
    /* Get the current IO position */
    iocurrent = (uint32_t)(GPIO_Init->Pin) & ioposition;
 800533a:	683b      	ldr	r3, [r7, #0]
 800533c:	681b      	ldr	r3, [r3, #0]
 800533e:	697a      	ldr	r2, [r7, #20]
 8005340:	4013      	ands	r3, r2
 8005342:	613b      	str	r3, [r7, #16]

    if(iocurrent == ioposition)
 8005344:	693a      	ldr	r2, [r7, #16]
 8005346:	697b      	ldr	r3, [r7, #20]
 8005348:	429a      	cmp	r2, r3
 800534a:	f040 8148 	bne.w	80055de <HAL_GPIO_Init+0x2ca>
    {
      /*--------------------- GPIO Mode Configuration ------------------------*/
      /* In case of Output or Alternate function mode selection */
      if(((GPIO_Init->Mode & GPIO_MODE) == MODE_OUTPUT) || \
 800534e:	683b      	ldr	r3, [r7, #0]
 8005350:	685b      	ldr	r3, [r3, #4]
 8005352:	f003 0303 	and.w	r3, r3, #3
 8005356:	2b01      	cmp	r3, #1
 8005358:	d005      	beq.n	8005366 <HAL_GPIO_Init+0x52>
          (GPIO_Init->Mode & GPIO_MODE) == MODE_AF)
 800535a:	683b      	ldr	r3, [r7, #0]
 800535c:	685b      	ldr	r3, [r3, #4]
 800535e:	f003 0303 	and.w	r3, r3, #3
      if(((GPIO_Init->Mode & GPIO_MODE) == MODE_OUTPUT) || \
 8005362:	2b02      	cmp	r3, #2
 8005364:	d130      	bne.n	80053c8 <HAL_GPIO_Init+0xb4>
      {
        /* Check the Speed parameter */
        assert_param(IS_GPIO_SPEED(GPIO_Init->Speed));
        /* Configure the IO Speed */
        temp = GPIOx->OSPEEDR; 
 8005366:	687b      	ldr	r3, [r7, #4]
 8005368:	689b      	ldr	r3, [r3, #8]
 800536a:	61bb      	str	r3, [r7, #24]
        temp &= ~(GPIO_OSPEEDER_OSPEEDR0 << (position * 2U));
 800536c:	69fb      	ldr	r3, [r7, #28]
 800536e:	005b      	lsls	r3, r3, #1
 8005370:	2203      	movs	r2, #3
 8005372:	fa02 f303 	lsl.w	r3, r2, r3
 8005376:	43db      	mvns	r3, r3
 8005378:	69ba      	ldr	r2, [r7, #24]
 800537a:	4013      	ands	r3, r2
 800537c:	61bb      	str	r3, [r7, #24]
        temp |= (GPIO_Init->Speed << (position * 2U));
 800537e:	683b      	ldr	r3, [r7, #0]
 8005380:	68da      	ldr	r2, [r3, #12]
 8005382:	69fb      	ldr	r3, [r7, #28]
 8005384:	005b      	lsls	r3, r3, #1
 8005386:	fa02 f303 	lsl.w	r3, r2, r3
 800538a:	69ba      	ldr	r2, [r7, #24]
 800538c:	4313      	orrs	r3, r2
 800538e:	61bb      	str	r3, [r7, #24]
        GPIOx->OSPEEDR = temp;
 8005390:	687b      	ldr	r3, [r7, #4]
 8005392:	69ba      	ldr	r2, [r7, #24]
 8005394:	609a      	str	r2, [r3, #8]

        /* Configure the IO Output Type */
        temp = GPIOx->OTYPER;
 8005396:	687b      	ldr	r3, [r7, #4]
 8005398:	685b      	ldr	r3, [r3, #4]
 800539a:	61bb      	str	r3, [r7, #24]
        temp &= ~(GPIO_OTYPER_OT_0 << position) ;
 800539c:	2201      	movs	r2, #1
 800539e:	69fb      	ldr	r3, [r7, #28]
 80053a0:	fa02 f303 	lsl.w	r3, r2, r3
 80053a4:	43db      	mvns	r3, r3
 80053a6:	69ba      	ldr	r2, [r7, #24]
 80053a8:	4013      	ands	r3, r2
 80053aa:	61bb      	str	r3, [r7, #24]
        temp |= (((GPIO_Init->Mode & OUTPUT_TYPE) >> OUTPUT_TYPE_Pos) << position);
 80053ac:	683b      	ldr	r3, [r7, #0]
 80053ae:	685b      	ldr	r3, [r3, #4]
 80053b0:	091b      	lsrs	r3, r3, #4
 80053b2:	f003 0201 	and.w	r2, r3, #1
 80053b6:	69fb      	ldr	r3, [r7, #28]
 80053b8:	fa02 f303 	lsl.w	r3, r2, r3
 80053bc:	69ba      	ldr	r2, [r7, #24]
 80053be:	4313      	orrs	r3, r2
 80053c0:	61bb      	str	r3, [r7, #24]
        GPIOx->OTYPER = temp;
 80053c2:	687b      	ldr	r3, [r7, #4]
 80053c4:	69ba      	ldr	r2, [r7, #24]
 80053c6:	605a      	str	r2, [r3, #4]
       }

      if((GPIO_Init->Mode & GPIO_MODE) != MODE_ANALOG)
 80053c8:	683b      	ldr	r3, [r7, #0]
 80053ca:	685b      	ldr	r3, [r3, #4]
 80053cc:	f003 0303 	and.w	r3, r3, #3
 80053d0:	2b03      	cmp	r3, #3
 80053d2:	d017      	beq.n	8005404 <HAL_GPIO_Init+0xf0>
      {
        /* Check the parameters */
        assert_param(IS_GPIO_PULL(GPIO_Init->Pull));
        
        /* Activate the Pull-up or Pull down resistor for the current IO */
        temp = GPIOx->PUPDR;
 80053d4:	687b      	ldr	r3, [r7, #4]
 80053d6:	68db      	ldr	r3, [r3, #12]
 80053d8:	61bb      	str	r3, [r7, #24]
        temp &= ~(GPIO_PUPDR_PUPDR0 << (position * 2U));
 80053da:	69fb      	ldr	r3, [r7, #28]
 80053dc:	005b      	lsls	r3, r3, #1
 80053de:	2203      	movs	r2, #3
 80053e0:	fa02 f303 	lsl.w	r3, r2, r3
 80053e4:	43db      	mvns	r3, r3
 80053e6:	69ba      	ldr	r2, [r7, #24]
 80053e8:	4013      	ands	r3, r2
 80053ea:	61bb      	str	r3, [r7, #24]
        temp |= ((GPIO_Init->Pull) << (position * 2U));
 80053ec:	683b      	ldr	r3, [r7, #0]
 80053ee:	689a      	ldr	r2, [r3, #8]
 80053f0:	69fb      	ldr	r3, [r7, #28]
 80053f2:	005b      	lsls	r3, r3, #1
 80053f4:	fa02 f303 	lsl.w	r3, r2, r3
 80053f8:	69ba      	ldr	r2, [r7, #24]
 80053fa:	4313      	orrs	r3, r2
 80053fc:	61bb      	str	r3, [r7, #24]
        GPIOx->PUPDR = temp;
 80053fe:	687b      	ldr	r3, [r7, #4]
 8005400:	69ba      	ldr	r2, [r7, #24]
 8005402:	60da      	str	r2, [r3, #12]
      }

      /* In case of Alternate function mode selection */
      if((GPIO_Init->Mode & GPIO_MODE) == MODE_AF)
 8005404:	683b      	ldr	r3, [r7, #0]
 8005406:	685b      	ldr	r3, [r3, #4]
 8005408:	f003 0303 	and.w	r3, r3, #3
 800540c:	2b02      	cmp	r3, #2
 800540e:	d123      	bne.n	8005458 <HAL_GPIO_Init+0x144>
      {
        /* Check the Alternate function parameter */
        assert_param(IS_GPIO_AF(GPIO_Init->Alternate));
        /* Configure Alternate function mapped with the current IO */
        temp = GPIOx->AFR[position >> 3U];
 8005410:	69fb      	ldr	r3, [r7, #28]
 8005412:	08da      	lsrs	r2, r3, #3
 8005414:	687b      	ldr	r3, [r7, #4]
 8005416:	3208      	adds	r2, #8
 8005418:	f853 3022 	ldr.w	r3, [r3, r2, lsl #2]
 800541c:	61bb      	str	r3, [r7, #24]
        temp &= ~(0xFU << ((uint32_t)(position & 0x07U) * 4U)) ;
 800541e:	69fb      	ldr	r3, [r7, #28]
 8005420:	f003 0307 	and.w	r3, r3, #7
 8005424:	009b      	lsls	r3, r3, #2
 8005426:	220f      	movs	r2, #15
 8005428:	fa02 f303 	lsl.w	r3, r2, r3
 800542c:	43db      	mvns	r3, r3
 800542e:	69ba      	ldr	r2, [r7, #24]
 8005430:	4013      	ands	r3, r2
 8005432:	61bb      	str	r3, [r7, #24]
        temp |= ((uint32_t)(GPIO_Init->Alternate) << (((uint32_t)position & 0x07U) * 4U));
 8005434:	683b      	ldr	r3, [r7, #0]
 8005436:	691a      	ldr	r2, [r3, #16]
 8005438:	69fb      	ldr	r3, [r7, #28]
 800543a:	f003 0307 	and.w	r3, r3, #7
 800543e:	009b      	lsls	r3, r3, #2
 8005440:	fa02 f303 	lsl.w	r3, r2, r3
 8005444:	69ba      	ldr	r2, [r7, #24]
 8005446:	4313      	orrs	r3, r2
 8005448:	61bb      	str	r3, [r7, #24]
        GPIOx->AFR[position >> 3U] = temp;
 800544a:	69fb      	ldr	r3, [r7, #28]
 800544c:	08da      	lsrs	r2, r3, #3
 800544e:	687b      	ldr	r3, [r7, #4]
 8005450:	3208      	adds	r2, #8
 8005452:	69b9      	ldr	r1, [r7, #24]
 8005454:	f843 1022 	str.w	r1, [r3, r2, lsl #2]
      }

      /* Configure IO Direction mode (Input, Output, Alternate or Analog) */
      temp = GPIOx->MODER;
 8005458:	687b      	ldr	r3, [r7, #4]
 800545a:	681b      	ldr	r3, [r3, #0]
 800545c:	61bb      	str	r3, [r7, #24]
      temp &= ~(GPIO_MODER_MODER0 << (position * 2U));
 800545e:	69fb      	ldr	r3, [r7, #28]
 8005460:	005b      	lsls	r3, r3, #1
 8005462:	2203      	movs	r2, #3
 8005464:	fa02 f303 	lsl.w	r3, r2, r3
 8005468:	43db      	mvns	r3, r3
 800546a:	69ba      	ldr	r2, [r7, #24]
 800546c:	4013      	ands	r3, r2
 800546e:	61bb      	str	r3, [r7, #24]
      temp |= ((GPIO_Init->Mode & GPIO_MODE) << (position * 2U));
 8005470:	683b      	ldr	r3, [r7, #0]
 8005472:	685b      	ldr	r3, [r3, #4]
 8005474:	f003 0203 	and.w	r2, r3, #3
 8005478:	69fb      	ldr	r3, [r7, #28]
 800547a:	005b      	lsls	r3, r3, #1
 800547c:	fa02 f303 	lsl.w	r3, r2, r3
 8005480:	69ba      	ldr	r2, [r7, #24]
 8005482:	4313      	orrs	r3, r2
 8005484:	61bb      	str	r3, [r7, #24]
      GPIOx->MODER = temp;
 8005486:	687b      	ldr	r3, [r7, #4]
 8005488:	69ba      	ldr	r2, [r7, #24]
 800548a:	601a      	str	r2, [r3, #0]

      /*--------------------- EXTI Mode Configuration ------------------------*/
      /* Configure the External Interrupt or event for the current IO */
      if((GPIO_Init->Mode & EXTI_MODE) != 0x00U)
 800548c:	683b      	ldr	r3, [r7, #0]
 800548e:	685b      	ldr	r3, [r3, #4]
 8005490:	f403 3340 	and.w	r3, r3, #196608	@ 0x30000
 8005494:	2b00      	cmp	r3, #0
 8005496:	f000 80a2 	beq.w	80055de <HAL_GPIO_Init+0x2ca>
      {
        /* Enable SYSCFG Clock */
        __HAL_RCC_SYSCFG_CLK_ENABLE();
 800549a:	2300      	movs	r3, #0
 800549c:	60fb      	str	r3, [r7, #12]
 800549e:	4b57      	ldr	r3, [pc, #348]	@ (80055fc <HAL_GPIO_Init+0x2e8>)
 80054a0:	6c5b      	ldr	r3, [r3, #68]	@ 0x44
 80054a2:	4a56      	ldr	r2, [pc, #344]	@ (80055fc <HAL_GPIO_Init+0x2e8>)
 80054a4:	f443 4380 	orr.w	r3, r3, #16384	@ 0x4000
 80054a8:	6453      	str	r3, [r2, #68]	@ 0x44
 80054aa:	4b54      	ldr	r3, [pc, #336]	@ (80055fc <HAL_GPIO_Init+0x2e8>)
 80054ac:	6c5b      	ldr	r3, [r3, #68]	@ 0x44
 80054ae:	f403 4380 	and.w	r3, r3, #16384	@ 0x4000
 80054b2:	60fb      	str	r3, [r7, #12]
 80054b4:	68fb      	ldr	r3, [r7, #12]

        temp = SYSCFG->EXTICR[position >> 2U];
 80054b6:	4a52      	ldr	r2, [pc, #328]	@ (8005600 <HAL_GPIO_Init+0x2ec>)
 80054b8:	69fb      	ldr	r3, [r7, #28]
 80054ba:	089b      	lsrs	r3, r3, #2
 80054bc:	3302      	adds	r3, #2
 80054be:	f852 3023 	ldr.w	r3, [r2, r3, lsl #2]
 80054c2:	61bb      	str	r3, [r7, #24]
        temp &= ~(0x0FU << (4U * (position & 0x03U)));
 80054c4:	69fb      	ldr	r3, [r7, #28]
 80054c6:	f003 0303 	and.w	r3, r3, #3
 80054ca:	009b      	lsls	r3, r3, #2
 80054cc:	220f      	movs	r2, #15
 80054ce:	fa02 f303 	lsl.w	r3, r2, r3
 80054d2:	43db      	mvns	r3, r3
 80054d4:	69ba      	ldr	r2, [r7, #24]
 80054d6:	4013      	ands	r3, r2
 80054d8:	61bb      	str	r3, [r7, #24]
        temp |= ((uint32_t)(GPIO_GET_INDEX(GPIOx)) << (4U * (position & 0x03U)));
 80054da:	687b      	ldr	r3, [r7, #4]
 80054dc:	4a49      	ldr	r2, [pc, #292]	@ (8005604 <HAL_GPIO_Init+0x2f0>)
 80054de:	4293      	cmp	r3, r2
 80054e0:	d019      	beq.n	8005516 <HAL_GPIO_Init+0x202>
 80054e2:	687b      	ldr	r3, [r7, #4]
 80054e4:	4a48      	ldr	r2, [pc, #288]	@ (8005608 <HAL_GPIO_Init+0x2f4>)
 80054e6:	4293      	cmp	r3, r2
 80054e8:	d013      	beq.n	8005512 <HAL_GPIO_Init+0x1fe>
 80054ea:	687b      	ldr	r3, [r7, #4]
 80054ec:	4a47      	ldr	r2, [pc, #284]	@ (800560c <HAL_GPIO_Init+0x2f8>)
 80054ee:	4293      	cmp	r3, r2
 80054f0:	d00d      	beq.n	800550e <HAL_GPIO_Init+0x1fa>
 80054f2:	687b      	ldr	r3, [r7, #4]
 80054f4:	4a46      	ldr	r2, [pc, #280]	@ (8005610 <HAL_GPIO_Init+0x2fc>)
 80054f6:	4293      	cmp	r3, r2
 80054f8:	d007      	beq.n	800550a <HAL_GPIO_Init+0x1f6>
 80054fa:	687b      	ldr	r3, [r7, #4]
 80054fc:	4a45      	ldr	r2, [pc, #276]	@ (8005614 <HAL_GPIO_Init+0x300>)
 80054fe:	4293      	cmp	r3, r2
 8005500:	d101      	bne.n	8005506 <HAL_GPIO_Init+0x1f2>
 8005502:	2304      	movs	r3, #4
 8005504:	e008      	b.n	8005518 <HAL_GPIO_Init+0x204>
 8005506:	2307      	movs	r3, #7
 8005508:	e006      	b.n	8005518 <HAL_GPIO_Init+0x204>
 800550a:	2303      	movs	r3, #3
 800550c:	e004      	b.n	8005518 <HAL_GPIO_Init+0x204>
 800550e:	2302      	movs	r3, #2
 8005510:	e002      	b.n	8005518 <HAL_GPIO_Init+0x204>
 8005512:	2301      	movs	r3, #1
 8005514:	e000      	b.n	8005518 <HAL_GPIO_Init+0x204>
 8005516:	2300      	movs	r3, #0
 8005518:	69fa      	ldr	r2, [r7, #28]
 800551a:	f002 0203 	and.w	r2, r2, #3
 800551e:	0092      	lsls	r2, r2, #2
 8005520:	4093      	lsls	r3, r2
 8005522:	69ba      	ldr	r2, [r7, #24]
 8005524:	4313      	orrs	r3, r2
 8005526:	61bb      	str	r3, [r7, #24]
        SYSCFG->EXTICR[position >> 2U] = temp;
 8005528:	4935      	ldr	r1, [pc, #212]	@ (8005600 <HAL_GPIO_Init+0x2ec>)
 800552a:	69fb      	ldr	r3, [r7, #28]
 800552c:	089b      	lsrs	r3, r3, #2
 800552e:	3302      	adds	r3, #2
 8005530:	69ba      	ldr	r2, [r7, #24]
 8005532:	f841 2023 	str.w	r2, [r1, r3, lsl #2]

        /* Clear Rising Falling edge configuration */
        temp = EXTI->RTSR;
 8005536:	4b38      	ldr	r3, [pc, #224]	@ (8005618 <HAL_GPIO_Init+0x304>)
 8005538:	689b      	ldr	r3, [r3, #8]
 800553a:	61bb      	str	r3, [r7, #24]
        temp &= ~((uint32_t)iocurrent);
 800553c:	693b      	ldr	r3, [r7, #16]
 800553e:	43db      	mvns	r3, r3
 8005540:	69ba      	ldr	r2, [r7, #24]
 8005542:	4013      	ands	r3, r2
 8005544:	61bb      	str	r3, [r7, #24]
        if((GPIO_Init->Mode & TRIGGER_RISING) != 0x00U)
 8005546:	683b      	ldr	r3, [r7, #0]
 8005548:	685b      	ldr	r3, [r3, #4]
 800554a:	f403 1380 	and.w	r3, r3, #1048576	@ 0x100000
 800554e:	2b00      	cmp	r3, #0
 8005550:	d003      	beq.n	800555a <HAL_GPIO_Init+0x246>
        {
          temp |= iocurrent;
 8005552:	69ba      	ldr	r2, [r7, #24]
 8005554:	693b      	ldr	r3, [r7, #16]
 8005556:	4313      	orrs	r3, r2
 8005558:	61bb      	str	r3, [r7, #24]
        }
        EXTI->RTSR = temp;
 800555a:	4a2f      	ldr	r2, [pc, #188]	@ (8005618 <HAL_GPIO_Init+0x304>)
 800555c:	69bb      	ldr	r3, [r7, #24]
 800555e:	6093      	str	r3, [r2, #8]

        temp = EXTI->FTSR;
 8005560:	4b2d      	ldr	r3, [pc, #180]	@ (8005618 <HAL_GPIO_Init+0x304>)
 8005562:	68db      	ldr	r3, [r3, #12]
 8005564:	61bb      	str	r3, [r7, #24]
        temp &= ~((uint32_t)iocurrent);
 8005566:	693b      	ldr	r3, [r7, #16]
 8005568:	43db      	mvns	r3, r3
 800556a:	69ba      	ldr	r2, [r7, #24]
 800556c:	4013      	ands	r3, r2
 800556e:	61bb      	str	r3, [r7, #24]
        if((GPIO_Init->Mode & TRIGGER_FALLING) != 0x00U)
 8005570:	683b      	ldr	r3, [r7, #0]
 8005572:	685b      	ldr	r3, [r3, #4]
 8005574:	f403 1300 	and.w	r3, r3, #2097152	@ 0x200000
 8005578:	2b00      	cmp	r3, #0
 800557a:	d003      	beq.n	8005584 <HAL_GPIO_Init+0x270>
        {
          temp |= iocurrent;
 800557c:	69ba      	ldr	r2, [r7, #24]
 800557e:	693b      	ldr	r3, [r7, #16]
 8005580:	4313      	orrs	r3, r2
 8005582:	61bb      	str	r3, [r7, #24]
        }
        EXTI->FTSR = temp;
 8005584:	4a24      	ldr	r2, [pc, #144]	@ (8005618 <HAL_GPIO_Init+0x304>)
 8005586:	69bb      	ldr	r3, [r7, #24]
 8005588:	60d3      	str	r3, [r2, #12]

        temp = EXTI->EMR;
 800558a:	4b23      	ldr	r3, [pc, #140]	@ (8005618 <HAL_GPIO_Init+0x304>)
 800558c:	685b      	ldr	r3, [r3, #4]
 800558e:	61bb      	str	r3, [r7, #24]
        temp &= ~((uint32_t)iocurrent);
 8005590:	693b      	ldr	r3, [r7, #16]
 8005592:	43db      	mvns	r3, r3
 8005594:	69ba      	ldr	r2, [r7, #24]
 8005596:	4013      	ands	r3, r2
 8005598:	61bb      	str	r3, [r7, #24]
        if((GPIO_Init->Mode & EXTI_EVT) != 0x00U)
 800559a:	683b      	ldr	r3, [r7, #0]
 800559c:	685b      	ldr	r3, [r3, #4]
 800559e:	f403 3300 	and.w	r3, r3, #131072	@ 0x20000
 80055a2:	2b00      	cmp	r3, #0
 80055a4:	d003      	beq.n	80055ae <HAL_GPIO_Init+0x29a>
        {
          temp |= iocurrent;
 80055a6:	69ba      	ldr	r2, [r7, #24]
 80055a8:	693b      	ldr	r3, [r7, #16]
 80055aa:	4313      	orrs	r3, r2
 80055ac:	61bb      	str	r3, [r7, #24]
        }
        EXTI->EMR = temp;
 80055ae:	4a1a      	ldr	r2, [pc, #104]	@ (8005618 <HAL_GPIO_Init+0x304>)
 80055b0:	69bb      	ldr	r3, [r7, #24]
 80055b2:	6053      	str	r3, [r2, #4]

        /* Clear EXTI line configuration */
        temp = EXTI->IMR;
 80055b4:	4b18      	ldr	r3, [pc, #96]	@ (8005618 <HAL_GPIO_Init+0x304>)
 80055b6:	681b      	ldr	r3, [r3, #0]
 80055b8:	61bb      	str	r3, [r7, #24]
        temp &= ~((uint32_t)iocurrent);
 80055ba:	693b      	ldr	r3, [r7, #16]
 80055bc:	43db      	mvns	r3, r3
 80055be:	69ba      	ldr	r2, [r7, #24]
 80055c0:	4013      	ands	r3, r2
 80055c2:	61bb      	str	r3, [r7, #24]
        if((GPIO_Init->Mode & EXTI_IT) != 0x00U)
 80055c4:	683b      	ldr	r3, [r7, #0]
 80055c6:	685b      	ldr	r3, [r3, #4]
 80055c8:	f403 3380 	and.w	r3, r3, #65536	@ 0x10000
 80055cc:	2b00      	cmp	r3, #0
 80055ce:	d003      	beq.n	80055d8 <HAL_GPIO_Init+0x2c4>
        {
          temp |= iocurrent;
 80055d0:	69ba      	ldr	r2, [r7, #24]
 80055d2:	693b      	ldr	r3, [r7, #16]
 80055d4:	4313      	orrs	r3, r2
 80055d6:	61bb      	str	r3, [r7, #24]
        }
        EXTI->IMR = temp;
 80055d8:	4a0f      	ldr	r2, [pc, #60]	@ (8005618 <HAL_GPIO_Init+0x304>)
 80055da:	69bb      	ldr	r3, [r7, #24]
 80055dc:	6013      	str	r3, [r2, #0]
  for(position = 0U; position < GPIO_NUMBER; position++)
 80055de:	69fb      	ldr	r3, [r7, #28]
 80055e0:	3301      	adds	r3, #1
 80055e2:	61fb      	str	r3, [r7, #28]
 80055e4:	69fb      	ldr	r3, [r7, #28]
 80055e6:	2b0f      	cmp	r3, #15
 80055e8:	f67f aea2 	bls.w	8005330 <HAL_GPIO_Init+0x1c>
      }
    }
  }
}
 80055ec:	bf00      	nop
 80055ee:	bf00      	nop
 80055f0:	3724      	adds	r7, #36	@ 0x24
 80055f2:	46bd      	mov	sp, r7
 80055f4:	f85d 7b04 	ldr.w	r7, [sp], #4
 80055f8:	4770      	bx	lr
 80055fa:	bf00      	nop
 80055fc:	40023800 	.word	0x40023800
 8005600:	40013800 	.word	0x40013800
 8005604:	40020000 	.word	0x40020000
 8005608:	40020400 	.word	0x40020400
 800560c:	40020800 	.word	0x40020800
 8005610:	40020c00 	.word	0x40020c00
 8005614:	40021000 	.word	0x40021000
 8005618:	40013c00 	.word	0x40013c00

0800561c <HAL_GPIO_WritePin>:
  *            @arg GPIO_PIN_RESET: to clear the port pin
  *            @arg GPIO_PIN_SET: to set the port pin
  * @retval None
  */
void HAL_GPIO_WritePin(GPIO_TypeDef* GPIOx, uint16_t GPIO_Pin, GPIO_PinState PinState)
{
 800561c:	b480      	push	{r7}
 800561e:	b083      	sub	sp, #12
 8005620:	af00      	add	r7, sp, #0
 8005622:	6078      	str	r0, [r7, #4]
 8005624:	460b      	mov	r3, r1
 8005626:	807b      	strh	r3, [r7, #2]
 8005628:	4613      	mov	r3, r2
 800562a:	707b      	strb	r3, [r7, #1]
  /* Check the parameters */
  assert_param(IS_GPIO_PIN(GPIO_Pin));
  assert_param(IS_GPIO_PIN_ACTION(PinState));

  if(PinState != GPIO_PIN_RESET)
 800562c:	787b      	ldrb	r3, [r7, #1]
 800562e:	2b00      	cmp	r3, #0
 8005630:	d003      	beq.n	800563a <HAL_GPIO_WritePin+0x1e>
  {
    GPIOx->BSRR = GPIO_Pin;
 8005632:	887a      	ldrh	r2, [r7, #2]
 8005634:	687b      	ldr	r3, [r7, #4]
 8005636:	619a      	str	r2, [r3, #24]
  }
  else
  {
    GPIOx->BSRR = (uint32_t)GPIO_Pin << 16U;
  }
}
 8005638:	e003      	b.n	8005642 <HAL_GPIO_WritePin+0x26>
    GPIOx->BSRR = (uint32_t)GPIO_Pin << 16U;
 800563a:	887b      	ldrh	r3, [r7, #2]
 800563c:	041a      	lsls	r2, r3, #16
 800563e:	687b      	ldr	r3, [r7, #4]
 8005640:	619a      	str	r2, [r3, #24]
}
 8005642:	bf00      	nop
 8005644:	370c      	adds	r7, #12
 8005646:	46bd      	mov	sp, r7
 8005648:	f85d 7b04 	ldr.w	r7, [sp], #4
 800564c:	4770      	bx	lr
	...

08005650 <HAL_I2S_Init>:
  * @param  hi2s pointer to a I2S_HandleTypeDef structure that contains
  *         the configuration information for I2S module
  * @retval HAL status
  */
HAL_StatusTypeDef HAL_I2S_Init(I2S_HandleTypeDef *hi2s)
{
 8005650:	b580      	push	{r7, lr}
 8005652:	b088      	sub	sp, #32
 8005654:	af00      	add	r7, sp, #0
 8005656:	6078      	str	r0, [r7, #4]
#if defined (SPI_I2S_FULLDUPLEX_SUPPORT)
  uint16_t tmpreg;
#endif

  /* Check the I2S handle allocation */
  if (hi2s == NULL)
 8005658:	687b      	ldr	r3, [r7, #4]
 800565a:	2b00      	cmp	r3, #0
 800565c:	d101      	bne.n	8005662 <HAL_I2S_Init+0x12>
  {
    return HAL_ERROR;
 800565e:	2301      	movs	r3, #1
 8005660:	e128      	b.n	80058b4 <HAL_I2S_Init+0x264>
  assert_param(IS_I2S_MCLK_OUTPUT(hi2s->Init.MCLKOutput));
  assert_param(IS_I2S_AUDIO_FREQ(hi2s->Init.AudioFreq));
  assert_param(IS_I2S_CPOL(hi2s->Init.CPOL));
  assert_param(IS_I2S_CLOCKSOURCE(hi2s->Init.ClockSource));

  if (hi2s->State == HAL_I2S_STATE_RESET)
 8005662:	687b      	ldr	r3, [r7, #4]
 8005664:	f893 3041 	ldrb.w	r3, [r3, #65]	@ 0x41
 8005668:	b2db      	uxtb	r3, r3
 800566a:	2b00      	cmp	r3, #0
 800566c:	d109      	bne.n	8005682 <HAL_I2S_Init+0x32>
  {
    /* Allocate lock resource and initialize it */
    hi2s->Lock = HAL_UNLOCKED;
 800566e:	687b      	ldr	r3, [r7, #4]
 8005670:	2200      	movs	r2, #0
 8005672:	f883 2040 	strb.w	r2, [r3, #64]	@ 0x40

    /* Initialize Default I2S IrqHandler ISR */
    hi2s->IrqHandlerISR = I2S_IRQHandler;
 8005676:	687b      	ldr	r3, [r7, #4]
 8005678:	4a90      	ldr	r2, [pc, #576]	@ (80058bc <HAL_I2S_Init+0x26c>)
 800567a:	635a      	str	r2, [r3, #52]	@ 0x34

    /* Init the low level hardware : GPIO, CLOCK, NVIC... */
    hi2s->MspInitCallback(hi2s);
#else
    /* Init the low level hardware : GPIO, CLOCK, CORTEX...etc */
    HAL_I2S_MspInit(hi2s);
 800567c:	6878      	ldr	r0, [r7, #4]
 800567e:	f7fc f82f 	bl	80016e0 <HAL_I2S_MspInit>
#endif /* USE_HAL_I2S_REGISTER_CALLBACKS */
  }

  hi2s->State = HAL_I2S_STATE_BUSY;
 8005682:	687b      	ldr	r3, [r7, #4]
 8005684:	2202      	movs	r2, #2
 8005686:	f883 2041 	strb.w	r2, [r3, #65]	@ 0x41

  /*----------------------- SPIx I2SCFGR & I2SPR Configuration ----------------*/
  /* Clear I2SMOD, I2SE, I2SCFG, PCMSYNC, I2SSTD, CKPOL, DATLEN and CHLEN bits */
  CLEAR_BIT(hi2s->Instance->I2SCFGR, (SPI_I2SCFGR_CHLEN | SPI_I2SCFGR_DATLEN | SPI_I2SCFGR_CKPOL | \
 800568a:	687b      	ldr	r3, [r7, #4]
 800568c:	681b      	ldr	r3, [r3, #0]
 800568e:	69db      	ldr	r3, [r3, #28]
 8005690:	687a      	ldr	r2, [r7, #4]
 8005692:	6812      	ldr	r2, [r2, #0]
 8005694:	f423 637b 	bic.w	r3, r3, #4016	@ 0xfb0
 8005698:	f023 030f 	bic.w	r3, r3, #15
 800569c:	61d3      	str	r3, [r2, #28]
                                      SPI_I2SCFGR_I2SSTD | SPI_I2SCFGR_PCMSYNC | SPI_I2SCFGR_I2SCFG | \
                                      SPI_I2SCFGR_I2SE | SPI_I2SCFGR_I2SMOD));
  hi2s->Instance->I2SPR = 0x0002U;
 800569e:	687b      	ldr	r3, [r7, #4]
 80056a0:	681b      	ldr	r3, [r3, #0]
 80056a2:	2202      	movs	r2, #2
 80056a4:	621a      	str	r2, [r3, #32]

  /*----------------------- I2SPR: I2SDIV and ODD Calculation -----------------*/
  /* If the requested audio frequency is not the default, compute the prescaler */
  if (hi2s->Init.AudioFreq != I2S_AUDIOFREQ_DEFAULT)
 80056a6:	687b      	ldr	r3, [r7, #4]
 80056a8:	695b      	ldr	r3, [r3, #20]
 80056aa:	2b02      	cmp	r3, #2
 80056ac:	d060      	beq.n	8005770 <HAL_I2S_Init+0x120>
  {
    /* Check the frame length (For the Prescaler computing) ********************/
    if (hi2s->Init.DataFormat == I2S_DATAFORMAT_16B)
 80056ae:	687b      	ldr	r3, [r7, #4]
 80056b0:	68db      	ldr	r3, [r3, #12]
 80056b2:	2b00      	cmp	r3, #0
 80056b4:	d102      	bne.n	80056bc <HAL_I2S_Init+0x6c>
    {
      /* Packet length is 16 bits */
      packetlength = 16U;
 80056b6:	2310      	movs	r3, #16
 80056b8:	617b      	str	r3, [r7, #20]
 80056ba:	e001      	b.n	80056c0 <HAL_I2S_Init+0x70>
    }
    else
    {
      /* Packet length is 32 bits */
      packetlength = 32U;
 80056bc:	2320      	movs	r3, #32
 80056be:	617b      	str	r3, [r7, #20]
    }

    /* I2S standard */
    if (hi2s->Init.Standard <= I2S_STANDARD_LSB)
 80056c0:	687b      	ldr	r3, [r7, #4]
 80056c2:	689b      	ldr	r3, [r3, #8]
 80056c4:	2b20      	cmp	r3, #32
 80056c6:	d802      	bhi.n	80056ce <HAL_I2S_Init+0x7e>
    {
      /* In I2S standard packet length is multiplied by 2 */
      packetlength = packetlength * 2U;
 80056c8:	697b      	ldr	r3, [r7, #20]
 80056ca:	005b      	lsls	r3, r3, #1
 80056cc:	617b      	str	r3, [r7, #20]
    else
    {
      i2sclk = HAL_RCCEx_GetPeriphCLKFreq(RCC_PERIPHCLK_I2S_APB2);
    }
#else
    i2sclk = HAL_RCCEx_GetPeriphCLKFreq(RCC_PERIPHCLK_I2S);
 80056ce:	2001      	movs	r0, #1
 80056d0:	f001 faa4 	bl	8006c1c <HAL_RCCEx_GetPeriphCLKFreq>
 80056d4:	60f8      	str	r0, [r7, #12]
#endif /* I2S_APB1_APB2_FEATURE */

    /* Compute the Real divider depending on the MCLK output state, with a floating point */
    if (hi2s->Init.MCLKOutput == I2S_MCLKOUTPUT_ENABLE)
 80056d6:	687b      	ldr	r3, [r7, #4]
 80056d8:	691b      	ldr	r3, [r3, #16]
 80056da:	f5b3 7f00 	cmp.w	r3, #512	@ 0x200
 80056de:	d125      	bne.n	800572c <HAL_I2S_Init+0xdc>
    {
      /* MCLK output is enabled */
      if (hi2s->Init.DataFormat != I2S_DATAFORMAT_16B)
 80056e0:	687b      	ldr	r3, [r7, #4]
 80056e2:	68db      	ldr	r3, [r3, #12]
 80056e4:	2b00      	cmp	r3, #0
 80056e6:	d010      	beq.n	800570a <HAL_I2S_Init+0xba>
      {
        tmp = (uint32_t)(((((i2sclk / (packetlength * 4U)) * 10U) / hi2s->Init.AudioFreq)) + 5U);
 80056e8:	697b      	ldr	r3, [r7, #20]
 80056ea:	009b      	lsls	r3, r3, #2
 80056ec:	68fa      	ldr	r2, [r7, #12]
 80056ee:	fbb2 f2f3 	udiv	r2, r2, r3
 80056f2:	4613      	mov	r3, r2
 80056f4:	009b      	lsls	r3, r3, #2
 80056f6:	4413      	add	r3, r2
 80056f8:	005b      	lsls	r3, r3, #1
 80056fa:	461a      	mov	r2, r3
 80056fc:	687b      	ldr	r3, [r7, #4]
 80056fe:	695b      	ldr	r3, [r3, #20]
 8005700:	fbb2 f3f3 	udiv	r3, r2, r3
 8005704:	3305      	adds	r3, #5
 8005706:	613b      	str	r3, [r7, #16]
 8005708:	e01f      	b.n	800574a <HAL_I2S_Init+0xfa>
      }
      else
      {
        tmp = (uint32_t)(((((i2sclk / (packetlength * 8U)) * 10U) / hi2s->Init.AudioFreq)) + 5U);
 800570a:	697b      	ldr	r3, [r7, #20]
 800570c:	00db      	lsls	r3, r3, #3
 800570e:	68fa      	ldr	r2, [r7, #12]
 8005710:	fbb2 f2f3 	udiv	r2, r2, r3
 8005714:	4613      	mov	r3, r2
 8005716:	009b      	lsls	r3, r3, #2
 8005718:	4413      	add	r3, r2
 800571a:	005b      	lsls	r3, r3, #1
 800571c:	461a      	mov	r2, r3
 800571e:	687b      	ldr	r3, [r7, #4]
 8005720:	695b      	ldr	r3, [r3, #20]
 8005722:	fbb2 f3f3 	udiv	r3, r2, r3
 8005726:	3305      	adds	r3, #5
 8005728:	613b      	str	r3, [r7, #16]
 800572a:	e00e      	b.n	800574a <HAL_I2S_Init+0xfa>
      }
    }
    else
    {
      /* MCLK output is disabled */
      tmp = (uint32_t)(((((i2sclk / packetlength) * 10U) / hi2s->Init.AudioFreq)) + 5U);
 800572c:	68fa      	ldr	r2, [r7, #12]
 800572e:	697b      	ldr	r3, [r7, #20]
 8005730:	fbb2 f2f3 	udiv	r2, r2, r3
 8005734:	4613      	mov	r3, r2
 8005736:	009b      	lsls	r3, r3, #2
 8005738:	4413      	add	r3, r2
 800573a:	005b      	lsls	r3, r3, #1
 800573c:	461a      	mov	r2, r3
 800573e:	687b      	ldr	r3, [r7, #4]
 8005740:	695b      	ldr	r3, [r3, #20]
 8005742:	fbb2 f3f3 	udiv	r3, r2, r3
 8005746:	3305      	adds	r3, #5
 8005748:	613b      	str	r3, [r7, #16]
    }

    /* Remove the flatting point */
    tmp = tmp / 10U;
 800574a:	693b      	ldr	r3, [r7, #16]
 800574c:	4a5c      	ldr	r2, [pc, #368]	@ (80058c0 <HAL_I2S_Init+0x270>)
 800574e:	fba2 2303 	umull	r2, r3, r2, r3
 8005752:	08db      	lsrs	r3, r3, #3
 8005754:	613b      	str	r3, [r7, #16]

    /* Check the parity of the divider */
    i2sodd = (uint32_t)(tmp & (uint32_t)1U);
 8005756:	693b      	ldr	r3, [r7, #16]
 8005758:	f003 0301 	and.w	r3, r3, #1
 800575c:	61bb      	str	r3, [r7, #24]

    /* Compute the i2sdiv prescaler */
    i2sdiv = (uint32_t)((tmp - i2sodd) / 2U);
 800575e:	693a      	ldr	r2, [r7, #16]
 8005760:	69bb      	ldr	r3, [r7, #24]
 8005762:	1ad3      	subs	r3, r2, r3
 8005764:	085b      	lsrs	r3, r3, #1
 8005766:	61fb      	str	r3, [r7, #28]

    /* Get the Mask for the Odd bit (SPI_I2SPR[8]) register */
    i2sodd = (uint32_t)(i2sodd << 8U);
 8005768:	69bb      	ldr	r3, [r7, #24]
 800576a:	021b      	lsls	r3, r3, #8
 800576c:	61bb      	str	r3, [r7, #24]
 800576e:	e003      	b.n	8005778 <HAL_I2S_Init+0x128>
  }
  else
  {
    /* Set the default values */
    i2sdiv = 2U;
 8005770:	2302      	movs	r3, #2
 8005772:	61fb      	str	r3, [r7, #28]
    i2sodd = 0U;
 8005774:	2300      	movs	r3, #0
 8005776:	61bb      	str	r3, [r7, #24]
  }

  /* Test if the divider is 1 or 0 or greater than 0xFF */
  if ((i2sdiv < 2U) || (i2sdiv > 0xFFU))
 8005778:	69fb      	ldr	r3, [r7, #28]
 800577a:	2b01      	cmp	r3, #1
 800577c:	d902      	bls.n	8005784 <HAL_I2S_Init+0x134>
 800577e:	69fb      	ldr	r3, [r7, #28]
 8005780:	2bff      	cmp	r3, #255	@ 0xff
 8005782:	d907      	bls.n	8005794 <HAL_I2S_Init+0x144>
  {
    /* Set the error code and execute error callback*/
    SET_BIT(hi2s->ErrorCode, HAL_I2S_ERROR_PRESCALER);
 8005784:	687b      	ldr	r3, [r7, #4]
 8005786:	6c5b      	ldr	r3, [r3, #68]	@ 0x44
 8005788:	f043 0210 	orr.w	r2, r3, #16
 800578c:	687b      	ldr	r3, [r7, #4]
 800578e:	645a      	str	r2, [r3, #68]	@ 0x44
    return  HAL_ERROR;
 8005790:	2301      	movs	r3, #1
 8005792:	e08f      	b.n	80058b4 <HAL_I2S_Init+0x264>
  }

  /*----------------------- SPIx I2SCFGR & I2SPR Configuration ----------------*/

  /* Write to SPIx I2SPR register the computed value */
  hi2s->Instance->I2SPR = (uint32_t)((uint32_t)i2sdiv | (uint32_t)(i2sodd | (uint32_t)hi2s->Init.MCLKOutput));
 8005794:	687b      	ldr	r3, [r7, #4]
 8005796:	691a      	ldr	r2, [r3, #16]
 8005798:	69bb      	ldr	r3, [r7, #24]
 800579a:	ea42 0103 	orr.w	r1, r2, r3
 800579e:	687b      	ldr	r3, [r7, #4]
 80057a0:	681b      	ldr	r3, [r3, #0]
 80057a2:	69fa      	ldr	r2, [r7, #28]
 80057a4:	430a      	orrs	r2, r1
 80057a6:	621a      	str	r2, [r3, #32]

  /* Clear I2SMOD, I2SE, I2SCFG, PCMSYNC, I2SSTD, CKPOL, DATLEN and CHLEN bits */
  /* And configure the I2S with the I2S_InitStruct values                      */
  MODIFY_REG(hi2s->Instance->I2SCFGR, (SPI_I2SCFGR_CHLEN | SPI_I2SCFGR_DATLEN | \
 80057a8:	687b      	ldr	r3, [r7, #4]
 80057aa:	681b      	ldr	r3, [r3, #0]
 80057ac:	69db      	ldr	r3, [r3, #28]
 80057ae:	f423 637b 	bic.w	r3, r3, #4016	@ 0xfb0
 80057b2:	f023 030f 	bic.w	r3, r3, #15
 80057b6:	687a      	ldr	r2, [r7, #4]
 80057b8:	6851      	ldr	r1, [r2, #4]
 80057ba:	687a      	ldr	r2, [r7, #4]
 80057bc:	6892      	ldr	r2, [r2, #8]
 80057be:	4311      	orrs	r1, r2
 80057c0:	687a      	ldr	r2, [r7, #4]
 80057c2:	68d2      	ldr	r2, [r2, #12]
 80057c4:	4311      	orrs	r1, r2
 80057c6:	687a      	ldr	r2, [r7, #4]
 80057c8:	6992      	ldr	r2, [r2, #24]
 80057ca:	430a      	orrs	r2, r1
 80057cc:	431a      	orrs	r2, r3
 80057ce:	687b      	ldr	r3, [r7, #4]
 80057d0:	681b      	ldr	r3, [r3, #0]
 80057d2:	f442 6200 	orr.w	r2, r2, #2048	@ 0x800
 80057d6:	61da      	str	r2, [r3, #28]
#if defined (SPI_I2S_FULLDUPLEX_SUPPORT)

  /* Configure the I2S extended if the full duplex mode is enabled */
  assert_param(IS_I2S_FULLDUPLEX_MODE(hi2s->Init.FullDuplexMode));

  if (hi2s->Init.FullDuplexMode == I2S_FULLDUPLEXMODE_ENABLE)
 80057d8:	687b      	ldr	r3, [r7, #4]
 80057da:	6a1b      	ldr	r3, [r3, #32]
 80057dc:	2b01      	cmp	r3, #1
 80057de:	d161      	bne.n	80058a4 <HAL_I2S_Init+0x254>
  {
    /* Set FullDuplex I2S IrqHandler ISR if FULLDUPLEXMODE is enabled */
    hi2s->IrqHandlerISR = HAL_I2SEx_FullDuplex_IRQHandler;
 80057e0:	687b      	ldr	r3, [r7, #4]
 80057e2:	4a38      	ldr	r2, [pc, #224]	@ (80058c4 <HAL_I2S_Init+0x274>)
 80057e4:	635a      	str	r2, [r3, #52]	@ 0x34

    /* Clear I2SMOD, I2SE, I2SCFG, PCMSYNC, I2SSTD, CKPOL, DATLEN and CHLEN bits */
    CLEAR_BIT(I2SxEXT(hi2s->Instance)->I2SCFGR, (SPI_I2SCFGR_CHLEN | SPI_I2SCFGR_DATLEN | SPI_I2SCFGR_CKPOL | \
 80057e6:	687b      	ldr	r3, [r7, #4]
 80057e8:	681b      	ldr	r3, [r3, #0]
 80057ea:	4a37      	ldr	r2, [pc, #220]	@ (80058c8 <HAL_I2S_Init+0x278>)
 80057ec:	4293      	cmp	r3, r2
 80057ee:	d101      	bne.n	80057f4 <HAL_I2S_Init+0x1a4>
 80057f0:	4b36      	ldr	r3, [pc, #216]	@ (80058cc <HAL_I2S_Init+0x27c>)
 80057f2:	e001      	b.n	80057f8 <HAL_I2S_Init+0x1a8>
 80057f4:	f04f 2340 	mov.w	r3, #1073758208	@ 0x40004000
 80057f8:	69db      	ldr	r3, [r3, #28]
 80057fa:	687a      	ldr	r2, [r7, #4]
 80057fc:	6812      	ldr	r2, [r2, #0]
 80057fe:	4932      	ldr	r1, [pc, #200]	@ (80058c8 <HAL_I2S_Init+0x278>)
 8005800:	428a      	cmp	r2, r1
 8005802:	d101      	bne.n	8005808 <HAL_I2S_Init+0x1b8>
 8005804:	4a31      	ldr	r2, [pc, #196]	@ (80058cc <HAL_I2S_Init+0x27c>)
 8005806:	e001      	b.n	800580c <HAL_I2S_Init+0x1bc>
 8005808:	f04f 2240 	mov.w	r2, #1073758208	@ 0x40004000
 800580c:	f423 637b 	bic.w	r3, r3, #4016	@ 0xfb0
 8005810:	f023 030f 	bic.w	r3, r3, #15
 8005814:	61d3      	str	r3, [r2, #28]
                                                 SPI_I2SCFGR_I2SSTD | SPI_I2SCFGR_PCMSYNC | SPI_I2SCFGR_I2SCFG | \
                                                 SPI_I2SCFGR_I2SE | SPI_I2SCFGR_I2SMOD));
    I2SxEXT(hi2s->Instance)->I2SPR = 2U;
 8005816:	687b      	ldr	r3, [r7, #4]
 8005818:	681b      	ldr	r3, [r3, #0]
 800581a:	4a2b      	ldr	r2, [pc, #172]	@ (80058c8 <HAL_I2S_Init+0x278>)
 800581c:	4293      	cmp	r3, r2
 800581e:	d101      	bne.n	8005824 <HAL_I2S_Init+0x1d4>
 8005820:	4b2a      	ldr	r3, [pc, #168]	@ (80058cc <HAL_I2S_Init+0x27c>)
 8005822:	e001      	b.n	8005828 <HAL_I2S_Init+0x1d8>
 8005824:	f04f 2340 	mov.w	r3, #1073758208	@ 0x40004000
 8005828:	2202      	movs	r2, #2
 800582a:	621a      	str	r2, [r3, #32]

    /* Get the I2SCFGR register value */
    tmpreg = I2SxEXT(hi2s->Instance)->I2SCFGR;
 800582c:	687b      	ldr	r3, [r7, #4]
 800582e:	681b      	ldr	r3, [r3, #0]
 8005830:	4a25      	ldr	r2, [pc, #148]	@ (80058c8 <HAL_I2S_Init+0x278>)
 8005832:	4293      	cmp	r3, r2
 8005834:	d101      	bne.n	800583a <HAL_I2S_Init+0x1ea>
 8005836:	4b25      	ldr	r3, [pc, #148]	@ (80058cc <HAL_I2S_Init+0x27c>)
 8005838:	e001      	b.n	800583e <HAL_I2S_Init+0x1ee>
 800583a:	f04f 2340 	mov.w	r3, #1073758208	@ 0x40004000
 800583e:	69db      	ldr	r3, [r3, #28]
 8005840:	817b      	strh	r3, [r7, #10]

    /* Get the mode to be configured for the extended I2S */
    if ((hi2s->Init.Mode == I2S_MODE_MASTER_TX) || (hi2s->Init.Mode == I2S_MODE_SLAVE_TX))
 8005842:	687b      	ldr	r3, [r7, #4]
 8005844:	685b      	ldr	r3, [r3, #4]
 8005846:	f5b3 7f00 	cmp.w	r3, #512	@ 0x200
 800584a:	d003      	beq.n	8005854 <HAL_I2S_Init+0x204>
 800584c:	687b      	ldr	r3, [r7, #4]
 800584e:	685b      	ldr	r3, [r3, #4]
 8005850:	2b00      	cmp	r3, #0
 8005852:	d103      	bne.n	800585c <HAL_I2S_Init+0x20c>
    {
      tmp = I2S_MODE_SLAVE_RX;
 8005854:	f44f 7380 	mov.w	r3, #256	@ 0x100
 8005858:	613b      	str	r3, [r7, #16]
 800585a:	e001      	b.n	8005860 <HAL_I2S_Init+0x210>
    }
    else /* I2S_MODE_MASTER_RX ||  I2S_MODE_SLAVE_RX */
    {
      tmp = I2S_MODE_SLAVE_TX;
 800585c:	2300      	movs	r3, #0
 800585e:	613b      	str	r3, [r7, #16]
    }

    /* Configure the I2S Slave with the I2S Master parameter values */
    tmpreg |= (uint16_t)((uint16_t)SPI_I2SCFGR_I2SMOD    | \
                         (uint16_t)tmp                   | \
 8005860:	693b      	ldr	r3, [r7, #16]
 8005862:	b29a      	uxth	r2, r3
                         (uint16_t)hi2s->Init.Standard   | \
 8005864:	687b      	ldr	r3, [r7, #4]
 8005866:	689b      	ldr	r3, [r3, #8]
 8005868:	b29b      	uxth	r3, r3
    tmpreg |= (uint16_t)((uint16_t)SPI_I2SCFGR_I2SMOD    | \
 800586a:	4313      	orrs	r3, r2
 800586c:	b29a      	uxth	r2, r3
                         (uint16_t)hi2s->Init.DataFormat | \
 800586e:	687b      	ldr	r3, [r7, #4]
 8005870:	68db      	ldr	r3, [r3, #12]
 8005872:	b29b      	uxth	r3, r3
    tmpreg |= (uint16_t)((uint16_t)SPI_I2SCFGR_I2SMOD    | \
 8005874:	4313      	orrs	r3, r2
 8005876:	b29a      	uxth	r2, r3
                         (uint16_t)hi2s->Init.CPOL);
 8005878:	687b      	ldr	r3, [r7, #4]
 800587a:	699b      	ldr	r3, [r3, #24]
 800587c:	b29b      	uxth	r3, r3
    tmpreg |= (uint16_t)((uint16_t)SPI_I2SCFGR_I2SMOD    | \
 800587e:	4313      	orrs	r3, r2
 8005880:	b29a      	uxth	r2, r3
 8005882:	897b      	ldrh	r3, [r7, #10]
 8005884:	4313      	orrs	r3, r2
 8005886:	b29b      	uxth	r3, r3
 8005888:	f443 6300 	orr.w	r3, r3, #2048	@ 0x800
 800588c:	817b      	strh	r3, [r7, #10]

    /* Write to SPIx I2SCFGR */
    WRITE_REG(I2SxEXT(hi2s->Instance)->I2SCFGR, tmpreg);
 800588e:	687b      	ldr	r3, [r7, #4]
 8005890:	681b      	ldr	r3, [r3, #0]
 8005892:	4a0d      	ldr	r2, [pc, #52]	@ (80058c8 <HAL_I2S_Init+0x278>)
 8005894:	4293      	cmp	r3, r2
 8005896:	d101      	bne.n	800589c <HAL_I2S_Init+0x24c>
 8005898:	4b0c      	ldr	r3, [pc, #48]	@ (80058cc <HAL_I2S_Init+0x27c>)
 800589a:	e001      	b.n	80058a0 <HAL_I2S_Init+0x250>
 800589c:	f04f 2340 	mov.w	r3, #1073758208	@ 0x40004000
 80058a0:	897a      	ldrh	r2, [r7, #10]
 80058a2:	61da      	str	r2, [r3, #28]
  }
#endif /* SPI_I2S_FULLDUPLEX_SUPPORT */

  hi2s->ErrorCode = HAL_I2S_ERROR_NONE;
 80058a4:	687b      	ldr	r3, [r7, #4]
 80058a6:	2200      	movs	r2, #0
 80058a8:	645a      	str	r2, [r3, #68]	@ 0x44
  hi2s->State     = HAL_I2S_STATE_READY;
 80058aa:	687b      	ldr	r3, [r7, #4]
 80058ac:	2201      	movs	r2, #1
 80058ae:	f883 2041 	strb.w	r2, [r3, #65]	@ 0x41

  return HAL_OK;
 80058b2:	2300      	movs	r3, #0
}
 80058b4:	4618      	mov	r0, r3
 80058b6:	3720      	adds	r7, #32
 80058b8:	46bd      	mov	sp, r7
 80058ba:	bd80      	pop	{r7, pc}
 80058bc:	08005bcd 	.word	0x08005bcd
 80058c0:	cccccccd 	.word	0xcccccccd
 80058c4:	08005ce1 	.word	0x08005ce1
 80058c8:	40003800 	.word	0x40003800
 80058cc:	40003400 	.word	0x40003400

080058d0 <HAL_I2S_Receive_DMA>:
  * @note   The I2S is kept enabled at the end of transaction to avoid the clock de-synchronization
  *         between Master and Slave(example: audio streaming).
  * @retval HAL status
  */
HAL_StatusTypeDef HAL_I2S_Receive_DMA(I2S_HandleTypeDef *hi2s, uint16_t *pData, uint16_t Size)
{
 80058d0:	b580      	push	{r7, lr}
 80058d2:	b086      	sub	sp, #24
 80058d4:	af00      	add	r7, sp, #0
 80058d6:	60f8      	str	r0, [r7, #12]
 80058d8:	60b9      	str	r1, [r7, #8]
 80058da:	4613      	mov	r3, r2
 80058dc:	80fb      	strh	r3, [r7, #6]
  uint32_t tmpreg_cfgr;

  if ((pData == NULL) || (Size == 0U))
 80058de:	68bb      	ldr	r3, [r7, #8]
 80058e0:	2b00      	cmp	r3, #0
 80058e2:	d002      	beq.n	80058ea <HAL_I2S_Receive_DMA+0x1a>
 80058e4:	88fb      	ldrh	r3, [r7, #6]
 80058e6:	2b00      	cmp	r3, #0
 80058e8:	d101      	bne.n	80058ee <HAL_I2S_Receive_DMA+0x1e>
  {
    return  HAL_ERROR;
 80058ea:	2301      	movs	r3, #1
 80058ec:	e09d      	b.n	8005a2a <HAL_I2S_Receive_DMA+0x15a>
  }

  if (hi2s->State != HAL_I2S_STATE_READY)
 80058ee:	68fb      	ldr	r3, [r7, #12]
 80058f0:	f893 3041 	ldrb.w	r3, [r3, #65]	@ 0x41
 80058f4:	b2db      	uxtb	r3, r3
 80058f6:	2b01      	cmp	r3, #1
 80058f8:	d001      	beq.n	80058fe <HAL_I2S_Receive_DMA+0x2e>
  {
    return HAL_BUSY;
 80058fa:	2302      	movs	r3, #2
 80058fc:	e095      	b.n	8005a2a <HAL_I2S_Receive_DMA+0x15a>
  }

  /* Process Locked */
  __HAL_LOCK(hi2s);
 80058fe:	68fb      	ldr	r3, [r7, #12]
 8005900:	f893 3040 	ldrb.w	r3, [r3, #64]	@ 0x40
 8005904:	b2db      	uxtb	r3, r3
 8005906:	2b01      	cmp	r3, #1
 8005908:	d101      	bne.n	800590e <HAL_I2S_Receive_DMA+0x3e>
 800590a:	2302      	movs	r3, #2
 800590c:	e08d      	b.n	8005a2a <HAL_I2S_Receive_DMA+0x15a>
 800590e:	68fb      	ldr	r3, [r7, #12]
 8005910:	2201      	movs	r2, #1
 8005912:	f883 2040 	strb.w	r2, [r3, #64]	@ 0x40

  /* Set state and reset error code */
  hi2s->State = HAL_I2S_STATE_BUSY_RX;
 8005916:	68fb      	ldr	r3, [r7, #12]
 8005918:	2204      	movs	r2, #4
 800591a:	f883 2041 	strb.w	r2, [r3, #65]	@ 0x41
  hi2s->ErrorCode = HAL_I2S_ERROR_NONE;
 800591e:	68fb      	ldr	r3, [r7, #12]
 8005920:	2200      	movs	r2, #0
 8005922:	645a      	str	r2, [r3, #68]	@ 0x44
  hi2s->pRxBuffPtr = pData;
 8005924:	68fb      	ldr	r3, [r7, #12]
 8005926:	68ba      	ldr	r2, [r7, #8]
 8005928:	62da      	str	r2, [r3, #44]	@ 0x2c

  tmpreg_cfgr = hi2s->Instance->I2SCFGR & (SPI_I2SCFGR_DATLEN | SPI_I2SCFGR_CHLEN);
 800592a:	68fb      	ldr	r3, [r7, #12]
 800592c:	681b      	ldr	r3, [r3, #0]
 800592e:	69db      	ldr	r3, [r3, #28]
 8005930:	f003 0307 	and.w	r3, r3, #7
 8005934:	617b      	str	r3, [r7, #20]

  if ((tmpreg_cfgr == I2S_DATAFORMAT_24B) || (tmpreg_cfgr == I2S_DATAFORMAT_32B))
 8005936:	697b      	ldr	r3, [r7, #20]
 8005938:	2b03      	cmp	r3, #3
 800593a:	d002      	beq.n	8005942 <HAL_I2S_Receive_DMA+0x72>
 800593c:	697b      	ldr	r3, [r7, #20]
 800593e:	2b05      	cmp	r3, #5
 8005940:	d10a      	bne.n	8005958 <HAL_I2S_Receive_DMA+0x88>
  {
    hi2s->RxXferSize = (Size << 1U);
 8005942:	88fb      	ldrh	r3, [r7, #6]
 8005944:	005b      	lsls	r3, r3, #1
 8005946:	b29a      	uxth	r2, r3
 8005948:	68fb      	ldr	r3, [r7, #12]
 800594a:	861a      	strh	r2, [r3, #48]	@ 0x30
    hi2s->RxXferCount = (Size << 1U);
 800594c:	88fb      	ldrh	r3, [r7, #6]
 800594e:	005b      	lsls	r3, r3, #1
 8005950:	b29a      	uxth	r2, r3
 8005952:	68fb      	ldr	r3, [r7, #12]
 8005954:	865a      	strh	r2, [r3, #50]	@ 0x32
 8005956:	e005      	b.n	8005964 <HAL_I2S_Receive_DMA+0x94>
  }
  else
  {
    hi2s->RxXferSize = Size;
 8005958:	68fb      	ldr	r3, [r7, #12]
 800595a:	88fa      	ldrh	r2, [r7, #6]
 800595c:	861a      	strh	r2, [r3, #48]	@ 0x30
    hi2s->RxXferCount = Size;
 800595e:	68fb      	ldr	r3, [r7, #12]
 8005960:	88fa      	ldrh	r2, [r7, #6]
 8005962:	865a      	strh	r2, [r3, #50]	@ 0x32
  }

  /* Set the I2S Rx DMA Half transfer complete callback */
  hi2s->hdmarx->XferHalfCpltCallback = I2S_DMARxHalfCplt;
 8005964:	68fb      	ldr	r3, [r7, #12]
 8005966:	6bdb      	ldr	r3, [r3, #60]	@ 0x3c
 8005968:	4a32      	ldr	r2, [pc, #200]	@ (8005a34 <HAL_I2S_Receive_DMA+0x164>)
 800596a:	641a      	str	r2, [r3, #64]	@ 0x40

  /* Set the I2S Rx DMA transfer complete callback */
  hi2s->hdmarx->XferCpltCallback = I2S_DMARxCplt;
 800596c:	68fb      	ldr	r3, [r7, #12]
 800596e:	6bdb      	ldr	r3, [r3, #60]	@ 0x3c
 8005970:	4a31      	ldr	r2, [pc, #196]	@ (8005a38 <HAL_I2S_Receive_DMA+0x168>)
 8005972:	63da      	str	r2, [r3, #60]	@ 0x3c

  /* Set the DMA error callback */
  hi2s->hdmarx->XferErrorCallback = I2S_DMAError;
 8005974:	68fb      	ldr	r3, [r7, #12]
 8005976:	6bdb      	ldr	r3, [r3, #60]	@ 0x3c
 8005978:	4a30      	ldr	r2, [pc, #192]	@ (8005a3c <HAL_I2S_Receive_DMA+0x16c>)
 800597a:	64da      	str	r2, [r3, #76]	@ 0x4c

  /* Check if Master Receiver mode is selected */
  if ((hi2s->Instance->I2SCFGR & SPI_I2SCFGR_I2SCFG) == I2S_MODE_MASTER_RX)
 800597c:	68fb      	ldr	r3, [r7, #12]
 800597e:	681b      	ldr	r3, [r3, #0]
 8005980:	69db      	ldr	r3, [r3, #28]
 8005982:	f403 7340 	and.w	r3, r3, #768	@ 0x300
 8005986:	f5b3 7f40 	cmp.w	r3, #768	@ 0x300
 800598a:	d10a      	bne.n	80059a2 <HAL_I2S_Receive_DMA+0xd2>
  {
    /* Clear the Overrun Flag by a read operation to the SPI_DR register followed by a read
    access to the SPI_SR register. */
    __HAL_I2S_CLEAR_OVRFLAG(hi2s);
 800598c:	2300      	movs	r3, #0
 800598e:	613b      	str	r3, [r7, #16]
 8005990:	68fb      	ldr	r3, [r7, #12]
 8005992:	681b      	ldr	r3, [r3, #0]
 8005994:	68db      	ldr	r3, [r3, #12]
 8005996:	613b      	str	r3, [r7, #16]
 8005998:	68fb      	ldr	r3, [r7, #12]
 800599a:	681b      	ldr	r3, [r3, #0]
 800599c:	689b      	ldr	r3, [r3, #8]
 800599e:	613b      	str	r3, [r7, #16]
 80059a0:	693b      	ldr	r3, [r7, #16]
  }

  /* Enable the Rx DMA Stream/Channel */
  if (HAL_OK != HAL_DMA_Start_IT(hi2s->hdmarx, (uint32_t)&hi2s->Instance->DR, (uint32_t)hi2s->pRxBuffPtr,
 80059a2:	68fb      	ldr	r3, [r7, #12]
 80059a4:	6bd8      	ldr	r0, [r3, #60]	@ 0x3c
 80059a6:	68fb      	ldr	r3, [r7, #12]
 80059a8:	681b      	ldr	r3, [r3, #0]
 80059aa:	330c      	adds	r3, #12
 80059ac:	4619      	mov	r1, r3
 80059ae:	68fb      	ldr	r3, [r7, #12]
 80059b0:	6adb      	ldr	r3, [r3, #44]	@ 0x2c
 80059b2:	461a      	mov	r2, r3
                                 hi2s->RxXferSize))
 80059b4:	68fb      	ldr	r3, [r7, #12]
 80059b6:	8e1b      	ldrh	r3, [r3, #48]	@ 0x30
 80059b8:	b29b      	uxth	r3, r3
  if (HAL_OK != HAL_DMA_Start_IT(hi2s->hdmarx, (uint32_t)&hi2s->Instance->DR, (uint32_t)hi2s->pRxBuffPtr,
 80059ba:	f7ff f9e9 	bl	8004d90 <HAL_DMA_Start_IT>
 80059be:	4603      	mov	r3, r0
 80059c0:	2b00      	cmp	r3, #0
 80059c2:	d00f      	beq.n	80059e4 <HAL_I2S_Receive_DMA+0x114>
  {
    /* Update SPI error code */
    SET_BIT(hi2s->ErrorCode, HAL_I2S_ERROR_DMA);
 80059c4:	68fb      	ldr	r3, [r7, #12]
 80059c6:	6c5b      	ldr	r3, [r3, #68]	@ 0x44
 80059c8:	f043 0208 	orr.w	r2, r3, #8
 80059cc:	68fb      	ldr	r3, [r7, #12]
 80059ce:	645a      	str	r2, [r3, #68]	@ 0x44
    hi2s->State = HAL_I2S_STATE_READY;
 80059d0:	68fb      	ldr	r3, [r7, #12]
 80059d2:	2201      	movs	r2, #1
 80059d4:	f883 2041 	strb.w	r2, [r3, #65]	@ 0x41

    __HAL_UNLOCK(hi2s);
 80059d8:	68fb      	ldr	r3, [r7, #12]
 80059da:	2200      	movs	r2, #0
 80059dc:	f883 2040 	strb.w	r2, [r3, #64]	@ 0x40
    return HAL_ERROR;
 80059e0:	2301      	movs	r3, #1
 80059e2:	e022      	b.n	8005a2a <HAL_I2S_Receive_DMA+0x15a>
  }

  __HAL_UNLOCK(hi2s);
 80059e4:	68fb      	ldr	r3, [r7, #12]
 80059e6:	2200      	movs	r2, #0
 80059e8:	f883 2040 	strb.w	r2, [r3, #64]	@ 0x40

  /* Check if the I2S Rx request is already enabled */
  if (HAL_IS_BIT_CLR(hi2s->Instance->CR2, SPI_CR2_RXDMAEN))
 80059ec:	68fb      	ldr	r3, [r7, #12]
 80059ee:	681b      	ldr	r3, [r3, #0]
 80059f0:	685b      	ldr	r3, [r3, #4]
 80059f2:	f003 0301 	and.w	r3, r3, #1
 80059f6:	2b00      	cmp	r3, #0
 80059f8:	d107      	bne.n	8005a0a <HAL_I2S_Receive_DMA+0x13a>
  {
    /* Enable Rx DMA Request */
    SET_BIT(hi2s->Instance->CR2, SPI_CR2_RXDMAEN);
 80059fa:	68fb      	ldr	r3, [r7, #12]
 80059fc:	681b      	ldr	r3, [r3, #0]
 80059fe:	685a      	ldr	r2, [r3, #4]
 8005a00:	68fb      	ldr	r3, [r7, #12]
 8005a02:	681b      	ldr	r3, [r3, #0]
 8005a04:	f042 0201 	orr.w	r2, r2, #1
 8005a08:	605a      	str	r2, [r3, #4]
  }

  /* Check if the I2S is already enabled */
  if (HAL_IS_BIT_CLR(hi2s->Instance->I2SCFGR, SPI_I2SCFGR_I2SE))
 8005a0a:	68fb      	ldr	r3, [r7, #12]
 8005a0c:	681b      	ldr	r3, [r3, #0]
 8005a0e:	69db      	ldr	r3, [r3, #28]
 8005a10:	f403 6380 	and.w	r3, r3, #1024	@ 0x400
 8005a14:	2b00      	cmp	r3, #0
 8005a16:	d107      	bne.n	8005a28 <HAL_I2S_Receive_DMA+0x158>
  {
    /* Enable I2S peripheral */
    __HAL_I2S_ENABLE(hi2s);
 8005a18:	68fb      	ldr	r3, [r7, #12]
 8005a1a:	681b      	ldr	r3, [r3, #0]
 8005a1c:	69da      	ldr	r2, [r3, #28]
 8005a1e:	68fb      	ldr	r3, [r7, #12]
 8005a20:	681b      	ldr	r3, [r3, #0]
 8005a22:	f442 6280 	orr.w	r2, r2, #1024	@ 0x400
 8005a26:	61da      	str	r2, [r3, #28]
  }

  return HAL_OK;
 8005a28:	2300      	movs	r3, #0
}
 8005a2a:	4618      	mov	r0, r3
 8005a2c:	3718      	adds	r7, #24
 8005a2e:	46bd      	mov	sp, r7
 8005a30:	bd80      	pop	{r7, pc}
 8005a32:	bf00      	nop
 8005a34:	08005aab 	.word	0x08005aab
 8005a38:	08005a69 	.word	0x08005a69
 8005a3c:	08005ac7 	.word	0x08005ac7

08005a40 <HAL_I2S_TxCpltCallback>:
  * @param  hi2s pointer to a I2S_HandleTypeDef structure that contains
  *         the configuration information for I2S module
  * @retval None
  */
__weak void HAL_I2S_TxCpltCallback(I2S_HandleTypeDef *hi2s)
{
 8005a40:	b480      	push	{r7}
 8005a42:	b083      	sub	sp, #12
 8005a44:	af00      	add	r7, sp, #0
 8005a46:	6078      	str	r0, [r7, #4]
  UNUSED(hi2s);

  /* NOTE : This function Should not be modified, when the callback is needed,
            the HAL_I2S_TxCpltCallback could be implemented in the user file
   */
}
 8005a48:	bf00      	nop
 8005a4a:	370c      	adds	r7, #12
 8005a4c:	46bd      	mov	sp, r7
 8005a4e:	f85d 7b04 	ldr.w	r7, [sp], #4
 8005a52:	4770      	bx	lr

08005a54 <HAL_I2S_ErrorCallback>:
  * @param  hi2s pointer to a I2S_HandleTypeDef structure that contains
  *         the configuration information for I2S module
  * @retval None
  */
__weak void HAL_I2S_ErrorCallback(I2S_HandleTypeDef *hi2s)
{
 8005a54:	b480      	push	{r7}
 8005a56:	b083      	sub	sp, #12
 8005a58:	af00      	add	r7, sp, #0
 8005a5a:	6078      	str	r0, [r7, #4]
  UNUSED(hi2s);

  /* NOTE : This function Should not be modified, when the callback is needed,
            the HAL_I2S_ErrorCallback could be implemented in the user file
   */
}
 8005a5c:	bf00      	nop
 8005a5e:	370c      	adds	r7, #12
 8005a60:	46bd      	mov	sp, r7
 8005a62:	f85d 7b04 	ldr.w	r7, [sp], #4
 8005a66:	4770      	bx	lr

08005a68 <I2S_DMARxCplt>:
  * @param  hdma pointer to a DMA_HandleTypeDef structure that contains
  *                the configuration information for the specified DMA module.
  * @retval None
  */
static void I2S_DMARxCplt(DMA_HandleTypeDef *hdma)
{
 8005a68:	b580      	push	{r7, lr}
 8005a6a:	b084      	sub	sp, #16
 8005a6c:	af00      	add	r7, sp, #0
 8005a6e:	6078      	str	r0, [r7, #4]
  I2S_HandleTypeDef *hi2s = (I2S_HandleTypeDef *)((DMA_HandleTypeDef *)hdma)->Parent; /* Derogation MISRAC2012-Rule-11.5 */
 8005a70:	687b      	ldr	r3, [r7, #4]
 8005a72:	6b9b      	ldr	r3, [r3, #56]	@ 0x38
 8005a74:	60fb      	str	r3, [r7, #12]

  /* if DMA is configured in DMA_NORMAL Mode */
  if (hdma->Init.Mode == DMA_NORMAL)
 8005a76:	687b      	ldr	r3, [r7, #4]
 8005a78:	69db      	ldr	r3, [r3, #28]
 8005a7a:	2b00      	cmp	r3, #0
 8005a7c:	d10e      	bne.n	8005a9c <I2S_DMARxCplt+0x34>
  {
    /* Disable Rx DMA Request */
    CLEAR_BIT(hi2s->Instance->CR2, SPI_CR2_RXDMAEN);
 8005a7e:	68fb      	ldr	r3, [r7, #12]
 8005a80:	681b      	ldr	r3, [r3, #0]
 8005a82:	685a      	ldr	r2, [r3, #4]
 8005a84:	68fb      	ldr	r3, [r7, #12]
 8005a86:	681b      	ldr	r3, [r3, #0]
 8005a88:	f022 0201 	bic.w	r2, r2, #1
 8005a8c:	605a      	str	r2, [r3, #4]
    hi2s->RxXferCount = 0U;
 8005a8e:	68fb      	ldr	r3, [r7, #12]
 8005a90:	2200      	movs	r2, #0
 8005a92:	865a      	strh	r2, [r3, #50]	@ 0x32
    hi2s->State = HAL_I2S_STATE_READY;
 8005a94:	68fb      	ldr	r3, [r7, #12]
 8005a96:	2201      	movs	r2, #1
 8005a98:	f883 2041 	strb.w	r2, [r3, #65]	@ 0x41
  }
  /* Call user Rx complete callback */
#if (USE_HAL_I2S_REGISTER_CALLBACKS == 1U)
  hi2s->RxCpltCallback(hi2s);
#else
  HAL_I2S_RxCpltCallback(hi2s);
 8005a9c:	68f8      	ldr	r0, [r7, #12]
 8005a9e:	f7fb fdb9 	bl	8001614 <HAL_I2S_RxCpltCallback>
#endif /* USE_HAL_I2S_REGISTER_CALLBACKS */
}
 8005aa2:	bf00      	nop
 8005aa4:	3710      	adds	r7, #16
 8005aa6:	46bd      	mov	sp, r7
 8005aa8:	bd80      	pop	{r7, pc}

08005aaa <I2S_DMARxHalfCplt>:
  * @param  hdma pointer to a DMA_HandleTypeDef structure that contains
  *                the configuration information for the specified DMA module.
  * @retval None
  */
static void I2S_DMARxHalfCplt(DMA_HandleTypeDef *hdma)
{
 8005aaa:	b580      	push	{r7, lr}
 8005aac:	b084      	sub	sp, #16
 8005aae:	af00      	add	r7, sp, #0
 8005ab0:	6078      	str	r0, [r7, #4]
  I2S_HandleTypeDef *hi2s = (I2S_HandleTypeDef *)((DMA_HandleTypeDef *)hdma)->Parent; /* Derogation MISRAC2012-Rule-11.5 */
 8005ab2:	687b      	ldr	r3, [r7, #4]
 8005ab4:	6b9b      	ldr	r3, [r3, #56]	@ 0x38
 8005ab6:	60fb      	str	r3, [r7, #12]

  /* Call user Rx half complete callback */
#if (USE_HAL_I2S_REGISTER_CALLBACKS == 1U)
  hi2s->RxHalfCpltCallback(hi2s);
#else
  HAL_I2S_RxHalfCpltCallback(hi2s);
 8005ab8:	68f8      	ldr	r0, [r7, #12]
 8005aba:	f7fb fd95 	bl	80015e8 <HAL_I2S_RxHalfCpltCallback>
#endif /* USE_HAL_I2S_REGISTER_CALLBACKS */
}
 8005abe:	bf00      	nop
 8005ac0:	3710      	adds	r7, #16
 8005ac2:	46bd      	mov	sp, r7
 8005ac4:	bd80      	pop	{r7, pc}

08005ac6 <I2S_DMAError>:
  * @param  hdma pointer to a DMA_HandleTypeDef structure that contains
  *                the configuration information for the specified DMA module.
  * @retval None
  */
static void I2S_DMAError(DMA_HandleTypeDef *hdma)
{
 8005ac6:	b580      	push	{r7, lr}
 8005ac8:	b084      	sub	sp, #16
 8005aca:	af00      	add	r7, sp, #0
 8005acc:	6078      	str	r0, [r7, #4]
  I2S_HandleTypeDef *hi2s = (I2S_HandleTypeDef *)((DMA_HandleTypeDef *)hdma)->Parent; /* Derogation MISRAC2012-Rule-11.5 */
 8005ace:	687b      	ldr	r3, [r7, #4]
 8005ad0:	6b9b      	ldr	r3, [r3, #56]	@ 0x38
 8005ad2:	60fb      	str	r3, [r7, #12]

  /* Disable Rx and Tx DMA Request */
  CLEAR_BIT(hi2s->Instance->CR2, (SPI_CR2_RXDMAEN | SPI_CR2_TXDMAEN));
 8005ad4:	68fb      	ldr	r3, [r7, #12]
 8005ad6:	681b      	ldr	r3, [r3, #0]
 8005ad8:	685a      	ldr	r2, [r3, #4]
 8005ada:	68fb      	ldr	r3, [r7, #12]
 8005adc:	681b      	ldr	r3, [r3, #0]
 8005ade:	f022 0203 	bic.w	r2, r2, #3
 8005ae2:	605a      	str	r2, [r3, #4]
  hi2s->TxXferCount = 0U;
 8005ae4:	68fb      	ldr	r3, [r7, #12]
 8005ae6:	2200      	movs	r2, #0
 8005ae8:	855a      	strh	r2, [r3, #42]	@ 0x2a
  hi2s->RxXferCount = 0U;
 8005aea:	68fb      	ldr	r3, [r7, #12]
 8005aec:	2200      	movs	r2, #0
 8005aee:	865a      	strh	r2, [r3, #50]	@ 0x32

  hi2s->State = HAL_I2S_STATE_READY;
 8005af0:	68fb      	ldr	r3, [r7, #12]
 8005af2:	2201      	movs	r2, #1
 8005af4:	f883 2041 	strb.w	r2, [r3, #65]	@ 0x41

  /* Set the error code and execute error callback*/
  SET_BIT(hi2s->ErrorCode, HAL_I2S_ERROR_DMA);
 8005af8:	68fb      	ldr	r3, [r7, #12]
 8005afa:	6c5b      	ldr	r3, [r3, #68]	@ 0x44
 8005afc:	f043 0208 	orr.w	r2, r3, #8
 8005b00:	68fb      	ldr	r3, [r7, #12]
 8005b02:	645a      	str	r2, [r3, #68]	@ 0x44
  /* Call user error callback */
#if (USE_HAL_I2S_REGISTER_CALLBACKS == 1U)
  hi2s->ErrorCallback(hi2s);
#else
  HAL_I2S_ErrorCallback(hi2s);
 8005b04:	68f8      	ldr	r0, [r7, #12]
 8005b06:	f7ff ffa5 	bl	8005a54 <HAL_I2S_ErrorCallback>
#endif /* USE_HAL_I2S_REGISTER_CALLBACKS */
}
 8005b0a:	bf00      	nop
 8005b0c:	3710      	adds	r7, #16
 8005b0e:	46bd      	mov	sp, r7
 8005b10:	bd80      	pop	{r7, pc}

08005b12 <I2S_Transmit_IT>:
  * @param  hi2s pointer to a I2S_HandleTypeDef structure that contains
  *         the configuration information for I2S module
  * @retval None
  */
static void I2S_Transmit_IT(I2S_HandleTypeDef *hi2s)
{
 8005b12:	b580      	push	{r7, lr}
 8005b14:	b082      	sub	sp, #8
 8005b16:	af00      	add	r7, sp, #0
 8005b18:	6078      	str	r0, [r7, #4]
  /* Transmit data */
  hi2s->Instance->DR = (*hi2s->pTxBuffPtr);
 8005b1a:	687b      	ldr	r3, [r7, #4]
 8005b1c:	6a5b      	ldr	r3, [r3, #36]	@ 0x24
 8005b1e:	881a      	ldrh	r2, [r3, #0]
 8005b20:	687b      	ldr	r3, [r7, #4]
 8005b22:	681b      	ldr	r3, [r3, #0]
 8005b24:	60da      	str	r2, [r3, #12]
  hi2s->pTxBuffPtr++;
 8005b26:	687b      	ldr	r3, [r7, #4]
 8005b28:	6a5b      	ldr	r3, [r3, #36]	@ 0x24
 8005b2a:	1c9a      	adds	r2, r3, #2
 8005b2c:	687b      	ldr	r3, [r7, #4]
 8005b2e:	625a      	str	r2, [r3, #36]	@ 0x24
  hi2s->TxXferCount--;
 8005b30:	687b      	ldr	r3, [r7, #4]
 8005b32:	8d5b      	ldrh	r3, [r3, #42]	@ 0x2a
 8005b34:	b29b      	uxth	r3, r3
 8005b36:	3b01      	subs	r3, #1
 8005b38:	b29a      	uxth	r2, r3
 8005b3a:	687b      	ldr	r3, [r7, #4]
 8005b3c:	855a      	strh	r2, [r3, #42]	@ 0x2a

  if (hi2s->TxXferCount == 0U)
 8005b3e:	687b      	ldr	r3, [r7, #4]
 8005b40:	8d5b      	ldrh	r3, [r3, #42]	@ 0x2a
 8005b42:	b29b      	uxth	r3, r3
 8005b44:	2b00      	cmp	r3, #0
 8005b46:	d10e      	bne.n	8005b66 <I2S_Transmit_IT+0x54>
  {
    /* Disable TXE and ERR interrupt */
    __HAL_I2S_DISABLE_IT(hi2s, (I2S_IT_TXE | I2S_IT_ERR));
 8005b48:	687b      	ldr	r3, [r7, #4]
 8005b4a:	681b      	ldr	r3, [r3, #0]
 8005b4c:	685a      	ldr	r2, [r3, #4]
 8005b4e:	687b      	ldr	r3, [r7, #4]
 8005b50:	681b      	ldr	r3, [r3, #0]
 8005b52:	f022 02a0 	bic.w	r2, r2, #160	@ 0xa0
 8005b56:	605a      	str	r2, [r3, #4]

    hi2s->State = HAL_I2S_STATE_READY;
 8005b58:	687b      	ldr	r3, [r7, #4]
 8005b5a:	2201      	movs	r2, #1
 8005b5c:	f883 2041 	strb.w	r2, [r3, #65]	@ 0x41
    /* Call user Tx complete callback */
#if (USE_HAL_I2S_REGISTER_CALLBACKS == 1U)
    hi2s->TxCpltCallback(hi2s);
#else
    HAL_I2S_TxCpltCallback(hi2s);
 8005b60:	6878      	ldr	r0, [r7, #4]
 8005b62:	f7ff ff6d 	bl	8005a40 <HAL_I2S_TxCpltCallback>
#endif /* USE_HAL_I2S_REGISTER_CALLBACKS */
  }
}
 8005b66:	bf00      	nop
 8005b68:	3708      	adds	r7, #8
 8005b6a:	46bd      	mov	sp, r7
 8005b6c:	bd80      	pop	{r7, pc}

08005b6e <I2S_Receive_IT>:
  * @param  hi2s pointer to a I2S_HandleTypeDef structure that contains
  *         the configuration information for I2S module
  * @retval None
  */
static void I2S_Receive_IT(I2S_HandleTypeDef *hi2s)
{
 8005b6e:	b580      	push	{r7, lr}
 8005b70:	b082      	sub	sp, #8
 8005b72:	af00      	add	r7, sp, #0
 8005b74:	6078      	str	r0, [r7, #4]
  /* Receive data */
  (*hi2s->pRxBuffPtr) = (uint16_t)hi2s->Instance->DR;
 8005b76:	687b      	ldr	r3, [r7, #4]
 8005b78:	681b      	ldr	r3, [r3, #0]
 8005b7a:	68da      	ldr	r2, [r3, #12]
 8005b7c:	687b      	ldr	r3, [r7, #4]
 8005b7e:	6adb      	ldr	r3, [r3, #44]	@ 0x2c
 8005b80:	b292      	uxth	r2, r2
 8005b82:	801a      	strh	r2, [r3, #0]
  hi2s->pRxBuffPtr++;
 8005b84:	687b      	ldr	r3, [r7, #4]
 8005b86:	6adb      	ldr	r3, [r3, #44]	@ 0x2c
 8005b88:	1c9a      	adds	r2, r3, #2
 8005b8a:	687b      	ldr	r3, [r7, #4]
 8005b8c:	62da      	str	r2, [r3, #44]	@ 0x2c
  hi2s->RxXferCount--;
 8005b8e:	687b      	ldr	r3, [r7, #4]
 8005b90:	8e5b      	ldrh	r3, [r3, #50]	@ 0x32
 8005b92:	b29b      	uxth	r3, r3
 8005b94:	3b01      	subs	r3, #1
 8005b96:	b29a      	uxth	r2, r3
 8005b98:	687b      	ldr	r3, [r7, #4]
 8005b9a:	865a      	strh	r2, [r3, #50]	@ 0x32

  if (hi2s->RxXferCount == 0U)
 8005b9c:	687b      	ldr	r3, [r7, #4]
 8005b9e:	8e5b      	ldrh	r3, [r3, #50]	@ 0x32
 8005ba0:	b29b      	uxth	r3, r3
 8005ba2:	2b00      	cmp	r3, #0
 8005ba4:	d10e      	bne.n	8005bc4 <I2S_Receive_IT+0x56>
  {
    /* Disable RXNE and ERR interrupt */
    __HAL_I2S_DISABLE_IT(hi2s, (I2S_IT_RXNE | I2S_IT_ERR));
 8005ba6:	687b      	ldr	r3, [r7, #4]
 8005ba8:	681b      	ldr	r3, [r3, #0]
 8005baa:	685a      	ldr	r2, [r3, #4]
 8005bac:	687b      	ldr	r3, [r7, #4]
 8005bae:	681b      	ldr	r3, [r3, #0]
 8005bb0:	f022 0260 	bic.w	r2, r2, #96	@ 0x60
 8005bb4:	605a      	str	r2, [r3, #4]

    hi2s->State = HAL_I2S_STATE_READY;
 8005bb6:	687b      	ldr	r3, [r7, #4]
 8005bb8:	2201      	movs	r2, #1
 8005bba:	f883 2041 	strb.w	r2, [r3, #65]	@ 0x41
    /* Call user Rx complete callback */
#if (USE_HAL_I2S_REGISTER_CALLBACKS == 1U)
    hi2s->RxCpltCallback(hi2s);
#else
    HAL_I2S_RxCpltCallback(hi2s);
 8005bbe:	6878      	ldr	r0, [r7, #4]
 8005bc0:	f7fb fd28 	bl	8001614 <HAL_I2S_RxCpltCallback>
#endif /* USE_HAL_I2S_REGISTER_CALLBACKS */
  }
}
 8005bc4:	bf00      	nop
 8005bc6:	3708      	adds	r7, #8
 8005bc8:	46bd      	mov	sp, r7
 8005bca:	bd80      	pop	{r7, pc}

08005bcc <I2S_IRQHandler>:
  * @param  hi2s: pointer to a I2S_HandleTypeDef structure that contains
  *         the configuration information for I2S module
  * @retval None
  */
static void I2S_IRQHandler(I2S_HandleTypeDef *hi2s)
{
 8005bcc:	b580      	push	{r7, lr}
 8005bce:	b086      	sub	sp, #24
 8005bd0:	af00      	add	r7, sp, #0
 8005bd2:	6078      	str	r0, [r7, #4]
  __IO uint32_t i2ssr = hi2s->Instance->SR;
 8005bd4:	687b      	ldr	r3, [r7, #4]
 8005bd6:	681b      	ldr	r3, [r3, #0]
 8005bd8:	689b      	ldr	r3, [r3, #8]
 8005bda:	617b      	str	r3, [r7, #20]

  if (hi2s->State == HAL_I2S_STATE_BUSY_RX)
 8005bdc:	687b      	ldr	r3, [r7, #4]
 8005bde:	f893 3041 	ldrb.w	r3, [r3, #65]	@ 0x41
 8005be2:	b2db      	uxtb	r3, r3
 8005be4:	2b04      	cmp	r3, #4
 8005be6:	d13a      	bne.n	8005c5e <I2S_IRQHandler+0x92>
  {
    /* I2S in mode Receiver ------------------------------------------------*/
    if (((i2ssr & I2S_FLAG_RXNE) == I2S_FLAG_RXNE) && (__HAL_I2S_GET_IT_SOURCE(hi2s, I2S_IT_RXNE) != RESET))
 8005be8:	697b      	ldr	r3, [r7, #20]
 8005bea:	f003 0301 	and.w	r3, r3, #1
 8005bee:	2b01      	cmp	r3, #1
 8005bf0:	d109      	bne.n	8005c06 <I2S_IRQHandler+0x3a>
 8005bf2:	687b      	ldr	r3, [r7, #4]
 8005bf4:	681b      	ldr	r3, [r3, #0]
 8005bf6:	685b      	ldr	r3, [r3, #4]
 8005bf8:	f003 0340 	and.w	r3, r3, #64	@ 0x40
 8005bfc:	2b40      	cmp	r3, #64	@ 0x40
 8005bfe:	d102      	bne.n	8005c06 <I2S_IRQHandler+0x3a>
    {
      I2S_Receive_IT(hi2s);
 8005c00:	6878      	ldr	r0, [r7, #4]
 8005c02:	f7ff ffb4 	bl	8005b6e <I2S_Receive_IT>
    }

    /* I2S Overrun error interrupt occurred -------------------------------------*/
    if (((i2ssr & I2S_FLAG_OVR) == I2S_FLAG_OVR) && (__HAL_I2S_GET_IT_SOURCE(hi2s, I2S_IT_ERR) != RESET))
 8005c06:	697b      	ldr	r3, [r7, #20]
 8005c08:	f003 0340 	and.w	r3, r3, #64	@ 0x40
 8005c0c:	2b40      	cmp	r3, #64	@ 0x40
 8005c0e:	d126      	bne.n	8005c5e <I2S_IRQHandler+0x92>
 8005c10:	687b      	ldr	r3, [r7, #4]
 8005c12:	681b      	ldr	r3, [r3, #0]
 8005c14:	685b      	ldr	r3, [r3, #4]
 8005c16:	f003 0320 	and.w	r3, r3, #32
 8005c1a:	2b20      	cmp	r3, #32
 8005c1c:	d11f      	bne.n	8005c5e <I2S_IRQHandler+0x92>
    {
      /* Disable RXNE and ERR interrupt */
      __HAL_I2S_DISABLE_IT(hi2s, (I2S_IT_RXNE | I2S_IT_ERR));
 8005c1e:	687b      	ldr	r3, [r7, #4]
 8005c20:	681b      	ldr	r3, [r3, #0]
 8005c22:	685a      	ldr	r2, [r3, #4]
 8005c24:	687b      	ldr	r3, [r7, #4]
 8005c26:	681b      	ldr	r3, [r3, #0]
 8005c28:	f022 0260 	bic.w	r2, r2, #96	@ 0x60
 8005c2c:	605a      	str	r2, [r3, #4]

      /* Clear Overrun flag */
      __HAL_I2S_CLEAR_OVRFLAG(hi2s);
 8005c2e:	2300      	movs	r3, #0
 8005c30:	613b      	str	r3, [r7, #16]
 8005c32:	687b      	ldr	r3, [r7, #4]
 8005c34:	681b      	ldr	r3, [r3, #0]
 8005c36:	68db      	ldr	r3, [r3, #12]
 8005c38:	613b      	str	r3, [r7, #16]
 8005c3a:	687b      	ldr	r3, [r7, #4]
 8005c3c:	681b      	ldr	r3, [r3, #0]
 8005c3e:	689b      	ldr	r3, [r3, #8]
 8005c40:	613b      	str	r3, [r7, #16]
 8005c42:	693b      	ldr	r3, [r7, #16]

      /* Set the I2S State ready */
      hi2s->State = HAL_I2S_STATE_READY;
 8005c44:	687b      	ldr	r3, [r7, #4]
 8005c46:	2201      	movs	r2, #1
 8005c48:	f883 2041 	strb.w	r2, [r3, #65]	@ 0x41


      /* Set the error code and execute error callback*/
      SET_BIT(hi2s->ErrorCode, HAL_I2S_ERROR_OVR);
 8005c4c:	687b      	ldr	r3, [r7, #4]
 8005c4e:	6c5b      	ldr	r3, [r3, #68]	@ 0x44
 8005c50:	f043 0202 	orr.w	r2, r3, #2
 8005c54:	687b      	ldr	r3, [r7, #4]
 8005c56:	645a      	str	r2, [r3, #68]	@ 0x44
      /* Call user error callback */
#if (USE_HAL_I2S_REGISTER_CALLBACKS == 1U)
      hi2s->ErrorCallback(hi2s);
#else
      HAL_I2S_ErrorCallback(hi2s);
 8005c58:	6878      	ldr	r0, [r7, #4]
 8005c5a:	f7ff fefb 	bl	8005a54 <HAL_I2S_ErrorCallback>
#endif /* USE_HAL_I2S_REGISTER_CALLBACKS */
    }
  }

  if (hi2s->State == HAL_I2S_STATE_BUSY_TX)
 8005c5e:	687b      	ldr	r3, [r7, #4]
 8005c60:	f893 3041 	ldrb.w	r3, [r3, #65]	@ 0x41
 8005c64:	b2db      	uxtb	r3, r3
 8005c66:	2b03      	cmp	r3, #3
 8005c68:	d136      	bne.n	8005cd8 <I2S_IRQHandler+0x10c>
  {
    /* I2S in mode Transmitter -----------------------------------------------*/
    if (((i2ssr & I2S_FLAG_TXE) == I2S_FLAG_TXE) && (__HAL_I2S_GET_IT_SOURCE(hi2s, I2S_IT_TXE) != RESET))
 8005c6a:	697b      	ldr	r3, [r7, #20]
 8005c6c:	f003 0302 	and.w	r3, r3, #2
 8005c70:	2b02      	cmp	r3, #2
 8005c72:	d109      	bne.n	8005c88 <I2S_IRQHandler+0xbc>
 8005c74:	687b      	ldr	r3, [r7, #4]
 8005c76:	681b      	ldr	r3, [r3, #0]
 8005c78:	685b      	ldr	r3, [r3, #4]
 8005c7a:	f003 0380 	and.w	r3, r3, #128	@ 0x80
 8005c7e:	2b80      	cmp	r3, #128	@ 0x80
 8005c80:	d102      	bne.n	8005c88 <I2S_IRQHandler+0xbc>
    {
      I2S_Transmit_IT(hi2s);
 8005c82:	6878      	ldr	r0, [r7, #4]
 8005c84:	f7ff ff45 	bl	8005b12 <I2S_Transmit_IT>
    }

    /* I2S Underrun error interrupt occurred --------------------------------*/
    if (((i2ssr & I2S_FLAG_UDR) == I2S_FLAG_UDR) && (__HAL_I2S_GET_IT_SOURCE(hi2s, I2S_IT_ERR) != RESET))
 8005c88:	697b      	ldr	r3, [r7, #20]
 8005c8a:	f003 0308 	and.w	r3, r3, #8
 8005c8e:	2b08      	cmp	r3, #8
 8005c90:	d122      	bne.n	8005cd8 <I2S_IRQHandler+0x10c>
 8005c92:	687b      	ldr	r3, [r7, #4]
 8005c94:	681b      	ldr	r3, [r3, #0]
 8005c96:	685b      	ldr	r3, [r3, #4]
 8005c98:	f003 0320 	and.w	r3, r3, #32
 8005c9c:	2b20      	cmp	r3, #32
 8005c9e:	d11b      	bne.n	8005cd8 <I2S_IRQHandler+0x10c>
    {
      /* Disable TXE and ERR interrupt */
      __HAL_I2S_DISABLE_IT(hi2s, (I2S_IT_TXE | I2S_IT_ERR));
 8005ca0:	687b      	ldr	r3, [r7, #4]
 8005ca2:	681b      	ldr	r3, [r3, #0]
 8005ca4:	685a      	ldr	r2, [r3, #4]
 8005ca6:	687b      	ldr	r3, [r7, #4]
 8005ca8:	681b      	ldr	r3, [r3, #0]
 8005caa:	f022 02a0 	bic.w	r2, r2, #160	@ 0xa0
 8005cae:	605a      	str	r2, [r3, #4]

      /* Clear Underrun flag */
      __HAL_I2S_CLEAR_UDRFLAG(hi2s);
 8005cb0:	2300      	movs	r3, #0
 8005cb2:	60fb      	str	r3, [r7, #12]
 8005cb4:	687b      	ldr	r3, [r7, #4]
 8005cb6:	681b      	ldr	r3, [r3, #0]
 8005cb8:	689b      	ldr	r3, [r3, #8]
 8005cba:	60fb      	str	r3, [r7, #12]
 8005cbc:	68fb      	ldr	r3, [r7, #12]

      /* Set the I2S State ready */
      hi2s->State = HAL_I2S_STATE_READY;
 8005cbe:	687b      	ldr	r3, [r7, #4]
 8005cc0:	2201      	movs	r2, #1
 8005cc2:	f883 2041 	strb.w	r2, [r3, #65]	@ 0x41

      /* Set the error code and execute error callback*/
      SET_BIT(hi2s->ErrorCode, HAL_I2S_ERROR_UDR);
 8005cc6:	687b      	ldr	r3, [r7, #4]
 8005cc8:	6c5b      	ldr	r3, [r3, #68]	@ 0x44
 8005cca:	f043 0204 	orr.w	r2, r3, #4
 8005cce:	687b      	ldr	r3, [r7, #4]
 8005cd0:	645a      	str	r2, [r3, #68]	@ 0x44
      /* Call user error callback */
#if (USE_HAL_I2S_REGISTER_CALLBACKS == 1U)
      hi2s->ErrorCallback(hi2s);
#else
      HAL_I2S_ErrorCallback(hi2s);
 8005cd2:	6878      	ldr	r0, [r7, #4]
 8005cd4:	f7ff febe 	bl	8005a54 <HAL_I2S_ErrorCallback>
#endif /* USE_HAL_I2S_REGISTER_CALLBACKS */
    }
  }
}
 8005cd8:	bf00      	nop
 8005cda:	3718      	adds	r7, #24
 8005cdc:	46bd      	mov	sp, r7
 8005cde:	bd80      	pop	{r7, pc}

08005ce0 <HAL_I2SEx_FullDuplex_IRQHandler>:
  * @brief  This function handles I2S/I2Sext interrupt requests in full-duplex mode.
  * @param  hi2s I2S handle
  * @retval HAL status
  */
void HAL_I2SEx_FullDuplex_IRQHandler(I2S_HandleTypeDef *hi2s)
{
 8005ce0:	b580      	push	{r7, lr}
 8005ce2:	b088      	sub	sp, #32
 8005ce4:	af00      	add	r7, sp, #0
 8005ce6:	6078      	str	r0, [r7, #4]
  __IO uint32_t i2ssr     = hi2s->Instance->SR;
 8005ce8:	687b      	ldr	r3, [r7, #4]
 8005cea:	681b      	ldr	r3, [r3, #0]
 8005cec:	689b      	ldr	r3, [r3, #8]
 8005cee:	61fb      	str	r3, [r7, #28]
  __IO uint32_t i2sextsr  = I2SxEXT(hi2s->Instance)->SR;
 8005cf0:	687b      	ldr	r3, [r7, #4]
 8005cf2:	681b      	ldr	r3, [r3, #0]
 8005cf4:	4a92      	ldr	r2, [pc, #584]	@ (8005f40 <HAL_I2SEx_FullDuplex_IRQHandler+0x260>)
 8005cf6:	4293      	cmp	r3, r2
 8005cf8:	d101      	bne.n	8005cfe <HAL_I2SEx_FullDuplex_IRQHandler+0x1e>
 8005cfa:	4b92      	ldr	r3, [pc, #584]	@ (8005f44 <HAL_I2SEx_FullDuplex_IRQHandler+0x264>)
 8005cfc:	e001      	b.n	8005d02 <HAL_I2SEx_FullDuplex_IRQHandler+0x22>
 8005cfe:	f04f 2340 	mov.w	r3, #1073758208	@ 0x40004000
 8005d02:	689b      	ldr	r3, [r3, #8]
 8005d04:	61bb      	str	r3, [r7, #24]
  __IO uint32_t i2scr2    = hi2s->Instance->CR2;
 8005d06:	687b      	ldr	r3, [r7, #4]
 8005d08:	681b      	ldr	r3, [r3, #0]
 8005d0a:	685b      	ldr	r3, [r3, #4]
 8005d0c:	617b      	str	r3, [r7, #20]
  __IO uint32_t i2sextcr2 = I2SxEXT(hi2s->Instance)->CR2;
 8005d0e:	687b      	ldr	r3, [r7, #4]
 8005d10:	681b      	ldr	r3, [r3, #0]
 8005d12:	4a8b      	ldr	r2, [pc, #556]	@ (8005f40 <HAL_I2SEx_FullDuplex_IRQHandler+0x260>)
 8005d14:	4293      	cmp	r3, r2
 8005d16:	d101      	bne.n	8005d1c <HAL_I2SEx_FullDuplex_IRQHandler+0x3c>
 8005d18:	4b8a      	ldr	r3, [pc, #552]	@ (8005f44 <HAL_I2SEx_FullDuplex_IRQHandler+0x264>)
 8005d1a:	e001      	b.n	8005d20 <HAL_I2SEx_FullDuplex_IRQHandler+0x40>
 8005d1c:	f04f 2340 	mov.w	r3, #1073758208	@ 0x40004000
 8005d20:	685b      	ldr	r3, [r3, #4]
 8005d22:	613b      	str	r3, [r7, #16]

  /* Check if the I2S_MODE_MASTER_TX or I2S_MODE_SLAVE_TX Mode is selected */
  if ((hi2s->Init.Mode == I2S_MODE_MASTER_TX) || (hi2s->Init.Mode == I2S_MODE_SLAVE_TX))
 8005d24:	687b      	ldr	r3, [r7, #4]
 8005d26:	685b      	ldr	r3, [r3, #4]
 8005d28:	f5b3 7f00 	cmp.w	r3, #512	@ 0x200
 8005d2c:	d004      	beq.n	8005d38 <HAL_I2SEx_FullDuplex_IRQHandler+0x58>
 8005d2e:	687b      	ldr	r3, [r7, #4]
 8005d30:	685b      	ldr	r3, [r3, #4]
 8005d32:	2b00      	cmp	r3, #0
 8005d34:	f040 8099 	bne.w	8005e6a <HAL_I2SEx_FullDuplex_IRQHandler+0x18a>
  {
    /* I2S in mode Transmitter -------------------------------------------------*/
    if (((i2ssr & I2S_FLAG_TXE) == I2S_FLAG_TXE) && ((i2scr2 & I2S_IT_TXE) != RESET))
 8005d38:	69fb      	ldr	r3, [r7, #28]
 8005d3a:	f003 0302 	and.w	r3, r3, #2
 8005d3e:	2b02      	cmp	r3, #2
 8005d40:	d107      	bne.n	8005d52 <HAL_I2SEx_FullDuplex_IRQHandler+0x72>
 8005d42:	697b      	ldr	r3, [r7, #20]
 8005d44:	f003 0380 	and.w	r3, r3, #128	@ 0x80
 8005d48:	2b00      	cmp	r3, #0
 8005d4a:	d002      	beq.n	8005d52 <HAL_I2SEx_FullDuplex_IRQHandler+0x72>
    {
      /* When the I2S mode is configured as I2S_MODE_MASTER_TX or I2S_MODE_SLAVE_TX,
      the I2S TXE interrupt will be generated to manage the full-duplex transmit phase. */
      I2SEx_TxISR_I2S(hi2s);
 8005d4c:	6878      	ldr	r0, [r7, #4]
 8005d4e:	f000 f925 	bl	8005f9c <I2SEx_TxISR_I2S>
    }

    /* I2Sext in mode Receiver -----------------------------------------------*/
    if (((i2sextsr & I2S_FLAG_RXNE) == I2S_FLAG_RXNE) && ((i2sextcr2 & I2S_IT_RXNE) != RESET))
 8005d52:	69bb      	ldr	r3, [r7, #24]
 8005d54:	f003 0301 	and.w	r3, r3, #1
 8005d58:	2b01      	cmp	r3, #1
 8005d5a:	d107      	bne.n	8005d6c <HAL_I2SEx_FullDuplex_IRQHandler+0x8c>
 8005d5c:	693b      	ldr	r3, [r7, #16]
 8005d5e:	f003 0340 	and.w	r3, r3, #64	@ 0x40
 8005d62:	2b00      	cmp	r3, #0
 8005d64:	d002      	beq.n	8005d6c <HAL_I2SEx_FullDuplex_IRQHandler+0x8c>
    {
      /* When the I2S mode is configured as I2S_MODE_MASTER_TX or I2S_MODE_SLAVE_TX,
      the I2Sext RXNE interrupt will be generated to manage the full-duplex receive phase. */
      I2SEx_RxISR_I2SExt(hi2s);
 8005d66:	6878      	ldr	r0, [r7, #4]
 8005d68:	f000 f9c8 	bl	80060fc <I2SEx_RxISR_I2SExt>
    }

    /* I2Sext Overrun error interrupt occurred --------------------------------*/
    if (((i2sextsr & I2S_FLAG_OVR) == I2S_FLAG_OVR) && ((i2sextcr2 & I2S_IT_ERR) != RESET))
 8005d6c:	69bb      	ldr	r3, [r7, #24]
 8005d6e:	f003 0340 	and.w	r3, r3, #64	@ 0x40
 8005d72:	2b40      	cmp	r3, #64	@ 0x40
 8005d74:	d13a      	bne.n	8005dec <HAL_I2SEx_FullDuplex_IRQHandler+0x10c>
 8005d76:	693b      	ldr	r3, [r7, #16]
 8005d78:	f003 0320 	and.w	r3, r3, #32
 8005d7c:	2b00      	cmp	r3, #0
 8005d7e:	d035      	beq.n	8005dec <HAL_I2SEx_FullDuplex_IRQHandler+0x10c>
    {
      /* Disable RXNE and ERR interrupt */
      __HAL_I2SEXT_DISABLE_IT(hi2s, (I2S_IT_RXNE | I2S_IT_ERR));
 8005d80:	687b      	ldr	r3, [r7, #4]
 8005d82:	681b      	ldr	r3, [r3, #0]
 8005d84:	4a6e      	ldr	r2, [pc, #440]	@ (8005f40 <HAL_I2SEx_FullDuplex_IRQHandler+0x260>)
 8005d86:	4293      	cmp	r3, r2
 8005d88:	d101      	bne.n	8005d8e <HAL_I2SEx_FullDuplex_IRQHandler+0xae>
 8005d8a:	4b6e      	ldr	r3, [pc, #440]	@ (8005f44 <HAL_I2SEx_FullDuplex_IRQHandler+0x264>)
 8005d8c:	e001      	b.n	8005d92 <HAL_I2SEx_FullDuplex_IRQHandler+0xb2>
 8005d8e:	f04f 2340 	mov.w	r3, #1073758208	@ 0x40004000
 8005d92:	685a      	ldr	r2, [r3, #4]
 8005d94:	687b      	ldr	r3, [r7, #4]
 8005d96:	681b      	ldr	r3, [r3, #0]
 8005d98:	4969      	ldr	r1, [pc, #420]	@ (8005f40 <HAL_I2SEx_FullDuplex_IRQHandler+0x260>)
 8005d9a:	428b      	cmp	r3, r1
 8005d9c:	d101      	bne.n	8005da2 <HAL_I2SEx_FullDuplex_IRQHandler+0xc2>
 8005d9e:	4b69      	ldr	r3, [pc, #420]	@ (8005f44 <HAL_I2SEx_FullDuplex_IRQHandler+0x264>)
 8005da0:	e001      	b.n	8005da6 <HAL_I2SEx_FullDuplex_IRQHandler+0xc6>
 8005da2:	f04f 2340 	mov.w	r3, #1073758208	@ 0x40004000
 8005da6:	f022 0260 	bic.w	r2, r2, #96	@ 0x60
 8005daa:	605a      	str	r2, [r3, #4]

      /* Disable TXE and ERR interrupt */
      __HAL_I2S_DISABLE_IT(hi2s, (I2S_IT_TXE | I2S_IT_ERR));
 8005dac:	687b      	ldr	r3, [r7, #4]
 8005dae:	681b      	ldr	r3, [r3, #0]
 8005db0:	685a      	ldr	r2, [r3, #4]
 8005db2:	687b      	ldr	r3, [r7, #4]
 8005db4:	681b      	ldr	r3, [r3, #0]
 8005db6:	f022 02a0 	bic.w	r2, r2, #160	@ 0xa0
 8005dba:	605a      	str	r2, [r3, #4]

      /* Clear Overrun flag */
      __HAL_I2S_CLEAR_OVRFLAG(hi2s);
 8005dbc:	2300      	movs	r3, #0
 8005dbe:	60fb      	str	r3, [r7, #12]
 8005dc0:	687b      	ldr	r3, [r7, #4]
 8005dc2:	681b      	ldr	r3, [r3, #0]
 8005dc4:	68db      	ldr	r3, [r3, #12]
 8005dc6:	60fb      	str	r3, [r7, #12]
 8005dc8:	687b      	ldr	r3, [r7, #4]
 8005dca:	681b      	ldr	r3, [r3, #0]
 8005dcc:	689b      	ldr	r3, [r3, #8]
 8005dce:	60fb      	str	r3, [r7, #12]
 8005dd0:	68fb      	ldr	r3, [r7, #12]

      /* Set the I2S State ready */
      hi2s->State = HAL_I2S_STATE_READY;
 8005dd2:	687b      	ldr	r3, [r7, #4]
 8005dd4:	2201      	movs	r2, #1
 8005dd6:	f883 2041 	strb.w	r2, [r3, #65]	@ 0x41

      /* Set the error code and execute error callback*/
      SET_BIT(hi2s->ErrorCode, HAL_I2S_ERROR_OVR);
 8005dda:	687b      	ldr	r3, [r7, #4]
 8005ddc:	6c5b      	ldr	r3, [r3, #68]	@ 0x44
 8005dde:	f043 0202 	orr.w	r2, r3, #2
 8005de2:	687b      	ldr	r3, [r7, #4]
 8005de4:	645a      	str	r2, [r3, #68]	@ 0x44
      /* Call user error callback */
#if (USE_HAL_I2S_REGISTER_CALLBACKS == 1U)
      hi2s->ErrorCallback(hi2s);
#else
      HAL_I2S_ErrorCallback(hi2s);
 8005de6:	6878      	ldr	r0, [r7, #4]
 8005de8:	f7ff fe34 	bl	8005a54 <HAL_I2S_ErrorCallback>
#endif /* USE_HAL_I2S_REGISTER_CALLBACKS */
    }

    /* I2S Underrun error interrupt occurred ----------------------------------*/
    if (((i2ssr & I2S_FLAG_UDR) == I2S_FLAG_UDR) && ((i2scr2 & I2S_IT_ERR) != RESET))
 8005dec:	69fb      	ldr	r3, [r7, #28]
 8005dee:	f003 0308 	and.w	r3, r3, #8
 8005df2:	2b08      	cmp	r3, #8
 8005df4:	f040 80c3 	bne.w	8005f7e <HAL_I2SEx_FullDuplex_IRQHandler+0x29e>
 8005df8:	697b      	ldr	r3, [r7, #20]
 8005dfa:	f003 0320 	and.w	r3, r3, #32
 8005dfe:	2b00      	cmp	r3, #0
 8005e00:	f000 80bd 	beq.w	8005f7e <HAL_I2SEx_FullDuplex_IRQHandler+0x29e>
    {
      /* Disable TXE and ERR interrupt */
      __HAL_I2S_DISABLE_IT(hi2s, (I2S_IT_TXE | I2S_IT_ERR));
 8005e04:	687b      	ldr	r3, [r7, #4]
 8005e06:	681b      	ldr	r3, [r3, #0]
 8005e08:	685a      	ldr	r2, [r3, #4]
 8005e0a:	687b      	ldr	r3, [r7, #4]
 8005e0c:	681b      	ldr	r3, [r3, #0]
 8005e0e:	f022 02a0 	bic.w	r2, r2, #160	@ 0xa0
 8005e12:	605a      	str	r2, [r3, #4]

      /* Disable RXNE and ERR interrupt */
      __HAL_I2SEXT_DISABLE_IT(hi2s, (I2S_IT_RXNE | I2S_IT_ERR));
 8005e14:	687b      	ldr	r3, [r7, #4]
 8005e16:	681b      	ldr	r3, [r3, #0]
 8005e18:	4a49      	ldr	r2, [pc, #292]	@ (8005f40 <HAL_I2SEx_FullDuplex_IRQHandler+0x260>)
 8005e1a:	4293      	cmp	r3, r2
 8005e1c:	d101      	bne.n	8005e22 <HAL_I2SEx_FullDuplex_IRQHandler+0x142>
 8005e1e:	4b49      	ldr	r3, [pc, #292]	@ (8005f44 <HAL_I2SEx_FullDuplex_IRQHandler+0x264>)
 8005e20:	e001      	b.n	8005e26 <HAL_I2SEx_FullDuplex_IRQHandler+0x146>
 8005e22:	f04f 2340 	mov.w	r3, #1073758208	@ 0x40004000
 8005e26:	685a      	ldr	r2, [r3, #4]
 8005e28:	687b      	ldr	r3, [r7, #4]
 8005e2a:	681b      	ldr	r3, [r3, #0]
 8005e2c:	4944      	ldr	r1, [pc, #272]	@ (8005f40 <HAL_I2SEx_FullDuplex_IRQHandler+0x260>)
 8005e2e:	428b      	cmp	r3, r1
 8005e30:	d101      	bne.n	8005e36 <HAL_I2SEx_FullDuplex_IRQHandler+0x156>
 8005e32:	4b44      	ldr	r3, [pc, #272]	@ (8005f44 <HAL_I2SEx_FullDuplex_IRQHandler+0x264>)
 8005e34:	e001      	b.n	8005e3a <HAL_I2SEx_FullDuplex_IRQHandler+0x15a>
 8005e36:	f04f 2340 	mov.w	r3, #1073758208	@ 0x40004000
 8005e3a:	f022 0260 	bic.w	r2, r2, #96	@ 0x60
 8005e3e:	605a      	str	r2, [r3, #4]

      /* Clear underrun flag */
      __HAL_I2S_CLEAR_UDRFLAG(hi2s);
 8005e40:	2300      	movs	r3, #0
 8005e42:	60bb      	str	r3, [r7, #8]
 8005e44:	687b      	ldr	r3, [r7, #4]
 8005e46:	681b      	ldr	r3, [r3, #0]
 8005e48:	689b      	ldr	r3, [r3, #8]
 8005e4a:	60bb      	str	r3, [r7, #8]
 8005e4c:	68bb      	ldr	r3, [r7, #8]

      /* Set the I2S State ready */
      hi2s->State = HAL_I2S_STATE_READY;
 8005e4e:	687b      	ldr	r3, [r7, #4]
 8005e50:	2201      	movs	r2, #1
 8005e52:	f883 2041 	strb.w	r2, [r3, #65]	@ 0x41

      /* Set the error code and execute error callback*/
      SET_BIT(hi2s->ErrorCode, HAL_I2S_ERROR_UDR);
 8005e56:	687b      	ldr	r3, [r7, #4]
 8005e58:	6c5b      	ldr	r3, [r3, #68]	@ 0x44
 8005e5a:	f043 0204 	orr.w	r2, r3, #4
 8005e5e:	687b      	ldr	r3, [r7, #4]
 8005e60:	645a      	str	r2, [r3, #68]	@ 0x44
      /* Call user error callback */
#if (USE_HAL_I2S_REGISTER_CALLBACKS == 1U)
      hi2s->ErrorCallback(hi2s);
#else
      HAL_I2S_ErrorCallback(hi2s);
 8005e62:	6878      	ldr	r0, [r7, #4]
 8005e64:	f7ff fdf6 	bl	8005a54 <HAL_I2S_ErrorCallback>
    if (((i2ssr & I2S_FLAG_UDR) == I2S_FLAG_UDR) && ((i2scr2 & I2S_IT_ERR) != RESET))
 8005e68:	e089      	b.n	8005f7e <HAL_I2SEx_FullDuplex_IRQHandler+0x29e>
  }
  /* The I2S_MODE_MASTER_RX or I2S_MODE_SLAVE_RX Mode is selected */
  else
  {
    /* I2Sext in mode Transmitter ----------------------------------------------*/
    if (((i2sextsr & I2S_FLAG_TXE) == I2S_FLAG_TXE) && ((i2sextcr2 & I2S_IT_TXE) != RESET))
 8005e6a:	69bb      	ldr	r3, [r7, #24]
 8005e6c:	f003 0302 	and.w	r3, r3, #2
 8005e70:	2b02      	cmp	r3, #2
 8005e72:	d107      	bne.n	8005e84 <HAL_I2SEx_FullDuplex_IRQHandler+0x1a4>
 8005e74:	693b      	ldr	r3, [r7, #16]
 8005e76:	f003 0380 	and.w	r3, r3, #128	@ 0x80
 8005e7a:	2b00      	cmp	r3, #0
 8005e7c:	d002      	beq.n	8005e84 <HAL_I2SEx_FullDuplex_IRQHandler+0x1a4>
    {
      /* When the I2S mode is configured as I2S_MODE_MASTER_RX or I2S_MODE_SLAVE_RX,
      the I2Sext TXE interrupt will be generated to manage the full-duplex transmit phase. */
      I2SEx_TxISR_I2SExt(hi2s);
 8005e7e:	6878      	ldr	r0, [r7, #4]
 8005e80:	f000 f8be 	bl	8006000 <I2SEx_TxISR_I2SExt>
    }

    /* I2S in mode Receiver --------------------------------------------------*/
    if (((i2ssr & I2S_FLAG_RXNE) == I2S_FLAG_RXNE) && ((i2scr2 & I2S_IT_RXNE) != RESET))
 8005e84:	69fb      	ldr	r3, [r7, #28]
 8005e86:	f003 0301 	and.w	r3, r3, #1
 8005e8a:	2b01      	cmp	r3, #1
 8005e8c:	d107      	bne.n	8005e9e <HAL_I2SEx_FullDuplex_IRQHandler+0x1be>
 8005e8e:	697b      	ldr	r3, [r7, #20]
 8005e90:	f003 0340 	and.w	r3, r3, #64	@ 0x40
 8005e94:	2b00      	cmp	r3, #0
 8005e96:	d002      	beq.n	8005e9e <HAL_I2SEx_FullDuplex_IRQHandler+0x1be>
    {
      /* When the I2S mode is configured as I2S_MODE_MASTER_RX or I2S_MODE_SLAVE_RX,
      the I2S RXNE interrupt will be generated to manage the full-duplex receive phase. */
      I2SEx_RxISR_I2S(hi2s);
 8005e98:	6878      	ldr	r0, [r7, #4]
 8005e9a:	f000 f8fd 	bl	8006098 <I2SEx_RxISR_I2S>
    }

    /* I2S Overrun error interrupt occurred -------------------------------------*/
    if (((i2ssr & I2S_FLAG_OVR) == I2S_FLAG_OVR) && ((i2scr2 & I2S_IT_ERR) != RESET))
 8005e9e:	69fb      	ldr	r3, [r7, #28]
 8005ea0:	f003 0340 	and.w	r3, r3, #64	@ 0x40
 8005ea4:	2b40      	cmp	r3, #64	@ 0x40
 8005ea6:	d12f      	bne.n	8005f08 <HAL_I2SEx_FullDuplex_IRQHandler+0x228>
 8005ea8:	697b      	ldr	r3, [r7, #20]
 8005eaa:	f003 0320 	and.w	r3, r3, #32
 8005eae:	2b00      	cmp	r3, #0
 8005eb0:	d02a      	beq.n	8005f08 <HAL_I2SEx_FullDuplex_IRQHandler+0x228>
    {
      /* Disable RXNE and ERR interrupt */
      __HAL_I2S_DISABLE_IT(hi2s, (I2S_IT_RXNE | I2S_IT_ERR));
 8005eb2:	687b      	ldr	r3, [r7, #4]
 8005eb4:	681b      	ldr	r3, [r3, #0]
 8005eb6:	685a      	ldr	r2, [r3, #4]
 8005eb8:	687b      	ldr	r3, [r7, #4]
 8005eba:	681b      	ldr	r3, [r3, #0]
 8005ebc:	f022 0260 	bic.w	r2, r2, #96	@ 0x60
 8005ec0:	605a      	str	r2, [r3, #4]

      /* Disable TXE and ERR interrupt */
      __HAL_I2SEXT_DISABLE_IT(hi2s, (I2S_IT_TXE | I2S_IT_ERR));
 8005ec2:	687b      	ldr	r3, [r7, #4]
 8005ec4:	681b      	ldr	r3, [r3, #0]
 8005ec6:	4a1e      	ldr	r2, [pc, #120]	@ (8005f40 <HAL_I2SEx_FullDuplex_IRQHandler+0x260>)
 8005ec8:	4293      	cmp	r3, r2
 8005eca:	d101      	bne.n	8005ed0 <HAL_I2SEx_FullDuplex_IRQHandler+0x1f0>
 8005ecc:	4b1d      	ldr	r3, [pc, #116]	@ (8005f44 <HAL_I2SEx_FullDuplex_IRQHandler+0x264>)
 8005ece:	e001      	b.n	8005ed4 <HAL_I2SEx_FullDuplex_IRQHandler+0x1f4>
 8005ed0:	f04f 2340 	mov.w	r3, #1073758208	@ 0x40004000
 8005ed4:	685a      	ldr	r2, [r3, #4]
 8005ed6:	687b      	ldr	r3, [r7, #4]
 8005ed8:	681b      	ldr	r3, [r3, #0]
 8005eda:	4919      	ldr	r1, [pc, #100]	@ (8005f40 <HAL_I2SEx_FullDuplex_IRQHandler+0x260>)
 8005edc:	428b      	cmp	r3, r1
 8005ede:	d101      	bne.n	8005ee4 <HAL_I2SEx_FullDuplex_IRQHandler+0x204>
 8005ee0:	4b18      	ldr	r3, [pc, #96]	@ (8005f44 <HAL_I2SEx_FullDuplex_IRQHandler+0x264>)
 8005ee2:	e001      	b.n	8005ee8 <HAL_I2SEx_FullDuplex_IRQHandler+0x208>
 8005ee4:	f04f 2340 	mov.w	r3, #1073758208	@ 0x40004000
 8005ee8:	f022 02a0 	bic.w	r2, r2, #160	@ 0xa0
 8005eec:	605a      	str	r2, [r3, #4]

      /* Set the I2S State ready */
      hi2s->State = HAL_I2S_STATE_READY;
 8005eee:	687b      	ldr	r3, [r7, #4]
 8005ef0:	2201      	movs	r2, #1
 8005ef2:	f883 2041 	strb.w	r2, [r3, #65]	@ 0x41

      /* Set the error code and execute error callback*/
      SET_BIT(hi2s->ErrorCode, HAL_I2S_ERROR_OVR);
 8005ef6:	687b      	ldr	r3, [r7, #4]
 8005ef8:	6c5b      	ldr	r3, [r3, #68]	@ 0x44
 8005efa:	f043 0202 	orr.w	r2, r3, #2
 8005efe:	687b      	ldr	r3, [r7, #4]
 8005f00:	645a      	str	r2, [r3, #68]	@ 0x44
      /* Call user error callback */
#if (USE_HAL_I2S_REGISTER_CALLBACKS == 1U)
      hi2s->ErrorCallback(hi2s);
#else
      HAL_I2S_ErrorCallback(hi2s);
 8005f02:	6878      	ldr	r0, [r7, #4]
 8005f04:	f7ff fda6 	bl	8005a54 <HAL_I2S_ErrorCallback>
#endif /* USE_HAL_I2S_REGISTER_CALLBACKS */
    }

    /* I2Sext Underrun error interrupt occurred -------------------------------*/
    if (((i2sextsr & I2S_FLAG_UDR) == I2S_FLAG_UDR) && ((i2sextcr2 & I2S_IT_ERR) != RESET))
 8005f08:	69bb      	ldr	r3, [r7, #24]
 8005f0a:	f003 0308 	and.w	r3, r3, #8
 8005f0e:	2b08      	cmp	r3, #8
 8005f10:	d136      	bne.n	8005f80 <HAL_I2SEx_FullDuplex_IRQHandler+0x2a0>
 8005f12:	693b      	ldr	r3, [r7, #16]
 8005f14:	f003 0320 	and.w	r3, r3, #32
 8005f18:	2b00      	cmp	r3, #0
 8005f1a:	d031      	beq.n	8005f80 <HAL_I2SEx_FullDuplex_IRQHandler+0x2a0>
    {
      /* Disable TXE and ERR interrupt */
      __HAL_I2SEXT_DISABLE_IT(hi2s, (I2S_IT_TXE | I2S_IT_ERR));
 8005f1c:	687b      	ldr	r3, [r7, #4]
 8005f1e:	681b      	ldr	r3, [r3, #0]
 8005f20:	4a07      	ldr	r2, [pc, #28]	@ (8005f40 <HAL_I2SEx_FullDuplex_IRQHandler+0x260>)
 8005f22:	4293      	cmp	r3, r2
 8005f24:	d101      	bne.n	8005f2a <HAL_I2SEx_FullDuplex_IRQHandler+0x24a>
 8005f26:	4b07      	ldr	r3, [pc, #28]	@ (8005f44 <HAL_I2SEx_FullDuplex_IRQHandler+0x264>)
 8005f28:	e001      	b.n	8005f2e <HAL_I2SEx_FullDuplex_IRQHandler+0x24e>
 8005f2a:	f04f 2340 	mov.w	r3, #1073758208	@ 0x40004000
 8005f2e:	685a      	ldr	r2, [r3, #4]
 8005f30:	687b      	ldr	r3, [r7, #4]
 8005f32:	681b      	ldr	r3, [r3, #0]
 8005f34:	4902      	ldr	r1, [pc, #8]	@ (8005f40 <HAL_I2SEx_FullDuplex_IRQHandler+0x260>)
 8005f36:	428b      	cmp	r3, r1
 8005f38:	d106      	bne.n	8005f48 <HAL_I2SEx_FullDuplex_IRQHandler+0x268>
 8005f3a:	4b02      	ldr	r3, [pc, #8]	@ (8005f44 <HAL_I2SEx_FullDuplex_IRQHandler+0x264>)
 8005f3c:	e006      	b.n	8005f4c <HAL_I2SEx_FullDuplex_IRQHandler+0x26c>
 8005f3e:	bf00      	nop
 8005f40:	40003800 	.word	0x40003800
 8005f44:	40003400 	.word	0x40003400
 8005f48:	f04f 2340 	mov.w	r3, #1073758208	@ 0x40004000
 8005f4c:	f022 02a0 	bic.w	r2, r2, #160	@ 0xa0
 8005f50:	605a      	str	r2, [r3, #4]

      /* Disable RXNE and ERR interrupt */
      __HAL_I2S_DISABLE_IT(hi2s, (I2S_IT_RXNE | I2S_IT_ERR));
 8005f52:	687b      	ldr	r3, [r7, #4]
 8005f54:	681b      	ldr	r3, [r3, #0]
 8005f56:	685a      	ldr	r2, [r3, #4]
 8005f58:	687b      	ldr	r3, [r7, #4]
 8005f5a:	681b      	ldr	r3, [r3, #0]
 8005f5c:	f022 0260 	bic.w	r2, r2, #96	@ 0x60
 8005f60:	605a      	str	r2, [r3, #4]

      /* Set the I2S State ready */
      hi2s->State = HAL_I2S_STATE_READY;
 8005f62:	687b      	ldr	r3, [r7, #4]
 8005f64:	2201      	movs	r2, #1
 8005f66:	f883 2041 	strb.w	r2, [r3, #65]	@ 0x41

      /* Set the error code and execute error callback*/
      SET_BIT(hi2s->ErrorCode, HAL_I2S_ERROR_UDR);
 8005f6a:	687b      	ldr	r3, [r7, #4]
 8005f6c:	6c5b      	ldr	r3, [r3, #68]	@ 0x44
 8005f6e:	f043 0204 	orr.w	r2, r3, #4
 8005f72:	687b      	ldr	r3, [r7, #4]
 8005f74:	645a      	str	r2, [r3, #68]	@ 0x44
      /* Call user error callback */
#if (USE_HAL_I2S_REGISTER_CALLBACKS == 1U)
      hi2s->ErrorCallback(hi2s);
#else
      HAL_I2S_ErrorCallback(hi2s);
 8005f76:	6878      	ldr	r0, [r7, #4]
 8005f78:	f7ff fd6c 	bl	8005a54 <HAL_I2S_ErrorCallback>
#endif /* USE_HAL_I2S_REGISTER_CALLBACKS */
    }
  }
}
 8005f7c:	e000      	b.n	8005f80 <HAL_I2SEx_FullDuplex_IRQHandler+0x2a0>
    if (((i2ssr & I2S_FLAG_UDR) == I2S_FLAG_UDR) && ((i2scr2 & I2S_IT_ERR) != RESET))
 8005f7e:	bf00      	nop
}
 8005f80:	bf00      	nop
 8005f82:	3720      	adds	r7, #32
 8005f84:	46bd      	mov	sp, r7
 8005f86:	bd80      	pop	{r7, pc}

08005f88 <HAL_I2SEx_TxRxCpltCallback>:
  * @brief  Tx and Rx Transfer completed callback
  * @param  hi2s I2S handle
  * @retval None
  */
__weak void HAL_I2SEx_TxRxCpltCallback(I2S_HandleTypeDef *hi2s)
{
 8005f88:	b480      	push	{r7}
 8005f8a:	b083      	sub	sp, #12
 8005f8c:	af00      	add	r7, sp, #0
 8005f8e:	6078      	str	r0, [r7, #4]
  UNUSED(hi2s);

  /* NOTE : This function should not be modified, when the callback is needed,
            the HAL_I2SEx_TxRxCpltCallback could be implemented in the user file
   */
}
 8005f90:	bf00      	nop
 8005f92:	370c      	adds	r7, #12
 8005f94:	46bd      	mov	sp, r7
 8005f96:	f85d 7b04 	ldr.w	r7, [sp], #4
 8005f9a:	4770      	bx	lr

08005f9c <I2SEx_TxISR_I2S>:
  * @brief  I2S Full-Duplex IT handler transmit function
  * @param  hi2s I2S handle
  * @retval None
  */
static void I2SEx_TxISR_I2S(I2S_HandleTypeDef *hi2s)
{
 8005f9c:	b580      	push	{r7, lr}
 8005f9e:	b082      	sub	sp, #8
 8005fa0:	af00      	add	r7, sp, #0
 8005fa2:	6078      	str	r0, [r7, #4]
  /* Write Data on DR register */
  hi2s->Instance->DR = (*hi2s->pTxBuffPtr++);
 8005fa4:	687b      	ldr	r3, [r7, #4]
 8005fa6:	6a5b      	ldr	r3, [r3, #36]	@ 0x24
 8005fa8:	1c99      	adds	r1, r3, #2
 8005faa:	687a      	ldr	r2, [r7, #4]
 8005fac:	6251      	str	r1, [r2, #36]	@ 0x24
 8005fae:	881a      	ldrh	r2, [r3, #0]
 8005fb0:	687b      	ldr	r3, [r7, #4]
 8005fb2:	681b      	ldr	r3, [r3, #0]
 8005fb4:	60da      	str	r2, [r3, #12]
  hi2s->TxXferCount--;
 8005fb6:	687b      	ldr	r3, [r7, #4]
 8005fb8:	8d5b      	ldrh	r3, [r3, #42]	@ 0x2a
 8005fba:	b29b      	uxth	r3, r3
 8005fbc:	3b01      	subs	r3, #1
 8005fbe:	b29a      	uxth	r2, r3
 8005fc0:	687b      	ldr	r3, [r7, #4]
 8005fc2:	855a      	strh	r2, [r3, #42]	@ 0x2a

  if (hi2s->TxXferCount == 0U)
 8005fc4:	687b      	ldr	r3, [r7, #4]
 8005fc6:	8d5b      	ldrh	r3, [r3, #42]	@ 0x2a
 8005fc8:	b29b      	uxth	r3, r3
 8005fca:	2b00      	cmp	r3, #0
 8005fcc:	d113      	bne.n	8005ff6 <I2SEx_TxISR_I2S+0x5a>
  {
    /* Disable TXE and ERR interrupt */
    __HAL_I2S_DISABLE_IT(hi2s, (I2S_IT_TXE | I2S_IT_ERR));
 8005fce:	687b      	ldr	r3, [r7, #4]
 8005fd0:	681b      	ldr	r3, [r3, #0]
 8005fd2:	685a      	ldr	r2, [r3, #4]
 8005fd4:	687b      	ldr	r3, [r7, #4]
 8005fd6:	681b      	ldr	r3, [r3, #0]
 8005fd8:	f022 02a0 	bic.w	r2, r2, #160	@ 0xa0
 8005fdc:	605a      	str	r2, [r3, #4]

    if (hi2s->RxXferCount == 0U)
 8005fde:	687b      	ldr	r3, [r7, #4]
 8005fe0:	8e5b      	ldrh	r3, [r3, #50]	@ 0x32
 8005fe2:	b29b      	uxth	r3, r3
 8005fe4:	2b00      	cmp	r3, #0
 8005fe6:	d106      	bne.n	8005ff6 <I2SEx_TxISR_I2S+0x5a>
    {
      hi2s->State = HAL_I2S_STATE_READY;
 8005fe8:	687b      	ldr	r3, [r7, #4]
 8005fea:	2201      	movs	r2, #1
 8005fec:	f883 2041 	strb.w	r2, [r3, #65]	@ 0x41
      /* Call user TxRx complete callback */
#if (USE_HAL_I2S_REGISTER_CALLBACKS == 1U)
      hi2s->TxRxCpltCallback(hi2s);
#else
      HAL_I2SEx_TxRxCpltCallback(hi2s);
 8005ff0:	6878      	ldr	r0, [r7, #4]
 8005ff2:	f7ff ffc9 	bl	8005f88 <HAL_I2SEx_TxRxCpltCallback>
#endif /* USE_HAL_I2S_REGISTER_CALLBACKS */
    }
  }
}
 8005ff6:	bf00      	nop
 8005ff8:	3708      	adds	r7, #8
 8005ffa:	46bd      	mov	sp, r7
 8005ffc:	bd80      	pop	{r7, pc}
	...

08006000 <I2SEx_TxISR_I2SExt>:
  * @brief  I2SExt Full-Duplex IT handler transmit function
  * @param  hi2s I2S handle
  * @retval None
  */
static void I2SEx_TxISR_I2SExt(I2S_HandleTypeDef *hi2s)
{
 8006000:	b580      	push	{r7, lr}
 8006002:	b082      	sub	sp, #8
 8006004:	af00      	add	r7, sp, #0
 8006006:	6078      	str	r0, [r7, #4]
  /* Write Data on DR register */
  I2SxEXT(hi2s->Instance)->DR = (*hi2s->pTxBuffPtr++);
 8006008:	687b      	ldr	r3, [r7, #4]
 800600a:	6a5b      	ldr	r3, [r3, #36]	@ 0x24
 800600c:	1c99      	adds	r1, r3, #2
 800600e:	687a      	ldr	r2, [r7, #4]
 8006010:	6251      	str	r1, [r2, #36]	@ 0x24
 8006012:	8819      	ldrh	r1, [r3, #0]
 8006014:	687b      	ldr	r3, [r7, #4]
 8006016:	681b      	ldr	r3, [r3, #0]
 8006018:	4a1d      	ldr	r2, [pc, #116]	@ (8006090 <I2SEx_TxISR_I2SExt+0x90>)
 800601a:	4293      	cmp	r3, r2
 800601c:	d101      	bne.n	8006022 <I2SEx_TxISR_I2SExt+0x22>
 800601e:	4b1d      	ldr	r3, [pc, #116]	@ (8006094 <I2SEx_TxISR_I2SExt+0x94>)
 8006020:	e001      	b.n	8006026 <I2SEx_TxISR_I2SExt+0x26>
 8006022:	f04f 2340 	mov.w	r3, #1073758208	@ 0x40004000
 8006026:	460a      	mov	r2, r1
 8006028:	60da      	str	r2, [r3, #12]
  hi2s->TxXferCount--;
 800602a:	687b      	ldr	r3, [r7, #4]
 800602c:	8d5b      	ldrh	r3, [r3, #42]	@ 0x2a
 800602e:	b29b      	uxth	r3, r3
 8006030:	3b01      	subs	r3, #1
 8006032:	b29a      	uxth	r2, r3
 8006034:	687b      	ldr	r3, [r7, #4]
 8006036:	855a      	strh	r2, [r3, #42]	@ 0x2a

  if (hi2s->TxXferCount == 0U)
 8006038:	687b      	ldr	r3, [r7, #4]
 800603a:	8d5b      	ldrh	r3, [r3, #42]	@ 0x2a
 800603c:	b29b      	uxth	r3, r3
 800603e:	2b00      	cmp	r3, #0
 8006040:	d121      	bne.n	8006086 <I2SEx_TxISR_I2SExt+0x86>
  {
    /* Disable I2Sext TXE and ERR interrupt */
    __HAL_I2SEXT_DISABLE_IT(hi2s, (I2S_IT_TXE | I2S_IT_ERR));
 8006042:	687b      	ldr	r3, [r7, #4]
 8006044:	681b      	ldr	r3, [r3, #0]
 8006046:	4a12      	ldr	r2, [pc, #72]	@ (8006090 <I2SEx_TxISR_I2SExt+0x90>)
 8006048:	4293      	cmp	r3, r2
 800604a:	d101      	bne.n	8006050 <I2SEx_TxISR_I2SExt+0x50>
 800604c:	4b11      	ldr	r3, [pc, #68]	@ (8006094 <I2SEx_TxISR_I2SExt+0x94>)
 800604e:	e001      	b.n	8006054 <I2SEx_TxISR_I2SExt+0x54>
 8006050:	f04f 2340 	mov.w	r3, #1073758208	@ 0x40004000
 8006054:	685a      	ldr	r2, [r3, #4]
 8006056:	687b      	ldr	r3, [r7, #4]
 8006058:	681b      	ldr	r3, [r3, #0]
 800605a:	490d      	ldr	r1, [pc, #52]	@ (8006090 <I2SEx_TxISR_I2SExt+0x90>)
 800605c:	428b      	cmp	r3, r1
 800605e:	d101      	bne.n	8006064 <I2SEx_TxISR_I2SExt+0x64>
 8006060:	4b0c      	ldr	r3, [pc, #48]	@ (8006094 <I2SEx_TxISR_I2SExt+0x94>)
 8006062:	e001      	b.n	8006068 <I2SEx_TxISR_I2SExt+0x68>
 8006064:	f04f 2340 	mov.w	r3, #1073758208	@ 0x40004000
 8006068:	f022 02a0 	bic.w	r2, r2, #160	@ 0xa0
 800606c:	605a      	str	r2, [r3, #4]

    if (hi2s->RxXferCount == 0U)
 800606e:	687b      	ldr	r3, [r7, #4]
 8006070:	8e5b      	ldrh	r3, [r3, #50]	@ 0x32
 8006072:	b29b      	uxth	r3, r3
 8006074:	2b00      	cmp	r3, #0
 8006076:	d106      	bne.n	8006086 <I2SEx_TxISR_I2SExt+0x86>
    {
      hi2s->State = HAL_I2S_STATE_READY;
 8006078:	687b      	ldr	r3, [r7, #4]
 800607a:	2201      	movs	r2, #1
 800607c:	f883 2041 	strb.w	r2, [r3, #65]	@ 0x41
      /* Call user TxRx complete callback */
#if (USE_HAL_I2S_REGISTER_CALLBACKS == 1U)
      hi2s->TxRxCpltCallback(hi2s);
#else
      HAL_I2SEx_TxRxCpltCallback(hi2s);
 8006080:	6878      	ldr	r0, [r7, #4]
 8006082:	f7ff ff81 	bl	8005f88 <HAL_I2SEx_TxRxCpltCallback>
#endif /* USE_HAL_I2S_REGISTER_CALLBACKS */
    }
  }
}
 8006086:	bf00      	nop
 8006088:	3708      	adds	r7, #8
 800608a:	46bd      	mov	sp, r7
 800608c:	bd80      	pop	{r7, pc}
 800608e:	bf00      	nop
 8006090:	40003800 	.word	0x40003800
 8006094:	40003400 	.word	0x40003400

08006098 <I2SEx_RxISR_I2S>:
  * @brief  I2S Full-Duplex IT handler receive function
  * @param  hi2s I2S handle
  * @retval None
  */
static void I2SEx_RxISR_I2S(I2S_HandleTypeDef *hi2s)
{
 8006098:	b580      	push	{r7, lr}
 800609a:	b082      	sub	sp, #8
 800609c:	af00      	add	r7, sp, #0
 800609e:	6078      	str	r0, [r7, #4]
  /* Read Data from DR register */
  (*hi2s->pRxBuffPtr++) = hi2s->Instance->DR;
 80060a0:	687b      	ldr	r3, [r7, #4]
 80060a2:	681b      	ldr	r3, [r3, #0]
 80060a4:	68d8      	ldr	r0, [r3, #12]
 80060a6:	687b      	ldr	r3, [r7, #4]
 80060a8:	6adb      	ldr	r3, [r3, #44]	@ 0x2c
 80060aa:	1c99      	adds	r1, r3, #2
 80060ac:	687a      	ldr	r2, [r7, #4]
 80060ae:	62d1      	str	r1, [r2, #44]	@ 0x2c
 80060b0:	b282      	uxth	r2, r0
 80060b2:	801a      	strh	r2, [r3, #0]
  hi2s->RxXferCount--;
 80060b4:	687b      	ldr	r3, [r7, #4]
 80060b6:	8e5b      	ldrh	r3, [r3, #50]	@ 0x32
 80060b8:	b29b      	uxth	r3, r3
 80060ba:	3b01      	subs	r3, #1
 80060bc:	b29a      	uxth	r2, r3
 80060be:	687b      	ldr	r3, [r7, #4]
 80060c0:	865a      	strh	r2, [r3, #50]	@ 0x32

  if (hi2s->RxXferCount == 0U)
 80060c2:	687b      	ldr	r3, [r7, #4]
 80060c4:	8e5b      	ldrh	r3, [r3, #50]	@ 0x32
 80060c6:	b29b      	uxth	r3, r3
 80060c8:	2b00      	cmp	r3, #0
 80060ca:	d113      	bne.n	80060f4 <I2SEx_RxISR_I2S+0x5c>
  {
    /* Disable RXNE and ERR interrupt */
    __HAL_I2S_DISABLE_IT(hi2s, (I2S_IT_RXNE | I2S_IT_ERR));
 80060cc:	687b      	ldr	r3, [r7, #4]
 80060ce:	681b      	ldr	r3, [r3, #0]
 80060d0:	685a      	ldr	r2, [r3, #4]
 80060d2:	687b      	ldr	r3, [r7, #4]
 80060d4:	681b      	ldr	r3, [r3, #0]
 80060d6:	f022 0260 	bic.w	r2, r2, #96	@ 0x60
 80060da:	605a      	str	r2, [r3, #4]

    if (hi2s->TxXferCount == 0U)
 80060dc:	687b      	ldr	r3, [r7, #4]
 80060de:	8d5b      	ldrh	r3, [r3, #42]	@ 0x2a
 80060e0:	b29b      	uxth	r3, r3
 80060e2:	2b00      	cmp	r3, #0
 80060e4:	d106      	bne.n	80060f4 <I2SEx_RxISR_I2S+0x5c>
    {
      hi2s->State = HAL_I2S_STATE_READY;
 80060e6:	687b      	ldr	r3, [r7, #4]
 80060e8:	2201      	movs	r2, #1
 80060ea:	f883 2041 	strb.w	r2, [r3, #65]	@ 0x41
      /* Call user TxRx complete callback */
#if (USE_HAL_I2S_REGISTER_CALLBACKS == 1U)
      hi2s->TxRxCpltCallback(hi2s);
#else
      HAL_I2SEx_TxRxCpltCallback(hi2s);
 80060ee:	6878      	ldr	r0, [r7, #4]
 80060f0:	f7ff ff4a 	bl	8005f88 <HAL_I2SEx_TxRxCpltCallback>
#endif /* USE_HAL_I2S_REGISTER_CALLBACKS */
    }
  }
}
 80060f4:	bf00      	nop
 80060f6:	3708      	adds	r7, #8
 80060f8:	46bd      	mov	sp, r7
 80060fa:	bd80      	pop	{r7, pc}

080060fc <I2SEx_RxISR_I2SExt>:
  * @brief  I2SExt Full-Duplex IT handler receive function
  * @param  hi2s I2S handle
  * @retval None
  */
static void I2SEx_RxISR_I2SExt(I2S_HandleTypeDef *hi2s)
{
 80060fc:	b580      	push	{r7, lr}
 80060fe:	b082      	sub	sp, #8
 8006100:	af00      	add	r7, sp, #0
 8006102:	6078      	str	r0, [r7, #4]
  /* Read Data from DR register */
  (*hi2s->pRxBuffPtr++) = I2SxEXT(hi2s->Instance)->DR;
 8006104:	687b      	ldr	r3, [r7, #4]
 8006106:	681b      	ldr	r3, [r3, #0]
 8006108:	4a20      	ldr	r2, [pc, #128]	@ (800618c <I2SEx_RxISR_I2SExt+0x90>)
 800610a:	4293      	cmp	r3, r2
 800610c:	d101      	bne.n	8006112 <I2SEx_RxISR_I2SExt+0x16>
 800610e:	4b20      	ldr	r3, [pc, #128]	@ (8006190 <I2SEx_RxISR_I2SExt+0x94>)
 8006110:	e001      	b.n	8006116 <I2SEx_RxISR_I2SExt+0x1a>
 8006112:	f04f 2340 	mov.w	r3, #1073758208	@ 0x40004000
 8006116:	68d8      	ldr	r0, [r3, #12]
 8006118:	687b      	ldr	r3, [r7, #4]
 800611a:	6adb      	ldr	r3, [r3, #44]	@ 0x2c
 800611c:	1c99      	adds	r1, r3, #2
 800611e:	687a      	ldr	r2, [r7, #4]
 8006120:	62d1      	str	r1, [r2, #44]	@ 0x2c
 8006122:	b282      	uxth	r2, r0
 8006124:	801a      	strh	r2, [r3, #0]
  hi2s->RxXferCount--;
 8006126:	687b      	ldr	r3, [r7, #4]
 8006128:	8e5b      	ldrh	r3, [r3, #50]	@ 0x32
 800612a:	b29b      	uxth	r3, r3
 800612c:	3b01      	subs	r3, #1
 800612e:	b29a      	uxth	r2, r3
 8006130:	687b      	ldr	r3, [r7, #4]
 8006132:	865a      	strh	r2, [r3, #50]	@ 0x32

  if (hi2s->RxXferCount == 0U)
 8006134:	687b      	ldr	r3, [r7, #4]
 8006136:	8e5b      	ldrh	r3, [r3, #50]	@ 0x32
 8006138:	b29b      	uxth	r3, r3
 800613a:	2b00      	cmp	r3, #0
 800613c:	d121      	bne.n	8006182 <I2SEx_RxISR_I2SExt+0x86>
  {
    /* Disable I2Sext RXNE and ERR interrupt */
    __HAL_I2SEXT_DISABLE_IT(hi2s, (I2S_IT_RXNE | I2S_IT_ERR));
 800613e:	687b      	ldr	r3, [r7, #4]
 8006140:	681b      	ldr	r3, [r3, #0]
 8006142:	4a12      	ldr	r2, [pc, #72]	@ (800618c <I2SEx_RxISR_I2SExt+0x90>)
 8006144:	4293      	cmp	r3, r2
 8006146:	d101      	bne.n	800614c <I2SEx_RxISR_I2SExt+0x50>
 8006148:	4b11      	ldr	r3, [pc, #68]	@ (8006190 <I2SEx_RxISR_I2SExt+0x94>)
 800614a:	e001      	b.n	8006150 <I2SEx_RxISR_I2SExt+0x54>
 800614c:	f04f 2340 	mov.w	r3, #1073758208	@ 0x40004000
 8006150:	685a      	ldr	r2, [r3, #4]
 8006152:	687b      	ldr	r3, [r7, #4]
 8006154:	681b      	ldr	r3, [r3, #0]
 8006156:	490d      	ldr	r1, [pc, #52]	@ (800618c <I2SEx_RxISR_I2SExt+0x90>)
 8006158:	428b      	cmp	r3, r1
 800615a:	d101      	bne.n	8006160 <I2SEx_RxISR_I2SExt+0x64>
 800615c:	4b0c      	ldr	r3, [pc, #48]	@ (8006190 <I2SEx_RxISR_I2SExt+0x94>)
 800615e:	e001      	b.n	8006164 <I2SEx_RxISR_I2SExt+0x68>
 8006160:	f04f 2340 	mov.w	r3, #1073758208	@ 0x40004000
 8006164:	f022 0260 	bic.w	r2, r2, #96	@ 0x60
 8006168:	605a      	str	r2, [r3, #4]

    if (hi2s->TxXferCount == 0U)
 800616a:	687b      	ldr	r3, [r7, #4]
 800616c:	8d5b      	ldrh	r3, [r3, #42]	@ 0x2a
 800616e:	b29b      	uxth	r3, r3
 8006170:	2b00      	cmp	r3, #0
 8006172:	d106      	bne.n	8006182 <I2SEx_RxISR_I2SExt+0x86>
    {
      hi2s->State = HAL_I2S_STATE_READY;
 8006174:	687b      	ldr	r3, [r7, #4]
 8006176:	2201      	movs	r2, #1
 8006178:	f883 2041 	strb.w	r2, [r3, #65]	@ 0x41
      /* Call user TxRx complete callback */
#if (USE_HAL_I2S_REGISTER_CALLBACKS == 1U)
      hi2s->TxRxCpltCallback(hi2s);
#else
      HAL_I2SEx_TxRxCpltCallback(hi2s);
 800617c:	6878      	ldr	r0, [r7, #4]
 800617e:	f7ff ff03 	bl	8005f88 <HAL_I2SEx_TxRxCpltCallback>
#endif /* USE_HAL_I2S_REGISTER_CALLBACKS */
    }
  }
}
 8006182:	bf00      	nop
 8006184:	3708      	adds	r7, #8
 8006186:	46bd      	mov	sp, r7
 8006188:	bd80      	pop	{r7, pc}
 800618a:	bf00      	nop
 800618c:	40003800 	.word	0x40003800
 8006190:	40003400 	.word	0x40003400

08006194 <HAL_RCC_OscConfig>:
  *         supported by this API. User should request a transition to HSE Off
  *         first and then HSE On or HSE Bypass.
  * @retval HAL status
  */
__weak HAL_StatusTypeDef HAL_RCC_OscConfig(const RCC_OscInitTypeDef  *RCC_OscInitStruct)
{
 8006194:	b580      	push	{r7, lr}
 8006196:	b086      	sub	sp, #24
 8006198:	af00      	add	r7, sp, #0
 800619a:	6078      	str	r0, [r7, #4]
  uint32_t tickstart;
  uint32_t pll_config;
  /* Check Null pointer */
  if (RCC_OscInitStruct == NULL)
 800619c:	687b      	ldr	r3, [r7, #4]
 800619e:	2b00      	cmp	r3, #0
 80061a0:	d101      	bne.n	80061a6 <HAL_RCC_OscConfig+0x12>
  {
    return HAL_ERROR;
 80061a2:	2301      	movs	r3, #1
 80061a4:	e267      	b.n	8006676 <HAL_RCC_OscConfig+0x4e2>
  }

  /* Check the parameters */
  assert_param(IS_RCC_OSCILLATORTYPE(RCC_OscInitStruct->OscillatorType));
  /*------------------------------- HSE Configuration ------------------------*/
  if (((RCC_OscInitStruct->OscillatorType) & RCC_OSCILLATORTYPE_HSE) == RCC_OSCILLATORTYPE_HSE)
 80061a6:	687b      	ldr	r3, [r7, #4]
 80061a8:	681b      	ldr	r3, [r3, #0]
 80061aa:	f003 0301 	and.w	r3, r3, #1
 80061ae:	2b00      	cmp	r3, #0
 80061b0:	d075      	beq.n	800629e <HAL_RCC_OscConfig+0x10a>
  {
    /* Check the parameters */
    assert_param(IS_RCC_HSE(RCC_OscInitStruct->HSEState));
    /* When the HSE is used as system clock or clock source for PLL in these cases HSE will not disabled */
    if ((__HAL_RCC_GET_SYSCLK_SOURCE() == RCC_CFGR_SWS_HSE) || \
 80061b2:	4b88      	ldr	r3, [pc, #544]	@ (80063d4 <HAL_RCC_OscConfig+0x240>)
 80061b4:	689b      	ldr	r3, [r3, #8]
 80061b6:	f003 030c 	and.w	r3, r3, #12
 80061ba:	2b04      	cmp	r3, #4
 80061bc:	d00c      	beq.n	80061d8 <HAL_RCC_OscConfig+0x44>
        ((__HAL_RCC_GET_SYSCLK_SOURCE() == RCC_CFGR_SWS_PLL) && ((RCC->PLLCFGR & RCC_PLLCFGR_PLLSRC) == RCC_PLLCFGR_PLLSRC_HSE)))
 80061be:	4b85      	ldr	r3, [pc, #532]	@ (80063d4 <HAL_RCC_OscConfig+0x240>)
 80061c0:	689b      	ldr	r3, [r3, #8]
 80061c2:	f003 030c 	and.w	r3, r3, #12
    if ((__HAL_RCC_GET_SYSCLK_SOURCE() == RCC_CFGR_SWS_HSE) || \
 80061c6:	2b08      	cmp	r3, #8
 80061c8:	d112      	bne.n	80061f0 <HAL_RCC_OscConfig+0x5c>
        ((__HAL_RCC_GET_SYSCLK_SOURCE() == RCC_CFGR_SWS_PLL) && ((RCC->PLLCFGR & RCC_PLLCFGR_PLLSRC) == RCC_PLLCFGR_PLLSRC_HSE)))
 80061ca:	4b82      	ldr	r3, [pc, #520]	@ (80063d4 <HAL_RCC_OscConfig+0x240>)
 80061cc:	685b      	ldr	r3, [r3, #4]
 80061ce:	f403 0380 	and.w	r3, r3, #4194304	@ 0x400000
 80061d2:	f5b3 0f80 	cmp.w	r3, #4194304	@ 0x400000
 80061d6:	d10b      	bne.n	80061f0 <HAL_RCC_OscConfig+0x5c>
    {
      if ((__HAL_RCC_GET_FLAG(RCC_FLAG_HSERDY) != RESET) && (RCC_OscInitStruct->HSEState == RCC_HSE_OFF))
 80061d8:	4b7e      	ldr	r3, [pc, #504]	@ (80063d4 <HAL_RCC_OscConfig+0x240>)
 80061da:	681b      	ldr	r3, [r3, #0]
 80061dc:	f403 3300 	and.w	r3, r3, #131072	@ 0x20000
 80061e0:	2b00      	cmp	r3, #0
 80061e2:	d05b      	beq.n	800629c <HAL_RCC_OscConfig+0x108>
 80061e4:	687b      	ldr	r3, [r7, #4]
 80061e6:	685b      	ldr	r3, [r3, #4]
 80061e8:	2b00      	cmp	r3, #0
 80061ea:	d157      	bne.n	800629c <HAL_RCC_OscConfig+0x108>
      {
        return HAL_ERROR;
 80061ec:	2301      	movs	r3, #1
 80061ee:	e242      	b.n	8006676 <HAL_RCC_OscConfig+0x4e2>
      }
    }
    else
    {
      /* Set the new HSE configuration ---------------------------------------*/
      __HAL_RCC_HSE_CONFIG(RCC_OscInitStruct->HSEState);
 80061f0:	687b      	ldr	r3, [r7, #4]
 80061f2:	685b      	ldr	r3, [r3, #4]
 80061f4:	f5b3 3f80 	cmp.w	r3, #65536	@ 0x10000
 80061f8:	d106      	bne.n	8006208 <HAL_RCC_OscConfig+0x74>
 80061fa:	4b76      	ldr	r3, [pc, #472]	@ (80063d4 <HAL_RCC_OscConfig+0x240>)
 80061fc:	681b      	ldr	r3, [r3, #0]
 80061fe:	4a75      	ldr	r2, [pc, #468]	@ (80063d4 <HAL_RCC_OscConfig+0x240>)
 8006200:	f443 3380 	orr.w	r3, r3, #65536	@ 0x10000
 8006204:	6013      	str	r3, [r2, #0]
 8006206:	e01d      	b.n	8006244 <HAL_RCC_OscConfig+0xb0>
 8006208:	687b      	ldr	r3, [r7, #4]
 800620a:	685b      	ldr	r3, [r3, #4]
 800620c:	f5b3 2fa0 	cmp.w	r3, #327680	@ 0x50000
 8006210:	d10c      	bne.n	800622c <HAL_RCC_OscConfig+0x98>
 8006212:	4b70      	ldr	r3, [pc, #448]	@ (80063d4 <HAL_RCC_OscConfig+0x240>)
 8006214:	681b      	ldr	r3, [r3, #0]
 8006216:	4a6f      	ldr	r2, [pc, #444]	@ (80063d4 <HAL_RCC_OscConfig+0x240>)
 8006218:	f443 2380 	orr.w	r3, r3, #262144	@ 0x40000
 800621c:	6013      	str	r3, [r2, #0]
 800621e:	4b6d      	ldr	r3, [pc, #436]	@ (80063d4 <HAL_RCC_OscConfig+0x240>)
 8006220:	681b      	ldr	r3, [r3, #0]
 8006222:	4a6c      	ldr	r2, [pc, #432]	@ (80063d4 <HAL_RCC_OscConfig+0x240>)
 8006224:	f443 3380 	orr.w	r3, r3, #65536	@ 0x10000
 8006228:	6013      	str	r3, [r2, #0]
 800622a:	e00b      	b.n	8006244 <HAL_RCC_OscConfig+0xb0>
 800622c:	4b69      	ldr	r3, [pc, #420]	@ (80063d4 <HAL_RCC_OscConfig+0x240>)
 800622e:	681b      	ldr	r3, [r3, #0]
 8006230:	4a68      	ldr	r2, [pc, #416]	@ (80063d4 <HAL_RCC_OscConfig+0x240>)
 8006232:	f423 3380 	bic.w	r3, r3, #65536	@ 0x10000
 8006236:	6013      	str	r3, [r2, #0]
 8006238:	4b66      	ldr	r3, [pc, #408]	@ (80063d4 <HAL_RCC_OscConfig+0x240>)
 800623a:	681b      	ldr	r3, [r3, #0]
 800623c:	4a65      	ldr	r2, [pc, #404]	@ (80063d4 <HAL_RCC_OscConfig+0x240>)
 800623e:	f423 2380 	bic.w	r3, r3, #262144	@ 0x40000
 8006242:	6013      	str	r3, [r2, #0]

      /* Check the HSE State */
      if ((RCC_OscInitStruct->HSEState) != RCC_HSE_OFF)
 8006244:	687b      	ldr	r3, [r7, #4]
 8006246:	685b      	ldr	r3, [r3, #4]
 8006248:	2b00      	cmp	r3, #0
 800624a:	d013      	beq.n	8006274 <HAL_RCC_OscConfig+0xe0>
      {
        /* Get Start Tick */
        tickstart = HAL_GetTick();
 800624c:	f7fe fb94 	bl	8004978 <HAL_GetTick>
 8006250:	6138      	str	r0, [r7, #16]

        /* Wait till HSE is ready */
        while (__HAL_RCC_GET_FLAG(RCC_FLAG_HSERDY) == RESET)
 8006252:	e008      	b.n	8006266 <HAL_RCC_OscConfig+0xd2>
        {
          if ((HAL_GetTick() - tickstart) > HSE_TIMEOUT_VALUE)
 8006254:	f7fe fb90 	bl	8004978 <HAL_GetTick>
 8006258:	4602      	mov	r2, r0
 800625a:	693b      	ldr	r3, [r7, #16]
 800625c:	1ad3      	subs	r3, r2, r3
 800625e:	2b64      	cmp	r3, #100	@ 0x64
 8006260:	d901      	bls.n	8006266 <HAL_RCC_OscConfig+0xd2>
          {
            return HAL_TIMEOUT;
 8006262:	2303      	movs	r3, #3
 8006264:	e207      	b.n	8006676 <HAL_RCC_OscConfig+0x4e2>
        while (__HAL_RCC_GET_FLAG(RCC_FLAG_HSERDY) == RESET)
 8006266:	4b5b      	ldr	r3, [pc, #364]	@ (80063d4 <HAL_RCC_OscConfig+0x240>)
 8006268:	681b      	ldr	r3, [r3, #0]
 800626a:	f403 3300 	and.w	r3, r3, #131072	@ 0x20000
 800626e:	2b00      	cmp	r3, #0
 8006270:	d0f0      	beq.n	8006254 <HAL_RCC_OscConfig+0xc0>
 8006272:	e014      	b.n	800629e <HAL_RCC_OscConfig+0x10a>
        }
      }
      else
      {
        /* Get Start Tick */
        tickstart = HAL_GetTick();
 8006274:	f7fe fb80 	bl	8004978 <HAL_GetTick>
 8006278:	6138      	str	r0, [r7, #16]

        /* Wait till HSE is bypassed or disabled */
        while (__HAL_RCC_GET_FLAG(RCC_FLAG_HSERDY) != RESET)
 800627a:	e008      	b.n	800628e <HAL_RCC_OscConfig+0xfa>
        {
          if ((HAL_GetTick() - tickstart) > HSE_TIMEOUT_VALUE)
 800627c:	f7fe fb7c 	bl	8004978 <HAL_GetTick>
 8006280:	4602      	mov	r2, r0
 8006282:	693b      	ldr	r3, [r7, #16]
 8006284:	1ad3      	subs	r3, r2, r3
 8006286:	2b64      	cmp	r3, #100	@ 0x64
 8006288:	d901      	bls.n	800628e <HAL_RCC_OscConfig+0xfa>
          {
            return HAL_TIMEOUT;
 800628a:	2303      	movs	r3, #3
 800628c:	e1f3      	b.n	8006676 <HAL_RCC_OscConfig+0x4e2>
        while (__HAL_RCC_GET_FLAG(RCC_FLAG_HSERDY) != RESET)
 800628e:	4b51      	ldr	r3, [pc, #324]	@ (80063d4 <HAL_RCC_OscConfig+0x240>)
 8006290:	681b      	ldr	r3, [r3, #0]
 8006292:	f403 3300 	and.w	r3, r3, #131072	@ 0x20000
 8006296:	2b00      	cmp	r3, #0
 8006298:	d1f0      	bne.n	800627c <HAL_RCC_OscConfig+0xe8>
 800629a:	e000      	b.n	800629e <HAL_RCC_OscConfig+0x10a>
      if ((__HAL_RCC_GET_FLAG(RCC_FLAG_HSERDY) != RESET) && (RCC_OscInitStruct->HSEState == RCC_HSE_OFF))
 800629c:	bf00      	nop
        }
      }
    }
  }
  /*----------------------------- HSI Configuration --------------------------*/
  if (((RCC_OscInitStruct->OscillatorType) & RCC_OSCILLATORTYPE_HSI) == RCC_OSCILLATORTYPE_HSI)
 800629e:	687b      	ldr	r3, [r7, #4]
 80062a0:	681b      	ldr	r3, [r3, #0]
 80062a2:	f003 0302 	and.w	r3, r3, #2
 80062a6:	2b00      	cmp	r3, #0
 80062a8:	d063      	beq.n	8006372 <HAL_RCC_OscConfig+0x1de>
    /* Check the parameters */
    assert_param(IS_RCC_HSI(RCC_OscInitStruct->HSIState));
    assert_param(IS_RCC_CALIBRATION_VALUE(RCC_OscInitStruct->HSICalibrationValue));

    /* Check if HSI is used as system clock or as PLL source when PLL is selected as system clock */
    if ((__HAL_RCC_GET_SYSCLK_SOURCE() == RCC_CFGR_SWS_HSI) || \
 80062aa:	4b4a      	ldr	r3, [pc, #296]	@ (80063d4 <HAL_RCC_OscConfig+0x240>)
 80062ac:	689b      	ldr	r3, [r3, #8]
 80062ae:	f003 030c 	and.w	r3, r3, #12
 80062b2:	2b00      	cmp	r3, #0
 80062b4:	d00b      	beq.n	80062ce <HAL_RCC_OscConfig+0x13a>
        ((__HAL_RCC_GET_SYSCLK_SOURCE() == RCC_CFGR_SWS_PLL) && ((RCC->PLLCFGR & RCC_PLLCFGR_PLLSRC) == RCC_PLLCFGR_PLLSRC_HSI)))
 80062b6:	4b47      	ldr	r3, [pc, #284]	@ (80063d4 <HAL_RCC_OscConfig+0x240>)
 80062b8:	689b      	ldr	r3, [r3, #8]
 80062ba:	f003 030c 	and.w	r3, r3, #12
    if ((__HAL_RCC_GET_SYSCLK_SOURCE() == RCC_CFGR_SWS_HSI) || \
 80062be:	2b08      	cmp	r3, #8
 80062c0:	d11c      	bne.n	80062fc <HAL_RCC_OscConfig+0x168>
        ((__HAL_RCC_GET_SYSCLK_SOURCE() == RCC_CFGR_SWS_PLL) && ((RCC->PLLCFGR & RCC_PLLCFGR_PLLSRC) == RCC_PLLCFGR_PLLSRC_HSI)))
 80062c2:	4b44      	ldr	r3, [pc, #272]	@ (80063d4 <HAL_RCC_OscConfig+0x240>)
 80062c4:	685b      	ldr	r3, [r3, #4]
 80062c6:	f403 0380 	and.w	r3, r3, #4194304	@ 0x400000
 80062ca:	2b00      	cmp	r3, #0
 80062cc:	d116      	bne.n	80062fc <HAL_RCC_OscConfig+0x168>
    {
      /* When HSI is used as system clock it will not disabled */
      if ((__HAL_RCC_GET_FLAG(RCC_FLAG_HSIRDY) != RESET) && (RCC_OscInitStruct->HSIState != RCC_HSI_ON))
 80062ce:	4b41      	ldr	r3, [pc, #260]	@ (80063d4 <HAL_RCC_OscConfig+0x240>)
 80062d0:	681b      	ldr	r3, [r3, #0]
 80062d2:	f003 0302 	and.w	r3, r3, #2
 80062d6:	2b00      	cmp	r3, #0
 80062d8:	d005      	beq.n	80062e6 <HAL_RCC_OscConfig+0x152>
 80062da:	687b      	ldr	r3, [r7, #4]
 80062dc:	68db      	ldr	r3, [r3, #12]
 80062de:	2b01      	cmp	r3, #1
 80062e0:	d001      	beq.n	80062e6 <HAL_RCC_OscConfig+0x152>
      {
        return HAL_ERROR;
 80062e2:	2301      	movs	r3, #1
 80062e4:	e1c7      	b.n	8006676 <HAL_RCC_OscConfig+0x4e2>
      }
      /* Otherwise, just the calibration is allowed */
      else
      {
        /* Adjusts the Internal High Speed oscillator (HSI) calibration value.*/
        __HAL_RCC_HSI_CALIBRATIONVALUE_ADJUST(RCC_OscInitStruct->HSICalibrationValue);
 80062e6:	4b3b      	ldr	r3, [pc, #236]	@ (80063d4 <HAL_RCC_OscConfig+0x240>)
 80062e8:	681b      	ldr	r3, [r3, #0]
 80062ea:	f023 02f8 	bic.w	r2, r3, #248	@ 0xf8
 80062ee:	687b      	ldr	r3, [r7, #4]
 80062f0:	691b      	ldr	r3, [r3, #16]
 80062f2:	00db      	lsls	r3, r3, #3
 80062f4:	4937      	ldr	r1, [pc, #220]	@ (80063d4 <HAL_RCC_OscConfig+0x240>)
 80062f6:	4313      	orrs	r3, r2
 80062f8:	600b      	str	r3, [r1, #0]
      if ((__HAL_RCC_GET_FLAG(RCC_FLAG_HSIRDY) != RESET) && (RCC_OscInitStruct->HSIState != RCC_HSI_ON))
 80062fa:	e03a      	b.n	8006372 <HAL_RCC_OscConfig+0x1de>
      }
    }
    else
    {
      /* Check the HSI State */
      if ((RCC_OscInitStruct->HSIState) != RCC_HSI_OFF)
 80062fc:	687b      	ldr	r3, [r7, #4]
 80062fe:	68db      	ldr	r3, [r3, #12]
 8006300:	2b00      	cmp	r3, #0
 8006302:	d020      	beq.n	8006346 <HAL_RCC_OscConfig+0x1b2>
      {
        /* Enable the Internal High Speed oscillator (HSI). */
        __HAL_RCC_HSI_ENABLE();
 8006304:	4b34      	ldr	r3, [pc, #208]	@ (80063d8 <HAL_RCC_OscConfig+0x244>)
 8006306:	2201      	movs	r2, #1
 8006308:	601a      	str	r2, [r3, #0]

        /* Get Start Tick*/
        tickstart = HAL_GetTick();
 800630a:	f7fe fb35 	bl	8004978 <HAL_GetTick>
 800630e:	6138      	str	r0, [r7, #16]

        /* Wait till HSI is ready */
        while (__HAL_RCC_GET_FLAG(RCC_FLAG_HSIRDY) == RESET)
 8006310:	e008      	b.n	8006324 <HAL_RCC_OscConfig+0x190>
        {
          if ((HAL_GetTick() - tickstart) > HSI_TIMEOUT_VALUE)
 8006312:	f7fe fb31 	bl	8004978 <HAL_GetTick>
 8006316:	4602      	mov	r2, r0
 8006318:	693b      	ldr	r3, [r7, #16]
 800631a:	1ad3      	subs	r3, r2, r3
 800631c:	2b02      	cmp	r3, #2
 800631e:	d901      	bls.n	8006324 <HAL_RCC_OscConfig+0x190>
          {
            return HAL_TIMEOUT;
 8006320:	2303      	movs	r3, #3
 8006322:	e1a8      	b.n	8006676 <HAL_RCC_OscConfig+0x4e2>
        while (__HAL_RCC_GET_FLAG(RCC_FLAG_HSIRDY) == RESET)
 8006324:	4b2b      	ldr	r3, [pc, #172]	@ (80063d4 <HAL_RCC_OscConfig+0x240>)
 8006326:	681b      	ldr	r3, [r3, #0]
 8006328:	f003 0302 	and.w	r3, r3, #2
 800632c:	2b00      	cmp	r3, #0
 800632e:	d0f0      	beq.n	8006312 <HAL_RCC_OscConfig+0x17e>
          }
        }

        /* Adjusts the Internal High Speed oscillator (HSI) calibration value. */
        __HAL_RCC_HSI_CALIBRATIONVALUE_ADJUST(RCC_OscInitStruct->HSICalibrationValue);
 8006330:	4b28      	ldr	r3, [pc, #160]	@ (80063d4 <HAL_RCC_OscConfig+0x240>)
 8006332:	681b      	ldr	r3, [r3, #0]
 8006334:	f023 02f8 	bic.w	r2, r3, #248	@ 0xf8
 8006338:	687b      	ldr	r3, [r7, #4]
 800633a:	691b      	ldr	r3, [r3, #16]
 800633c:	00db      	lsls	r3, r3, #3
 800633e:	4925      	ldr	r1, [pc, #148]	@ (80063d4 <HAL_RCC_OscConfig+0x240>)
 8006340:	4313      	orrs	r3, r2
 8006342:	600b      	str	r3, [r1, #0]
 8006344:	e015      	b.n	8006372 <HAL_RCC_OscConfig+0x1de>
      }
      else
      {
        /* Disable the Internal High Speed oscillator (HSI). */
        __HAL_RCC_HSI_DISABLE();
 8006346:	4b24      	ldr	r3, [pc, #144]	@ (80063d8 <HAL_RCC_OscConfig+0x244>)
 8006348:	2200      	movs	r2, #0
 800634a:	601a      	str	r2, [r3, #0]

        /* Get Start Tick*/
        tickstart = HAL_GetTick();
 800634c:	f7fe fb14 	bl	8004978 <HAL_GetTick>
 8006350:	6138      	str	r0, [r7, #16]

        /* Wait till HSI is ready */
        while (__HAL_RCC_GET_FLAG(RCC_FLAG_HSIRDY) != RESET)
 8006352:	e008      	b.n	8006366 <HAL_RCC_OscConfig+0x1d2>
        {
          if ((HAL_GetTick() - tickstart) > HSI_TIMEOUT_VALUE)
 8006354:	f7fe fb10 	bl	8004978 <HAL_GetTick>
 8006358:	4602      	mov	r2, r0
 800635a:	693b      	ldr	r3, [r7, #16]
 800635c:	1ad3      	subs	r3, r2, r3
 800635e:	2b02      	cmp	r3, #2
 8006360:	d901      	bls.n	8006366 <HAL_RCC_OscConfig+0x1d2>
          {
            return HAL_TIMEOUT;
 8006362:	2303      	movs	r3, #3
 8006364:	e187      	b.n	8006676 <HAL_RCC_OscConfig+0x4e2>
        while (__HAL_RCC_GET_FLAG(RCC_FLAG_HSIRDY) != RESET)
 8006366:	4b1b      	ldr	r3, [pc, #108]	@ (80063d4 <HAL_RCC_OscConfig+0x240>)
 8006368:	681b      	ldr	r3, [r3, #0]
 800636a:	f003 0302 	and.w	r3, r3, #2
 800636e:	2b00      	cmp	r3, #0
 8006370:	d1f0      	bne.n	8006354 <HAL_RCC_OscConfig+0x1c0>
        }
      }
    }
  }
  /*------------------------------ LSI Configuration -------------------------*/
  if (((RCC_OscInitStruct->OscillatorType) & RCC_OSCILLATORTYPE_LSI) == RCC_OSCILLATORTYPE_LSI)
 8006372:	687b      	ldr	r3, [r7, #4]
 8006374:	681b      	ldr	r3, [r3, #0]
 8006376:	f003 0308 	and.w	r3, r3, #8
 800637a:	2b00      	cmp	r3, #0
 800637c:	d036      	beq.n	80063ec <HAL_RCC_OscConfig+0x258>
  {
    /* Check the parameters */
    assert_param(IS_RCC_LSI(RCC_OscInitStruct->LSIState));

    /* Check the LSI State */
    if ((RCC_OscInitStruct->LSIState) != RCC_LSI_OFF)
 800637e:	687b      	ldr	r3, [r7, #4]
 8006380:	695b      	ldr	r3, [r3, #20]
 8006382:	2b00      	cmp	r3, #0
 8006384:	d016      	beq.n	80063b4 <HAL_RCC_OscConfig+0x220>
    {
      /* Enable the Internal Low Speed oscillator (LSI). */
      __HAL_RCC_LSI_ENABLE();
 8006386:	4b15      	ldr	r3, [pc, #84]	@ (80063dc <HAL_RCC_OscConfig+0x248>)
 8006388:	2201      	movs	r2, #1
 800638a:	601a      	str	r2, [r3, #0]

      /* Get Start Tick*/
      tickstart = HAL_GetTick();
 800638c:	f7fe faf4 	bl	8004978 <HAL_GetTick>
 8006390:	6138      	str	r0, [r7, #16]

      /* Wait till LSI is ready */
      while (__HAL_RCC_GET_FLAG(RCC_FLAG_LSIRDY) == RESET)
 8006392:	e008      	b.n	80063a6 <HAL_RCC_OscConfig+0x212>
      {
        if ((HAL_GetTick() - tickstart) > LSI_TIMEOUT_VALUE)
 8006394:	f7fe faf0 	bl	8004978 <HAL_GetTick>
 8006398:	4602      	mov	r2, r0
 800639a:	693b      	ldr	r3, [r7, #16]
 800639c:	1ad3      	subs	r3, r2, r3
 800639e:	2b02      	cmp	r3, #2
 80063a0:	d901      	bls.n	80063a6 <HAL_RCC_OscConfig+0x212>
        {
          return HAL_TIMEOUT;
 80063a2:	2303      	movs	r3, #3
 80063a4:	e167      	b.n	8006676 <HAL_RCC_OscConfig+0x4e2>
      while (__HAL_RCC_GET_FLAG(RCC_FLAG_LSIRDY) == RESET)
 80063a6:	4b0b      	ldr	r3, [pc, #44]	@ (80063d4 <HAL_RCC_OscConfig+0x240>)
 80063a8:	6f5b      	ldr	r3, [r3, #116]	@ 0x74
 80063aa:	f003 0302 	and.w	r3, r3, #2
 80063ae:	2b00      	cmp	r3, #0
 80063b0:	d0f0      	beq.n	8006394 <HAL_RCC_OscConfig+0x200>
 80063b2:	e01b      	b.n	80063ec <HAL_RCC_OscConfig+0x258>
      }
    }
    else
    {
      /* Disable the Internal Low Speed oscillator (LSI). */
      __HAL_RCC_LSI_DISABLE();
 80063b4:	4b09      	ldr	r3, [pc, #36]	@ (80063dc <HAL_RCC_OscConfig+0x248>)
 80063b6:	2200      	movs	r2, #0
 80063b8:	601a      	str	r2, [r3, #0]

      /* Get Start Tick */
      tickstart = HAL_GetTick();
 80063ba:	f7fe fadd 	bl	8004978 <HAL_GetTick>
 80063be:	6138      	str	r0, [r7, #16]

      /* Wait till LSI is ready */
      while (__HAL_RCC_GET_FLAG(RCC_FLAG_LSIRDY) != RESET)
 80063c0:	e00e      	b.n	80063e0 <HAL_RCC_OscConfig+0x24c>
      {
        if ((HAL_GetTick() - tickstart) > LSI_TIMEOUT_VALUE)
 80063c2:	f7fe fad9 	bl	8004978 <HAL_GetTick>
 80063c6:	4602      	mov	r2, r0
 80063c8:	693b      	ldr	r3, [r7, #16]
 80063ca:	1ad3      	subs	r3, r2, r3
 80063cc:	2b02      	cmp	r3, #2
 80063ce:	d907      	bls.n	80063e0 <HAL_RCC_OscConfig+0x24c>
        {
          return HAL_TIMEOUT;
 80063d0:	2303      	movs	r3, #3
 80063d2:	e150      	b.n	8006676 <HAL_RCC_OscConfig+0x4e2>
 80063d4:	40023800 	.word	0x40023800
 80063d8:	42470000 	.word	0x42470000
 80063dc:	42470e80 	.word	0x42470e80
      while (__HAL_RCC_GET_FLAG(RCC_FLAG_LSIRDY) != RESET)
 80063e0:	4b88      	ldr	r3, [pc, #544]	@ (8006604 <HAL_RCC_OscConfig+0x470>)
 80063e2:	6f5b      	ldr	r3, [r3, #116]	@ 0x74
 80063e4:	f003 0302 	and.w	r3, r3, #2
 80063e8:	2b00      	cmp	r3, #0
 80063ea:	d1ea      	bne.n	80063c2 <HAL_RCC_OscConfig+0x22e>
        }
      }
    }
  }
  /*------------------------------ LSE Configuration -------------------------*/
  if (((RCC_OscInitStruct->OscillatorType) & RCC_OSCILLATORTYPE_LSE) == RCC_OSCILLATORTYPE_LSE)
 80063ec:	687b      	ldr	r3, [r7, #4]
 80063ee:	681b      	ldr	r3, [r3, #0]
 80063f0:	f003 0304 	and.w	r3, r3, #4
 80063f4:	2b00      	cmp	r3, #0
 80063f6:	f000 8097 	beq.w	8006528 <HAL_RCC_OscConfig+0x394>
  {
    FlagStatus       pwrclkchanged = RESET;
 80063fa:	2300      	movs	r3, #0
 80063fc:	75fb      	strb	r3, [r7, #23]
    /* Check the parameters */
    assert_param(IS_RCC_LSE(RCC_OscInitStruct->LSEState));

    /* Update LSE configuration in Backup Domain control register    */
    /* Requires to enable write access to Backup Domain of necessary */
    if (__HAL_RCC_PWR_IS_CLK_DISABLED())
 80063fe:	4b81      	ldr	r3, [pc, #516]	@ (8006604 <HAL_RCC_OscConfig+0x470>)
 8006400:	6c1b      	ldr	r3, [r3, #64]	@ 0x40
 8006402:	f003 5380 	and.w	r3, r3, #268435456	@ 0x10000000
 8006406:	2b00      	cmp	r3, #0
 8006408:	d10f      	bne.n	800642a <HAL_RCC_OscConfig+0x296>
    {
      __HAL_RCC_PWR_CLK_ENABLE();
 800640a:	2300      	movs	r3, #0
 800640c:	60bb      	str	r3, [r7, #8]
 800640e:	4b7d      	ldr	r3, [pc, #500]	@ (8006604 <HAL_RCC_OscConfig+0x470>)
 8006410:	6c1b      	ldr	r3, [r3, #64]	@ 0x40
 8006412:	4a7c      	ldr	r2, [pc, #496]	@ (8006604 <HAL_RCC_OscConfig+0x470>)
 8006414:	f043 5380 	orr.w	r3, r3, #268435456	@ 0x10000000
 8006418:	6413      	str	r3, [r2, #64]	@ 0x40
 800641a:	4b7a      	ldr	r3, [pc, #488]	@ (8006604 <HAL_RCC_OscConfig+0x470>)
 800641c:	6c1b      	ldr	r3, [r3, #64]	@ 0x40
 800641e:	f003 5380 	and.w	r3, r3, #268435456	@ 0x10000000
 8006422:	60bb      	str	r3, [r7, #8]
 8006424:	68bb      	ldr	r3, [r7, #8]
      pwrclkchanged = SET;
 8006426:	2301      	movs	r3, #1
 8006428:	75fb      	strb	r3, [r7, #23]
    }

    if (HAL_IS_BIT_CLR(PWR->CR, PWR_CR_DBP))
 800642a:	4b77      	ldr	r3, [pc, #476]	@ (8006608 <HAL_RCC_OscConfig+0x474>)
 800642c:	681b      	ldr	r3, [r3, #0]
 800642e:	f403 7380 	and.w	r3, r3, #256	@ 0x100
 8006432:	2b00      	cmp	r3, #0
 8006434:	d118      	bne.n	8006468 <HAL_RCC_OscConfig+0x2d4>
    {
      /* Enable write access to Backup domain */
      SET_BIT(PWR->CR, PWR_CR_DBP);
 8006436:	4b74      	ldr	r3, [pc, #464]	@ (8006608 <HAL_RCC_OscConfig+0x474>)
 8006438:	681b      	ldr	r3, [r3, #0]
 800643a:	4a73      	ldr	r2, [pc, #460]	@ (8006608 <HAL_RCC_OscConfig+0x474>)
 800643c:	f443 7380 	orr.w	r3, r3, #256	@ 0x100
 8006440:	6013      	str	r3, [r2, #0]

      /* Wait for Backup domain Write protection disable */
      tickstart = HAL_GetTick();
 8006442:	f7fe fa99 	bl	8004978 <HAL_GetTick>
 8006446:	6138      	str	r0, [r7, #16]

      while (HAL_IS_BIT_CLR(PWR->CR, PWR_CR_DBP))
 8006448:	e008      	b.n	800645c <HAL_RCC_OscConfig+0x2c8>
      {
        if ((HAL_GetTick() - tickstart) > RCC_DBP_TIMEOUT_VALUE)
 800644a:	f7fe fa95 	bl	8004978 <HAL_GetTick>
 800644e:	4602      	mov	r2, r0
 8006450:	693b      	ldr	r3, [r7, #16]
 8006452:	1ad3      	subs	r3, r2, r3
 8006454:	2b02      	cmp	r3, #2
 8006456:	d901      	bls.n	800645c <HAL_RCC_OscConfig+0x2c8>
        {
          return HAL_TIMEOUT;
 8006458:	2303      	movs	r3, #3
 800645a:	e10c      	b.n	8006676 <HAL_RCC_OscConfig+0x4e2>
      while (HAL_IS_BIT_CLR(PWR->CR, PWR_CR_DBP))
 800645c:	4b6a      	ldr	r3, [pc, #424]	@ (8006608 <HAL_RCC_OscConfig+0x474>)
 800645e:	681b      	ldr	r3, [r3, #0]
 8006460:	f403 7380 	and.w	r3, r3, #256	@ 0x100
 8006464:	2b00      	cmp	r3, #0
 8006466:	d0f0      	beq.n	800644a <HAL_RCC_OscConfig+0x2b6>
        }
      }
    }

    /* Set the new LSE configuration -----------------------------------------*/
    __HAL_RCC_LSE_CONFIG(RCC_OscInitStruct->LSEState);
 8006468:	687b      	ldr	r3, [r7, #4]
 800646a:	689b      	ldr	r3, [r3, #8]
 800646c:	2b01      	cmp	r3, #1
 800646e:	d106      	bne.n	800647e <HAL_RCC_OscConfig+0x2ea>
 8006470:	4b64      	ldr	r3, [pc, #400]	@ (8006604 <HAL_RCC_OscConfig+0x470>)
 8006472:	6f1b      	ldr	r3, [r3, #112]	@ 0x70
 8006474:	4a63      	ldr	r2, [pc, #396]	@ (8006604 <HAL_RCC_OscConfig+0x470>)
 8006476:	f043 0301 	orr.w	r3, r3, #1
 800647a:	6713      	str	r3, [r2, #112]	@ 0x70
 800647c:	e01c      	b.n	80064b8 <HAL_RCC_OscConfig+0x324>
 800647e:	687b      	ldr	r3, [r7, #4]
 8006480:	689b      	ldr	r3, [r3, #8]
 8006482:	2b05      	cmp	r3, #5
 8006484:	d10c      	bne.n	80064a0 <HAL_RCC_OscConfig+0x30c>
 8006486:	4b5f      	ldr	r3, [pc, #380]	@ (8006604 <HAL_RCC_OscConfig+0x470>)
 8006488:	6f1b      	ldr	r3, [r3, #112]	@ 0x70
 800648a:	4a5e      	ldr	r2, [pc, #376]	@ (8006604 <HAL_RCC_OscConfig+0x470>)
 800648c:	f043 0304 	orr.w	r3, r3, #4
 8006490:	6713      	str	r3, [r2, #112]	@ 0x70
 8006492:	4b5c      	ldr	r3, [pc, #368]	@ (8006604 <HAL_RCC_OscConfig+0x470>)
 8006494:	6f1b      	ldr	r3, [r3, #112]	@ 0x70
 8006496:	4a5b      	ldr	r2, [pc, #364]	@ (8006604 <HAL_RCC_OscConfig+0x470>)
 8006498:	f043 0301 	orr.w	r3, r3, #1
 800649c:	6713      	str	r3, [r2, #112]	@ 0x70
 800649e:	e00b      	b.n	80064b8 <HAL_RCC_OscConfig+0x324>
 80064a0:	4b58      	ldr	r3, [pc, #352]	@ (8006604 <HAL_RCC_OscConfig+0x470>)
 80064a2:	6f1b      	ldr	r3, [r3, #112]	@ 0x70
 80064a4:	4a57      	ldr	r2, [pc, #348]	@ (8006604 <HAL_RCC_OscConfig+0x470>)
 80064a6:	f023 0301 	bic.w	r3, r3, #1
 80064aa:	6713      	str	r3, [r2, #112]	@ 0x70
 80064ac:	4b55      	ldr	r3, [pc, #340]	@ (8006604 <HAL_RCC_OscConfig+0x470>)
 80064ae:	6f1b      	ldr	r3, [r3, #112]	@ 0x70
 80064b0:	4a54      	ldr	r2, [pc, #336]	@ (8006604 <HAL_RCC_OscConfig+0x470>)
 80064b2:	f023 0304 	bic.w	r3, r3, #4
 80064b6:	6713      	str	r3, [r2, #112]	@ 0x70
    /* Check the LSE State */
    if ((RCC_OscInitStruct->LSEState) != RCC_LSE_OFF)
 80064b8:	687b      	ldr	r3, [r7, #4]
 80064ba:	689b      	ldr	r3, [r3, #8]
 80064bc:	2b00      	cmp	r3, #0
 80064be:	d015      	beq.n	80064ec <HAL_RCC_OscConfig+0x358>
    {
      /* Get Start Tick*/
      tickstart = HAL_GetTick();
 80064c0:	f7fe fa5a 	bl	8004978 <HAL_GetTick>
 80064c4:	6138      	str	r0, [r7, #16]

      /* Wait till LSE is ready */
      while (__HAL_RCC_GET_FLAG(RCC_FLAG_LSERDY) == RESET)
 80064c6:	e00a      	b.n	80064de <HAL_RCC_OscConfig+0x34a>
      {
        if ((HAL_GetTick() - tickstart) > RCC_LSE_TIMEOUT_VALUE)
 80064c8:	f7fe fa56 	bl	8004978 <HAL_GetTick>
 80064cc:	4602      	mov	r2, r0
 80064ce:	693b      	ldr	r3, [r7, #16]
 80064d0:	1ad3      	subs	r3, r2, r3
 80064d2:	f241 3288 	movw	r2, #5000	@ 0x1388
 80064d6:	4293      	cmp	r3, r2
 80064d8:	d901      	bls.n	80064de <HAL_RCC_OscConfig+0x34a>
        {
          return HAL_TIMEOUT;
 80064da:	2303      	movs	r3, #3
 80064dc:	e0cb      	b.n	8006676 <HAL_RCC_OscConfig+0x4e2>
      while (__HAL_RCC_GET_FLAG(RCC_FLAG_LSERDY) == RESET)
 80064de:	4b49      	ldr	r3, [pc, #292]	@ (8006604 <HAL_RCC_OscConfig+0x470>)
 80064e0:	6f1b      	ldr	r3, [r3, #112]	@ 0x70
 80064e2:	f003 0302 	and.w	r3, r3, #2
 80064e6:	2b00      	cmp	r3, #0
 80064e8:	d0ee      	beq.n	80064c8 <HAL_RCC_OscConfig+0x334>
 80064ea:	e014      	b.n	8006516 <HAL_RCC_OscConfig+0x382>
      }
    }
    else
    {
      /* Get Start Tick */
      tickstart = HAL_GetTick();
 80064ec:	f7fe fa44 	bl	8004978 <HAL_GetTick>
 80064f0:	6138      	str	r0, [r7, #16]

      /* Wait till LSE is ready */
      while (__HAL_RCC_GET_FLAG(RCC_FLAG_LSERDY) != RESET)
 80064f2:	e00a      	b.n	800650a <HAL_RCC_OscConfig+0x376>
      {
        if ((HAL_GetTick() - tickstart) > RCC_LSE_TIMEOUT_VALUE)
 80064f4:	f7fe fa40 	bl	8004978 <HAL_GetTick>
 80064f8:	4602      	mov	r2, r0
 80064fa:	693b      	ldr	r3, [r7, #16]
 80064fc:	1ad3      	subs	r3, r2, r3
 80064fe:	f241 3288 	movw	r2, #5000	@ 0x1388
 8006502:	4293      	cmp	r3, r2
 8006504:	d901      	bls.n	800650a <HAL_RCC_OscConfig+0x376>
        {
          return HAL_TIMEOUT;
 8006506:	2303      	movs	r3, #3
 8006508:	e0b5      	b.n	8006676 <HAL_RCC_OscConfig+0x4e2>
      while (__HAL_RCC_GET_FLAG(RCC_FLAG_LSERDY) != RESET)
 800650a:	4b3e      	ldr	r3, [pc, #248]	@ (8006604 <HAL_RCC_OscConfig+0x470>)
 800650c:	6f1b      	ldr	r3, [r3, #112]	@ 0x70
 800650e:	f003 0302 	and.w	r3, r3, #2
 8006512:	2b00      	cmp	r3, #0
 8006514:	d1ee      	bne.n	80064f4 <HAL_RCC_OscConfig+0x360>
        }
      }
    }

    /* Restore clock configuration if changed */
    if (pwrclkchanged == SET)
 8006516:	7dfb      	ldrb	r3, [r7, #23]
 8006518:	2b01      	cmp	r3, #1
 800651a:	d105      	bne.n	8006528 <HAL_RCC_OscConfig+0x394>
    {
      __HAL_RCC_PWR_CLK_DISABLE();
 800651c:	4b39      	ldr	r3, [pc, #228]	@ (8006604 <HAL_RCC_OscConfig+0x470>)
 800651e:	6c1b      	ldr	r3, [r3, #64]	@ 0x40
 8006520:	4a38      	ldr	r2, [pc, #224]	@ (8006604 <HAL_RCC_OscConfig+0x470>)
 8006522:	f023 5380 	bic.w	r3, r3, #268435456	@ 0x10000000
 8006526:	6413      	str	r3, [r2, #64]	@ 0x40
    }
  }
  /*-------------------------------- PLL Configuration -----------------------*/
  /* Check the parameters */
  assert_param(IS_RCC_PLL(RCC_OscInitStruct->PLL.PLLState));
  if ((RCC_OscInitStruct->PLL.PLLState) != RCC_PLL_NONE)
 8006528:	687b      	ldr	r3, [r7, #4]
 800652a:	699b      	ldr	r3, [r3, #24]
 800652c:	2b00      	cmp	r3, #0
 800652e:	f000 80a1 	beq.w	8006674 <HAL_RCC_OscConfig+0x4e0>
  {
    /* Check if the PLL is used as system clock or not */
    if (__HAL_RCC_GET_SYSCLK_SOURCE() != RCC_CFGR_SWS_PLL)
 8006532:	4b34      	ldr	r3, [pc, #208]	@ (8006604 <HAL_RCC_OscConfig+0x470>)
 8006534:	689b      	ldr	r3, [r3, #8]
 8006536:	f003 030c 	and.w	r3, r3, #12
 800653a:	2b08      	cmp	r3, #8
 800653c:	d05c      	beq.n	80065f8 <HAL_RCC_OscConfig+0x464>
    {
      if ((RCC_OscInitStruct->PLL.PLLState) == RCC_PLL_ON)
 800653e:	687b      	ldr	r3, [r7, #4]
 8006540:	699b      	ldr	r3, [r3, #24]
 8006542:	2b02      	cmp	r3, #2
 8006544:	d141      	bne.n	80065ca <HAL_RCC_OscConfig+0x436>
        assert_param(IS_RCC_PLLN_VALUE(RCC_OscInitStruct->PLL.PLLN));
        assert_param(IS_RCC_PLLP_VALUE(RCC_OscInitStruct->PLL.PLLP));
        assert_param(IS_RCC_PLLQ_VALUE(RCC_OscInitStruct->PLL.PLLQ));

        /* Disable the main PLL. */
        __HAL_RCC_PLL_DISABLE();
 8006546:	4b31      	ldr	r3, [pc, #196]	@ (800660c <HAL_RCC_OscConfig+0x478>)
 8006548:	2200      	movs	r2, #0
 800654a:	601a      	str	r2, [r3, #0]

        /* Get Start Tick */
        tickstart = HAL_GetTick();
 800654c:	f7fe fa14 	bl	8004978 <HAL_GetTick>
 8006550:	6138      	str	r0, [r7, #16]

        /* Wait till PLL is disabled */
        while (__HAL_RCC_GET_FLAG(RCC_FLAG_PLLRDY) != RESET)
 8006552:	e008      	b.n	8006566 <HAL_RCC_OscConfig+0x3d2>
        {
          if ((HAL_GetTick() - tickstart) > PLL_TIMEOUT_VALUE)
 8006554:	f7fe fa10 	bl	8004978 <HAL_GetTick>
 8006558:	4602      	mov	r2, r0
 800655a:	693b      	ldr	r3, [r7, #16]
 800655c:	1ad3      	subs	r3, r2, r3
 800655e:	2b02      	cmp	r3, #2
 8006560:	d901      	bls.n	8006566 <HAL_RCC_OscConfig+0x3d2>
          {
            return HAL_TIMEOUT;
 8006562:	2303      	movs	r3, #3
 8006564:	e087      	b.n	8006676 <HAL_RCC_OscConfig+0x4e2>
        while (__HAL_RCC_GET_FLAG(RCC_FLAG_PLLRDY) != RESET)
 8006566:	4b27      	ldr	r3, [pc, #156]	@ (8006604 <HAL_RCC_OscConfig+0x470>)
 8006568:	681b      	ldr	r3, [r3, #0]
 800656a:	f003 7300 	and.w	r3, r3, #33554432	@ 0x2000000
 800656e:	2b00      	cmp	r3, #0
 8006570:	d1f0      	bne.n	8006554 <HAL_RCC_OscConfig+0x3c0>
          }
        }

        /* Configure the main PLL clock source, multiplication and division factors. */
        WRITE_REG(RCC->PLLCFGR, (RCC_OscInitStruct->PLL.PLLSource                                            | \
 8006572:	687b      	ldr	r3, [r7, #4]
 8006574:	69da      	ldr	r2, [r3, #28]
 8006576:	687b      	ldr	r3, [r7, #4]
 8006578:	6a1b      	ldr	r3, [r3, #32]
 800657a:	431a      	orrs	r2, r3
 800657c:	687b      	ldr	r3, [r7, #4]
 800657e:	6a5b      	ldr	r3, [r3, #36]	@ 0x24
 8006580:	019b      	lsls	r3, r3, #6
 8006582:	431a      	orrs	r2, r3
 8006584:	687b      	ldr	r3, [r7, #4]
 8006586:	6a9b      	ldr	r3, [r3, #40]	@ 0x28
 8006588:	085b      	lsrs	r3, r3, #1
 800658a:	3b01      	subs	r3, #1
 800658c:	041b      	lsls	r3, r3, #16
 800658e:	431a      	orrs	r2, r3
 8006590:	687b      	ldr	r3, [r7, #4]
 8006592:	6adb      	ldr	r3, [r3, #44]	@ 0x2c
 8006594:	061b      	lsls	r3, r3, #24
 8006596:	491b      	ldr	r1, [pc, #108]	@ (8006604 <HAL_RCC_OscConfig+0x470>)
 8006598:	4313      	orrs	r3, r2
 800659a:	604b      	str	r3, [r1, #4]
                                 RCC_OscInitStruct->PLL.PLLM                                                 | \
                                 (RCC_OscInitStruct->PLL.PLLN << RCC_PLLCFGR_PLLN_Pos)             | \
                                 (((RCC_OscInitStruct->PLL.PLLP >> 1U) - 1U) << RCC_PLLCFGR_PLLP_Pos) | \
                                 (RCC_OscInitStruct->PLL.PLLQ << RCC_PLLCFGR_PLLQ_Pos)));
        /* Enable the main PLL. */
        __HAL_RCC_PLL_ENABLE();
 800659c:	4b1b      	ldr	r3, [pc, #108]	@ (800660c <HAL_RCC_OscConfig+0x478>)
 800659e:	2201      	movs	r2, #1
 80065a0:	601a      	str	r2, [r3, #0]

        /* Get Start Tick */
        tickstart = HAL_GetTick();
 80065a2:	f7fe f9e9 	bl	8004978 <HAL_GetTick>
 80065a6:	6138      	str	r0, [r7, #16]

        /* Wait till PLL is ready */
        while (__HAL_RCC_GET_FLAG(RCC_FLAG_PLLRDY) == RESET)
 80065a8:	e008      	b.n	80065bc <HAL_RCC_OscConfig+0x428>
        {
          if ((HAL_GetTick() - tickstart) > PLL_TIMEOUT_VALUE)
 80065aa:	f7fe f9e5 	bl	8004978 <HAL_GetTick>
 80065ae:	4602      	mov	r2, r0
 80065b0:	693b      	ldr	r3, [r7, #16]
 80065b2:	1ad3      	subs	r3, r2, r3
 80065b4:	2b02      	cmp	r3, #2
 80065b6:	d901      	bls.n	80065bc <HAL_RCC_OscConfig+0x428>
          {
            return HAL_TIMEOUT;
 80065b8:	2303      	movs	r3, #3
 80065ba:	e05c      	b.n	8006676 <HAL_RCC_OscConfig+0x4e2>
        while (__HAL_RCC_GET_FLAG(RCC_FLAG_PLLRDY) == RESET)
 80065bc:	4b11      	ldr	r3, [pc, #68]	@ (8006604 <HAL_RCC_OscConfig+0x470>)
 80065be:	681b      	ldr	r3, [r3, #0]
 80065c0:	f003 7300 	and.w	r3, r3, #33554432	@ 0x2000000
 80065c4:	2b00      	cmp	r3, #0
 80065c6:	d0f0      	beq.n	80065aa <HAL_RCC_OscConfig+0x416>
 80065c8:	e054      	b.n	8006674 <HAL_RCC_OscConfig+0x4e0>
        }
      }
      else
      {
        /* Disable the main PLL. */
        __HAL_RCC_PLL_DISABLE();
 80065ca:	4b10      	ldr	r3, [pc, #64]	@ (800660c <HAL_RCC_OscConfig+0x478>)
 80065cc:	2200      	movs	r2, #0
 80065ce:	601a      	str	r2, [r3, #0]

        /* Get Start Tick */
        tickstart = HAL_GetTick();
 80065d0:	f7fe f9d2 	bl	8004978 <HAL_GetTick>
 80065d4:	6138      	str	r0, [r7, #16]

        /* Wait till PLL is disabled */
        while (__HAL_RCC_GET_FLAG(RCC_FLAG_PLLRDY) != RESET)
 80065d6:	e008      	b.n	80065ea <HAL_RCC_OscConfig+0x456>
        {
          if ((HAL_GetTick() - tickstart) > PLL_TIMEOUT_VALUE)
 80065d8:	f7fe f9ce 	bl	8004978 <HAL_GetTick>
 80065dc:	4602      	mov	r2, r0
 80065de:	693b      	ldr	r3, [r7, #16]
 80065e0:	1ad3      	subs	r3, r2, r3
 80065e2:	2b02      	cmp	r3, #2
 80065e4:	d901      	bls.n	80065ea <HAL_RCC_OscConfig+0x456>
          {
            return HAL_TIMEOUT;
 80065e6:	2303      	movs	r3, #3
 80065e8:	e045      	b.n	8006676 <HAL_RCC_OscConfig+0x4e2>
        while (__HAL_RCC_GET_FLAG(RCC_FLAG_PLLRDY) != RESET)
 80065ea:	4b06      	ldr	r3, [pc, #24]	@ (8006604 <HAL_RCC_OscConfig+0x470>)
 80065ec:	681b      	ldr	r3, [r3, #0]
 80065ee:	f003 7300 	and.w	r3, r3, #33554432	@ 0x2000000
 80065f2:	2b00      	cmp	r3, #0
 80065f4:	d1f0      	bne.n	80065d8 <HAL_RCC_OscConfig+0x444>
 80065f6:	e03d      	b.n	8006674 <HAL_RCC_OscConfig+0x4e0>
      }
    }
    else
    {
      /* Check if there is a request to disable the PLL used as System clock source */
      if ((RCC_OscInitStruct->PLL.PLLState) == RCC_PLL_OFF)
 80065f8:	687b      	ldr	r3, [r7, #4]
 80065fa:	699b      	ldr	r3, [r3, #24]
 80065fc:	2b01      	cmp	r3, #1
 80065fe:	d107      	bne.n	8006610 <HAL_RCC_OscConfig+0x47c>
      {
        return HAL_ERROR;
 8006600:	2301      	movs	r3, #1
 8006602:	e038      	b.n	8006676 <HAL_RCC_OscConfig+0x4e2>
 8006604:	40023800 	.word	0x40023800
 8006608:	40007000 	.word	0x40007000
 800660c:	42470060 	.word	0x42470060
      }
      else
      {
        /* Do not return HAL_ERROR if request repeats the current configuration */
        pll_config = RCC->PLLCFGR;
 8006610:	4b1b      	ldr	r3, [pc, #108]	@ (8006680 <HAL_RCC_OscConfig+0x4ec>)
 8006612:	685b      	ldr	r3, [r3, #4]
 8006614:	60fb      	str	r3, [r7, #12]
            (READ_BIT(pll_config, RCC_PLLCFGR_PLLN) != (RCC_OscInitStruct->PLL.PLLN) << RCC_PLLCFGR_PLLN_Pos) ||
            (READ_BIT(pll_config, RCC_PLLCFGR_PLLP) != (((RCC_OscInitStruct->PLL.PLLP >> 1U) - 1U)) << RCC_PLLCFGR_PLLP_Pos) ||
            (READ_BIT(pll_config, RCC_PLLCFGR_PLLQ) != (RCC_OscInitStruct->PLL.PLLQ << RCC_PLLCFGR_PLLQ_Pos)) ||
            (READ_BIT(pll_config, RCC_PLLCFGR_PLLR) != (RCC_OscInitStruct->PLL.PLLR << RCC_PLLCFGR_PLLR_Pos)))
#else
        if (((RCC_OscInitStruct->PLL.PLLState) == RCC_PLL_OFF) ||
 8006616:	687b      	ldr	r3, [r7, #4]
 8006618:	699b      	ldr	r3, [r3, #24]
 800661a:	2b01      	cmp	r3, #1
 800661c:	d028      	beq.n	8006670 <HAL_RCC_OscConfig+0x4dc>
            (READ_BIT(pll_config, RCC_PLLCFGR_PLLSRC) != RCC_OscInitStruct->PLL.PLLSource) ||
 800661e:	68fb      	ldr	r3, [r7, #12]
 8006620:	f403 0280 	and.w	r2, r3, #4194304	@ 0x400000
 8006624:	687b      	ldr	r3, [r7, #4]
 8006626:	69db      	ldr	r3, [r3, #28]
        if (((RCC_OscInitStruct->PLL.PLLState) == RCC_PLL_OFF) ||
 8006628:	429a      	cmp	r2, r3
 800662a:	d121      	bne.n	8006670 <HAL_RCC_OscConfig+0x4dc>
            (READ_BIT(pll_config, RCC_PLLCFGR_PLLM) != (RCC_OscInitStruct->PLL.PLLM) << RCC_PLLCFGR_PLLM_Pos) ||
 800662c:	68fb      	ldr	r3, [r7, #12]
 800662e:	f003 023f 	and.w	r2, r3, #63	@ 0x3f
 8006632:	687b      	ldr	r3, [r7, #4]
 8006634:	6a1b      	ldr	r3, [r3, #32]
            (READ_BIT(pll_config, RCC_PLLCFGR_PLLSRC) != RCC_OscInitStruct->PLL.PLLSource) ||
 8006636:	429a      	cmp	r2, r3
 8006638:	d11a      	bne.n	8006670 <HAL_RCC_OscConfig+0x4dc>
            (READ_BIT(pll_config, RCC_PLLCFGR_PLLN) != (RCC_OscInitStruct->PLL.PLLN) << RCC_PLLCFGR_PLLN_Pos) ||
 800663a:	68fa      	ldr	r2, [r7, #12]
 800663c:	f647 73c0 	movw	r3, #32704	@ 0x7fc0
 8006640:	4013      	ands	r3, r2
 8006642:	687a      	ldr	r2, [r7, #4]
 8006644:	6a52      	ldr	r2, [r2, #36]	@ 0x24
 8006646:	0192      	lsls	r2, r2, #6
            (READ_BIT(pll_config, RCC_PLLCFGR_PLLM) != (RCC_OscInitStruct->PLL.PLLM) << RCC_PLLCFGR_PLLM_Pos) ||
 8006648:	4293      	cmp	r3, r2
 800664a:	d111      	bne.n	8006670 <HAL_RCC_OscConfig+0x4dc>
            (READ_BIT(pll_config, RCC_PLLCFGR_PLLP) != (((RCC_OscInitStruct->PLL.PLLP >> 1U) - 1U)) << RCC_PLLCFGR_PLLP_Pos) ||
 800664c:	68fb      	ldr	r3, [r7, #12]
 800664e:	f403 3240 	and.w	r2, r3, #196608	@ 0x30000
 8006652:	687b      	ldr	r3, [r7, #4]
 8006654:	6a9b      	ldr	r3, [r3, #40]	@ 0x28
 8006656:	085b      	lsrs	r3, r3, #1
 8006658:	3b01      	subs	r3, #1
 800665a:	041b      	lsls	r3, r3, #16
            (READ_BIT(pll_config, RCC_PLLCFGR_PLLN) != (RCC_OscInitStruct->PLL.PLLN) << RCC_PLLCFGR_PLLN_Pos) ||
 800665c:	429a      	cmp	r2, r3
 800665e:	d107      	bne.n	8006670 <HAL_RCC_OscConfig+0x4dc>
            (READ_BIT(pll_config, RCC_PLLCFGR_PLLQ) != (RCC_OscInitStruct->PLL.PLLQ << RCC_PLLCFGR_PLLQ_Pos)))
 8006660:	68fb      	ldr	r3, [r7, #12]
 8006662:	f003 6270 	and.w	r2, r3, #251658240	@ 0xf000000
 8006666:	687b      	ldr	r3, [r7, #4]
 8006668:	6adb      	ldr	r3, [r3, #44]	@ 0x2c
 800666a:	061b      	lsls	r3, r3, #24
            (READ_BIT(pll_config, RCC_PLLCFGR_PLLP) != (((RCC_OscInitStruct->PLL.PLLP >> 1U) - 1U)) << RCC_PLLCFGR_PLLP_Pos) ||
 800666c:	429a      	cmp	r2, r3
 800666e:	d001      	beq.n	8006674 <HAL_RCC_OscConfig+0x4e0>
#endif /* RCC_PLLCFGR_PLLR */
        {
          return HAL_ERROR;
 8006670:	2301      	movs	r3, #1
 8006672:	e000      	b.n	8006676 <HAL_RCC_OscConfig+0x4e2>
        }
      }
    }
  }
  return HAL_OK;
 8006674:	2300      	movs	r3, #0
}
 8006676:	4618      	mov	r0, r3
 8006678:	3718      	adds	r7, #24
 800667a:	46bd      	mov	sp, r7
 800667c:	bd80      	pop	{r7, pc}
 800667e:	bf00      	nop
 8006680:	40023800 	.word	0x40023800

08006684 <HAL_RCC_ClockConfig>:
  *         HPRE[3:0] bits to ensure that HCLK not exceed the maximum allowed frequency
  *         (for more details refer to section above "Initialization/de-initialization functions")
  * @retval None
  */
HAL_StatusTypeDef HAL_RCC_ClockConfig(const RCC_ClkInitTypeDef  *RCC_ClkInitStruct, uint32_t FLatency)
{
 8006684:	b580      	push	{r7, lr}
 8006686:	b084      	sub	sp, #16
 8006688:	af00      	add	r7, sp, #0
 800668a:	6078      	str	r0, [r7, #4]
 800668c:	6039      	str	r1, [r7, #0]
  uint32_t tickstart;

  /* Check Null pointer */
  if (RCC_ClkInitStruct == NULL)
 800668e:	687b      	ldr	r3, [r7, #4]
 8006690:	2b00      	cmp	r3, #0
 8006692:	d101      	bne.n	8006698 <HAL_RCC_ClockConfig+0x14>
  {
    return HAL_ERROR;
 8006694:	2301      	movs	r3, #1
 8006696:	e0cc      	b.n	8006832 <HAL_RCC_ClockConfig+0x1ae>
  /* To correctly read data from FLASH memory, the number of wait states (LATENCY)
    must be correctly programmed according to the frequency of the CPU clock
    (HCLK) and the supply voltage of the device. */

  /* Increasing the number of wait states because of higher CPU frequency */
  if (FLatency > __HAL_FLASH_GET_LATENCY())
 8006698:	4b68      	ldr	r3, [pc, #416]	@ (800683c <HAL_RCC_ClockConfig+0x1b8>)
 800669a:	681b      	ldr	r3, [r3, #0]
 800669c:	f003 0307 	and.w	r3, r3, #7
 80066a0:	683a      	ldr	r2, [r7, #0]
 80066a2:	429a      	cmp	r2, r3
 80066a4:	d90c      	bls.n	80066c0 <HAL_RCC_ClockConfig+0x3c>
  {
    /* Program the new number of wait states to the LATENCY bits in the FLASH_ACR register */
    __HAL_FLASH_SET_LATENCY(FLatency);
 80066a6:	4b65      	ldr	r3, [pc, #404]	@ (800683c <HAL_RCC_ClockConfig+0x1b8>)
 80066a8:	683a      	ldr	r2, [r7, #0]
 80066aa:	b2d2      	uxtb	r2, r2
 80066ac:	701a      	strb	r2, [r3, #0]

    /* Check that the new number of wait states is taken into account to access the Flash
    memory by reading the FLASH_ACR register */
    if (__HAL_FLASH_GET_LATENCY() != FLatency)
 80066ae:	4b63      	ldr	r3, [pc, #396]	@ (800683c <HAL_RCC_ClockConfig+0x1b8>)
 80066b0:	681b      	ldr	r3, [r3, #0]
 80066b2:	f003 0307 	and.w	r3, r3, #7
 80066b6:	683a      	ldr	r2, [r7, #0]
 80066b8:	429a      	cmp	r2, r3
 80066ba:	d001      	beq.n	80066c0 <HAL_RCC_ClockConfig+0x3c>
    {
      return HAL_ERROR;
 80066bc:	2301      	movs	r3, #1
 80066be:	e0b8      	b.n	8006832 <HAL_RCC_ClockConfig+0x1ae>
    }
  }

  /*-------------------------- HCLK Configuration --------------------------*/
  if (((RCC_ClkInitStruct->ClockType) & RCC_CLOCKTYPE_HCLK) == RCC_CLOCKTYPE_HCLK)
 80066c0:	687b      	ldr	r3, [r7, #4]
 80066c2:	681b      	ldr	r3, [r3, #0]
 80066c4:	f003 0302 	and.w	r3, r3, #2
 80066c8:	2b00      	cmp	r3, #0
 80066ca:	d020      	beq.n	800670e <HAL_RCC_ClockConfig+0x8a>
  {
    /* Set the highest APBx dividers in order to ensure that we do not go through
       a non-spec phase whatever we decrease or increase HCLK. */
    if (((RCC_ClkInitStruct->ClockType) & RCC_CLOCKTYPE_PCLK1) == RCC_CLOCKTYPE_PCLK1)
 80066cc:	687b      	ldr	r3, [r7, #4]
 80066ce:	681b      	ldr	r3, [r3, #0]
 80066d0:	f003 0304 	and.w	r3, r3, #4
 80066d4:	2b00      	cmp	r3, #0
 80066d6:	d005      	beq.n	80066e4 <HAL_RCC_ClockConfig+0x60>
    {
      MODIFY_REG(RCC->CFGR, RCC_CFGR_PPRE1, RCC_HCLK_DIV16);
 80066d8:	4b59      	ldr	r3, [pc, #356]	@ (8006840 <HAL_RCC_ClockConfig+0x1bc>)
 80066da:	689b      	ldr	r3, [r3, #8]
 80066dc:	4a58      	ldr	r2, [pc, #352]	@ (8006840 <HAL_RCC_ClockConfig+0x1bc>)
 80066de:	f443 53e0 	orr.w	r3, r3, #7168	@ 0x1c00
 80066e2:	6093      	str	r3, [r2, #8]
    }

    if (((RCC_ClkInitStruct->ClockType) & RCC_CLOCKTYPE_PCLK2) == RCC_CLOCKTYPE_PCLK2)
 80066e4:	687b      	ldr	r3, [r7, #4]
 80066e6:	681b      	ldr	r3, [r3, #0]
 80066e8:	f003 0308 	and.w	r3, r3, #8
 80066ec:	2b00      	cmp	r3, #0
 80066ee:	d005      	beq.n	80066fc <HAL_RCC_ClockConfig+0x78>
    {
      MODIFY_REG(RCC->CFGR, RCC_CFGR_PPRE2, (RCC_HCLK_DIV16 << 3));
 80066f0:	4b53      	ldr	r3, [pc, #332]	@ (8006840 <HAL_RCC_ClockConfig+0x1bc>)
 80066f2:	689b      	ldr	r3, [r3, #8]
 80066f4:	4a52      	ldr	r2, [pc, #328]	@ (8006840 <HAL_RCC_ClockConfig+0x1bc>)
 80066f6:	f443 4360 	orr.w	r3, r3, #57344	@ 0xe000
 80066fa:	6093      	str	r3, [r2, #8]
    }

    assert_param(IS_RCC_HCLK(RCC_ClkInitStruct->AHBCLKDivider));
    MODIFY_REG(RCC->CFGR, RCC_CFGR_HPRE, RCC_ClkInitStruct->AHBCLKDivider);
 80066fc:	4b50      	ldr	r3, [pc, #320]	@ (8006840 <HAL_RCC_ClockConfig+0x1bc>)
 80066fe:	689b      	ldr	r3, [r3, #8]
 8006700:	f023 02f0 	bic.w	r2, r3, #240	@ 0xf0
 8006704:	687b      	ldr	r3, [r7, #4]
 8006706:	689b      	ldr	r3, [r3, #8]
 8006708:	494d      	ldr	r1, [pc, #308]	@ (8006840 <HAL_RCC_ClockConfig+0x1bc>)
 800670a:	4313      	orrs	r3, r2
 800670c:	608b      	str	r3, [r1, #8]
  }

  /*------------------------- SYSCLK Configuration ---------------------------*/
  if (((RCC_ClkInitStruct->ClockType) & RCC_CLOCKTYPE_SYSCLK) == RCC_CLOCKTYPE_SYSCLK)
 800670e:	687b      	ldr	r3, [r7, #4]
 8006710:	681b      	ldr	r3, [r3, #0]
 8006712:	f003 0301 	and.w	r3, r3, #1
 8006716:	2b00      	cmp	r3, #0
 8006718:	d044      	beq.n	80067a4 <HAL_RCC_ClockConfig+0x120>
  {
    assert_param(IS_RCC_SYSCLKSOURCE(RCC_ClkInitStruct->SYSCLKSource));

    /* HSE is selected as System Clock Source */
    if (RCC_ClkInitStruct->SYSCLKSource == RCC_SYSCLKSOURCE_HSE)
 800671a:	687b      	ldr	r3, [r7, #4]
 800671c:	685b      	ldr	r3, [r3, #4]
 800671e:	2b01      	cmp	r3, #1
 8006720:	d107      	bne.n	8006732 <HAL_RCC_ClockConfig+0xae>
    {
      /* Check the HSE ready flag */
      if (__HAL_RCC_GET_FLAG(RCC_FLAG_HSERDY) == RESET)
 8006722:	4b47      	ldr	r3, [pc, #284]	@ (8006840 <HAL_RCC_ClockConfig+0x1bc>)
 8006724:	681b      	ldr	r3, [r3, #0]
 8006726:	f403 3300 	and.w	r3, r3, #131072	@ 0x20000
 800672a:	2b00      	cmp	r3, #0
 800672c:	d119      	bne.n	8006762 <HAL_RCC_ClockConfig+0xde>
      {
        return HAL_ERROR;
 800672e:	2301      	movs	r3, #1
 8006730:	e07f      	b.n	8006832 <HAL_RCC_ClockConfig+0x1ae>
      }
    }
    /* PLL is selected as System Clock Source */
    else if ((RCC_ClkInitStruct->SYSCLKSource == RCC_SYSCLKSOURCE_PLLCLK)   ||
 8006732:	687b      	ldr	r3, [r7, #4]
 8006734:	685b      	ldr	r3, [r3, #4]
 8006736:	2b02      	cmp	r3, #2
 8006738:	d003      	beq.n	8006742 <HAL_RCC_ClockConfig+0xbe>
             (RCC_ClkInitStruct->SYSCLKSource == RCC_SYSCLKSOURCE_PLLRCLK))
 800673a:	687b      	ldr	r3, [r7, #4]
 800673c:	685b      	ldr	r3, [r3, #4]
    else if ((RCC_ClkInitStruct->SYSCLKSource == RCC_SYSCLKSOURCE_PLLCLK)   ||
 800673e:	2b03      	cmp	r3, #3
 8006740:	d107      	bne.n	8006752 <HAL_RCC_ClockConfig+0xce>
    {
      /* Check the PLL ready flag */
      if (__HAL_RCC_GET_FLAG(RCC_FLAG_PLLRDY) == RESET)
 8006742:	4b3f      	ldr	r3, [pc, #252]	@ (8006840 <HAL_RCC_ClockConfig+0x1bc>)
 8006744:	681b      	ldr	r3, [r3, #0]
 8006746:	f003 7300 	and.w	r3, r3, #33554432	@ 0x2000000
 800674a:	2b00      	cmp	r3, #0
 800674c:	d109      	bne.n	8006762 <HAL_RCC_ClockConfig+0xde>
      {
        return HAL_ERROR;
 800674e:	2301      	movs	r3, #1
 8006750:	e06f      	b.n	8006832 <HAL_RCC_ClockConfig+0x1ae>
    }
    /* HSI is selected as System Clock Source */
    else
    {
      /* Check the HSI ready flag */
      if (__HAL_RCC_GET_FLAG(RCC_FLAG_HSIRDY) == RESET)
 8006752:	4b3b      	ldr	r3, [pc, #236]	@ (8006840 <HAL_RCC_ClockConfig+0x1bc>)
 8006754:	681b      	ldr	r3, [r3, #0]
 8006756:	f003 0302 	and.w	r3, r3, #2
 800675a:	2b00      	cmp	r3, #0
 800675c:	d101      	bne.n	8006762 <HAL_RCC_ClockConfig+0xde>
      {
        return HAL_ERROR;
 800675e:	2301      	movs	r3, #1
 8006760:	e067      	b.n	8006832 <HAL_RCC_ClockConfig+0x1ae>
      }
    }

    __HAL_RCC_SYSCLK_CONFIG(RCC_ClkInitStruct->SYSCLKSource);
 8006762:	4b37      	ldr	r3, [pc, #220]	@ (8006840 <HAL_RCC_ClockConfig+0x1bc>)
 8006764:	689b      	ldr	r3, [r3, #8]
 8006766:	f023 0203 	bic.w	r2, r3, #3
 800676a:	687b      	ldr	r3, [r7, #4]
 800676c:	685b      	ldr	r3, [r3, #4]
 800676e:	4934      	ldr	r1, [pc, #208]	@ (8006840 <HAL_RCC_ClockConfig+0x1bc>)
 8006770:	4313      	orrs	r3, r2
 8006772:	608b      	str	r3, [r1, #8]

    /* Get Start Tick */
    tickstart = HAL_GetTick();
 8006774:	f7fe f900 	bl	8004978 <HAL_GetTick>
 8006778:	60f8      	str	r0, [r7, #12]

    while (__HAL_RCC_GET_SYSCLK_SOURCE() != (RCC_ClkInitStruct->SYSCLKSource << RCC_CFGR_SWS_Pos))
 800677a:	e00a      	b.n	8006792 <HAL_RCC_ClockConfig+0x10e>
    {
      if ((HAL_GetTick() - tickstart) > CLOCKSWITCH_TIMEOUT_VALUE)
 800677c:	f7fe f8fc 	bl	8004978 <HAL_GetTick>
 8006780:	4602      	mov	r2, r0
 8006782:	68fb      	ldr	r3, [r7, #12]
 8006784:	1ad3      	subs	r3, r2, r3
 8006786:	f241 3288 	movw	r2, #5000	@ 0x1388
 800678a:	4293      	cmp	r3, r2
 800678c:	d901      	bls.n	8006792 <HAL_RCC_ClockConfig+0x10e>
      {
        return HAL_TIMEOUT;
 800678e:	2303      	movs	r3, #3
 8006790:	e04f      	b.n	8006832 <HAL_RCC_ClockConfig+0x1ae>
    while (__HAL_RCC_GET_SYSCLK_SOURCE() != (RCC_ClkInitStruct->SYSCLKSource << RCC_CFGR_SWS_Pos))
 8006792:	4b2b      	ldr	r3, [pc, #172]	@ (8006840 <HAL_RCC_ClockConfig+0x1bc>)
 8006794:	689b      	ldr	r3, [r3, #8]
 8006796:	f003 020c 	and.w	r2, r3, #12
 800679a:	687b      	ldr	r3, [r7, #4]
 800679c:	685b      	ldr	r3, [r3, #4]
 800679e:	009b      	lsls	r3, r3, #2
 80067a0:	429a      	cmp	r2, r3
 80067a2:	d1eb      	bne.n	800677c <HAL_RCC_ClockConfig+0xf8>
      }
    }
  }

  /* Decreasing the number of wait states because of lower CPU frequency */
  if (FLatency < __HAL_FLASH_GET_LATENCY())
 80067a4:	4b25      	ldr	r3, [pc, #148]	@ (800683c <HAL_RCC_ClockConfig+0x1b8>)
 80067a6:	681b      	ldr	r3, [r3, #0]
 80067a8:	f003 0307 	and.w	r3, r3, #7
 80067ac:	683a      	ldr	r2, [r7, #0]
 80067ae:	429a      	cmp	r2, r3
 80067b0:	d20c      	bcs.n	80067cc <HAL_RCC_ClockConfig+0x148>
  {
    /* Program the new number of wait states to the LATENCY bits in the FLASH_ACR register */
    __HAL_FLASH_SET_LATENCY(FLatency);
 80067b2:	4b22      	ldr	r3, [pc, #136]	@ (800683c <HAL_RCC_ClockConfig+0x1b8>)
 80067b4:	683a      	ldr	r2, [r7, #0]
 80067b6:	b2d2      	uxtb	r2, r2
 80067b8:	701a      	strb	r2, [r3, #0]

    /* Check that the new number of wait states is taken into account to access the Flash
    memory by reading the FLASH_ACR register */
    if (__HAL_FLASH_GET_LATENCY() != FLatency)
 80067ba:	4b20      	ldr	r3, [pc, #128]	@ (800683c <HAL_RCC_ClockConfig+0x1b8>)
 80067bc:	681b      	ldr	r3, [r3, #0]
 80067be:	f003 0307 	and.w	r3, r3, #7
 80067c2:	683a      	ldr	r2, [r7, #0]
 80067c4:	429a      	cmp	r2, r3
 80067c6:	d001      	beq.n	80067cc <HAL_RCC_ClockConfig+0x148>
    {
      return HAL_ERROR;
 80067c8:	2301      	movs	r3, #1
 80067ca:	e032      	b.n	8006832 <HAL_RCC_ClockConfig+0x1ae>
    }
  }

  /*-------------------------- PCLK1 Configuration ---------------------------*/
  if (((RCC_ClkInitStruct->ClockType) & RCC_CLOCKTYPE_PCLK1) == RCC_CLOCKTYPE_PCLK1)
 80067cc:	687b      	ldr	r3, [r7, #4]
 80067ce:	681b      	ldr	r3, [r3, #0]
 80067d0:	f003 0304 	and.w	r3, r3, #4
 80067d4:	2b00      	cmp	r3, #0
 80067d6:	d008      	beq.n	80067ea <HAL_RCC_ClockConfig+0x166>
  {
    assert_param(IS_RCC_PCLK(RCC_ClkInitStruct->APB1CLKDivider));
    MODIFY_REG(RCC->CFGR, RCC_CFGR_PPRE1, RCC_ClkInitStruct->APB1CLKDivider);
 80067d8:	4b19      	ldr	r3, [pc, #100]	@ (8006840 <HAL_RCC_ClockConfig+0x1bc>)
 80067da:	689b      	ldr	r3, [r3, #8]
 80067dc:	f423 52e0 	bic.w	r2, r3, #7168	@ 0x1c00
 80067e0:	687b      	ldr	r3, [r7, #4]
 80067e2:	68db      	ldr	r3, [r3, #12]
 80067e4:	4916      	ldr	r1, [pc, #88]	@ (8006840 <HAL_RCC_ClockConfig+0x1bc>)
 80067e6:	4313      	orrs	r3, r2
 80067e8:	608b      	str	r3, [r1, #8]
  }

  /*-------------------------- PCLK2 Configuration ---------------------------*/
  if (((RCC_ClkInitStruct->ClockType) & RCC_CLOCKTYPE_PCLK2) == RCC_CLOCKTYPE_PCLK2)
 80067ea:	687b      	ldr	r3, [r7, #4]
 80067ec:	681b      	ldr	r3, [r3, #0]
 80067ee:	f003 0308 	and.w	r3, r3, #8
 80067f2:	2b00      	cmp	r3, #0
 80067f4:	d009      	beq.n	800680a <HAL_RCC_ClockConfig+0x186>
  {
    assert_param(IS_RCC_PCLK(RCC_ClkInitStruct->APB2CLKDivider));
    MODIFY_REG(RCC->CFGR, RCC_CFGR_PPRE2, ((RCC_ClkInitStruct->APB2CLKDivider) << 3U));
 80067f6:	4b12      	ldr	r3, [pc, #72]	@ (8006840 <HAL_RCC_ClockConfig+0x1bc>)
 80067f8:	689b      	ldr	r3, [r3, #8]
 80067fa:	f423 4260 	bic.w	r2, r3, #57344	@ 0xe000
 80067fe:	687b      	ldr	r3, [r7, #4]
 8006800:	691b      	ldr	r3, [r3, #16]
 8006802:	00db      	lsls	r3, r3, #3
 8006804:	490e      	ldr	r1, [pc, #56]	@ (8006840 <HAL_RCC_ClockConfig+0x1bc>)
 8006806:	4313      	orrs	r3, r2
 8006808:	608b      	str	r3, [r1, #8]
  }

  /* Update the SystemCoreClock global variable */
  SystemCoreClock = HAL_RCC_GetSysClockFreq() >> AHBPrescTable[(RCC->CFGR & RCC_CFGR_HPRE) >> RCC_CFGR_HPRE_Pos];
 800680a:	f000 f821 	bl	8006850 <HAL_RCC_GetSysClockFreq>
 800680e:	4602      	mov	r2, r0
 8006810:	4b0b      	ldr	r3, [pc, #44]	@ (8006840 <HAL_RCC_ClockConfig+0x1bc>)
 8006812:	689b      	ldr	r3, [r3, #8]
 8006814:	091b      	lsrs	r3, r3, #4
 8006816:	f003 030f 	and.w	r3, r3, #15
 800681a:	490a      	ldr	r1, [pc, #40]	@ (8006844 <HAL_RCC_ClockConfig+0x1c0>)
 800681c:	5ccb      	ldrb	r3, [r1, r3]
 800681e:	fa22 f303 	lsr.w	r3, r2, r3
 8006822:	4a09      	ldr	r2, [pc, #36]	@ (8006848 <HAL_RCC_ClockConfig+0x1c4>)
 8006824:	6013      	str	r3, [r2, #0]

  /* Configure the source of time base considering new system clocks settings */
  HAL_InitTick(uwTickPrio);
 8006826:	4b09      	ldr	r3, [pc, #36]	@ (800684c <HAL_RCC_ClockConfig+0x1c8>)
 8006828:	681b      	ldr	r3, [r3, #0]
 800682a:	4618      	mov	r0, r3
 800682c:	f7fe f860 	bl	80048f0 <HAL_InitTick>

  return HAL_OK;
 8006830:	2300      	movs	r3, #0
}
 8006832:	4618      	mov	r0, r3
 8006834:	3710      	adds	r7, #16
 8006836:	46bd      	mov	sp, r7
 8006838:	bd80      	pop	{r7, pc}
 800683a:	bf00      	nop
 800683c:	40023c00 	.word	0x40023c00
 8006840:	40023800 	.word	0x40023800
 8006844:	0800aeac 	.word	0x0800aeac
 8006848:	20002004 	.word	0x20002004
 800684c:	20002008 	.word	0x20002008

08006850 <HAL_RCC_GetSysClockFreq>:
  *
  *
  * @retval SYSCLK frequency
  */
__weak uint32_t HAL_RCC_GetSysClockFreq(void)
{
 8006850:	e92d 4fb0 	stmdb	sp!, {r4, r5, r7, r8, r9, sl, fp, lr}
 8006854:	b090      	sub	sp, #64	@ 0x40
 8006856:	af00      	add	r7, sp, #0
  uint32_t pllm = 0U;
 8006858:	2300      	movs	r3, #0
 800685a:	637b      	str	r3, [r7, #52]	@ 0x34
  uint32_t pllvco = 0U;
 800685c:	2300      	movs	r3, #0
 800685e:	63fb      	str	r3, [r7, #60]	@ 0x3c
  uint32_t pllp = 0U;
 8006860:	2300      	movs	r3, #0
 8006862:	633b      	str	r3, [r7, #48]	@ 0x30
  uint32_t sysclockfreq = 0U;
 8006864:	2300      	movs	r3, #0
 8006866:	63bb      	str	r3, [r7, #56]	@ 0x38

  /* Get SYSCLK source -------------------------------------------------------*/
  switch (RCC->CFGR & RCC_CFGR_SWS)
 8006868:	4b58      	ldr	r3, [pc, #352]	@ (80069cc <HAL_RCC_GetSysClockFreq+0x17c>)
 800686a:	689b      	ldr	r3, [r3, #8]
 800686c:	f003 030c 	and.w	r3, r3, #12
 8006870:	2b08      	cmp	r3, #8
 8006872:	d00d      	beq.n	8006890 <HAL_RCC_GetSysClockFreq+0x40>
 8006874:	2b08      	cmp	r3, #8
 8006876:	f200 80a0 	bhi.w	80069ba <HAL_RCC_GetSysClockFreq+0x16a>
 800687a:	2b00      	cmp	r3, #0
 800687c:	d002      	beq.n	8006884 <HAL_RCC_GetSysClockFreq+0x34>
 800687e:	2b04      	cmp	r3, #4
 8006880:	d003      	beq.n	800688a <HAL_RCC_GetSysClockFreq+0x3a>
 8006882:	e09a      	b.n	80069ba <HAL_RCC_GetSysClockFreq+0x16a>
  {
    case RCC_CFGR_SWS_HSI:  /* HSI used as system clock source */
    {
      sysclockfreq = HSI_VALUE;
 8006884:	4b52      	ldr	r3, [pc, #328]	@ (80069d0 <HAL_RCC_GetSysClockFreq+0x180>)
 8006886:	63bb      	str	r3, [r7, #56]	@ 0x38
      break;
 8006888:	e09a      	b.n	80069c0 <HAL_RCC_GetSysClockFreq+0x170>
    }
    case RCC_CFGR_SWS_HSE:  /* HSE used as system clock  source */
    {
      sysclockfreq = HSE_VALUE;
 800688a:	4b52      	ldr	r3, [pc, #328]	@ (80069d4 <HAL_RCC_GetSysClockFreq+0x184>)
 800688c:	63bb      	str	r3, [r7, #56]	@ 0x38
      break;
 800688e:	e097      	b.n	80069c0 <HAL_RCC_GetSysClockFreq+0x170>
    }
    case RCC_CFGR_SWS_PLL:  /* PLL used as system clock  source */
    {
      /* PLL_VCO = (HSE_VALUE or HSI_VALUE / PLLM) * PLLN
      SYSCLK = PLL_VCO / PLLP */
      pllm = RCC->PLLCFGR & RCC_PLLCFGR_PLLM;
 8006890:	4b4e      	ldr	r3, [pc, #312]	@ (80069cc <HAL_RCC_GetSysClockFreq+0x17c>)
 8006892:	685b      	ldr	r3, [r3, #4]
 8006894:	f003 033f 	and.w	r3, r3, #63	@ 0x3f
 8006898:	637b      	str	r3, [r7, #52]	@ 0x34
      if (__HAL_RCC_GET_PLL_OSCSOURCE() != RCC_PLLSOURCE_HSI)
 800689a:	4b4c      	ldr	r3, [pc, #304]	@ (80069cc <HAL_RCC_GetSysClockFreq+0x17c>)
 800689c:	685b      	ldr	r3, [r3, #4]
 800689e:	f403 0380 	and.w	r3, r3, #4194304	@ 0x400000
 80068a2:	2b00      	cmp	r3, #0
 80068a4:	d027      	beq.n	80068f6 <HAL_RCC_GetSysClockFreq+0xa6>
      {
        /* HSE used as PLL clock source */
        pllvco = (uint32_t)((((uint64_t) HSE_VALUE * ((uint64_t)((RCC->PLLCFGR & RCC_PLLCFGR_PLLN) >> RCC_PLLCFGR_PLLN_Pos)))) / (uint64_t)pllm);
 80068a6:	4b49      	ldr	r3, [pc, #292]	@ (80069cc <HAL_RCC_GetSysClockFreq+0x17c>)
 80068a8:	685b      	ldr	r3, [r3, #4]
 80068aa:	099b      	lsrs	r3, r3, #6
 80068ac:	2200      	movs	r2, #0
 80068ae:	623b      	str	r3, [r7, #32]
 80068b0:	627a      	str	r2, [r7, #36]	@ 0x24
 80068b2:	6a3b      	ldr	r3, [r7, #32]
 80068b4:	f3c3 0008 	ubfx	r0, r3, #0, #9
 80068b8:	2100      	movs	r1, #0
 80068ba:	4b46      	ldr	r3, [pc, #280]	@ (80069d4 <HAL_RCC_GetSysClockFreq+0x184>)
 80068bc:	fb03 f201 	mul.w	r2, r3, r1
 80068c0:	2300      	movs	r3, #0
 80068c2:	fb00 f303 	mul.w	r3, r0, r3
 80068c6:	4413      	add	r3, r2
 80068c8:	4a42      	ldr	r2, [pc, #264]	@ (80069d4 <HAL_RCC_GetSysClockFreq+0x184>)
 80068ca:	fba0 2102 	umull	r2, r1, r0, r2
 80068ce:	62f9      	str	r1, [r7, #44]	@ 0x2c
 80068d0:	62ba      	str	r2, [r7, #40]	@ 0x28
 80068d2:	6afa      	ldr	r2, [r7, #44]	@ 0x2c
 80068d4:	4413      	add	r3, r2
 80068d6:	62fb      	str	r3, [r7, #44]	@ 0x2c
 80068d8:	6b7b      	ldr	r3, [r7, #52]	@ 0x34
 80068da:	2200      	movs	r2, #0
 80068dc:	61bb      	str	r3, [r7, #24]
 80068de:	61fa      	str	r2, [r7, #28]
 80068e0:	e9d7 2306 	ldrd	r2, r3, [r7, #24]
 80068e4:	e9d7 010a 	ldrd	r0, r1, [r7, #40]	@ 0x28
 80068e8:	f7fa f966 	bl	8000bb8 <__aeabi_uldivmod>
 80068ec:	4602      	mov	r2, r0
 80068ee:	460b      	mov	r3, r1
 80068f0:	4613      	mov	r3, r2
 80068f2:	63fb      	str	r3, [r7, #60]	@ 0x3c
 80068f4:	e053      	b.n	800699e <HAL_RCC_GetSysClockFreq+0x14e>
      }
      else
      {
        /* HSI used as PLL clock source */
        pllvco = (uint32_t)((((uint64_t) HSI_VALUE * ((uint64_t)((RCC->PLLCFGR & RCC_PLLCFGR_PLLN) >> RCC_PLLCFGR_PLLN_Pos)))) / (uint64_t)pllm);
 80068f6:	4b35      	ldr	r3, [pc, #212]	@ (80069cc <HAL_RCC_GetSysClockFreq+0x17c>)
 80068f8:	685b      	ldr	r3, [r3, #4]
 80068fa:	099b      	lsrs	r3, r3, #6
 80068fc:	2200      	movs	r2, #0
 80068fe:	613b      	str	r3, [r7, #16]
 8006900:	617a      	str	r2, [r7, #20]
 8006902:	693b      	ldr	r3, [r7, #16]
 8006904:	f3c3 0a08 	ubfx	sl, r3, #0, #9
 8006908:	f04f 0b00 	mov.w	fp, #0
 800690c:	4652      	mov	r2, sl
 800690e:	465b      	mov	r3, fp
 8006910:	f04f 0000 	mov.w	r0, #0
 8006914:	f04f 0100 	mov.w	r1, #0
 8006918:	0159      	lsls	r1, r3, #5
 800691a:	ea41 61d2 	orr.w	r1, r1, r2, lsr #27
 800691e:	0150      	lsls	r0, r2, #5
 8006920:	4602      	mov	r2, r0
 8006922:	460b      	mov	r3, r1
 8006924:	ebb2 080a 	subs.w	r8, r2, sl
 8006928:	eb63 090b 	sbc.w	r9, r3, fp
 800692c:	f04f 0200 	mov.w	r2, #0
 8006930:	f04f 0300 	mov.w	r3, #0
 8006934:	ea4f 1389 	mov.w	r3, r9, lsl #6
 8006938:	ea43 6398 	orr.w	r3, r3, r8, lsr #26
 800693c:	ea4f 1288 	mov.w	r2, r8, lsl #6
 8006940:	ebb2 0408 	subs.w	r4, r2, r8
 8006944:	eb63 0509 	sbc.w	r5, r3, r9
 8006948:	f04f 0200 	mov.w	r2, #0
 800694c:	f04f 0300 	mov.w	r3, #0
 8006950:	00eb      	lsls	r3, r5, #3
 8006952:	ea43 7354 	orr.w	r3, r3, r4, lsr #29
 8006956:	00e2      	lsls	r2, r4, #3
 8006958:	4614      	mov	r4, r2
 800695a:	461d      	mov	r5, r3
 800695c:	eb14 030a 	adds.w	r3, r4, sl
 8006960:	603b      	str	r3, [r7, #0]
 8006962:	eb45 030b 	adc.w	r3, r5, fp
 8006966:	607b      	str	r3, [r7, #4]
 8006968:	f04f 0200 	mov.w	r2, #0
 800696c:	f04f 0300 	mov.w	r3, #0
 8006970:	e9d7 4500 	ldrd	r4, r5, [r7]
 8006974:	4629      	mov	r1, r5
 8006976:	028b      	lsls	r3, r1, #10
 8006978:	4621      	mov	r1, r4
 800697a:	ea43 5391 	orr.w	r3, r3, r1, lsr #22
 800697e:	4621      	mov	r1, r4
 8006980:	028a      	lsls	r2, r1, #10
 8006982:	4610      	mov	r0, r2
 8006984:	4619      	mov	r1, r3
 8006986:	6b7b      	ldr	r3, [r7, #52]	@ 0x34
 8006988:	2200      	movs	r2, #0
 800698a:	60bb      	str	r3, [r7, #8]
 800698c:	60fa      	str	r2, [r7, #12]
 800698e:	e9d7 2302 	ldrd	r2, r3, [r7, #8]
 8006992:	f7fa f911 	bl	8000bb8 <__aeabi_uldivmod>
 8006996:	4602      	mov	r2, r0
 8006998:	460b      	mov	r3, r1
 800699a:	4613      	mov	r3, r2
 800699c:	63fb      	str	r3, [r7, #60]	@ 0x3c
      }
      pllp = ((((RCC->PLLCFGR & RCC_PLLCFGR_PLLP) >> RCC_PLLCFGR_PLLP_Pos) + 1U) * 2U);
 800699e:	4b0b      	ldr	r3, [pc, #44]	@ (80069cc <HAL_RCC_GetSysClockFreq+0x17c>)
 80069a0:	685b      	ldr	r3, [r3, #4]
 80069a2:	0c1b      	lsrs	r3, r3, #16
 80069a4:	f003 0303 	and.w	r3, r3, #3
 80069a8:	3301      	adds	r3, #1
 80069aa:	005b      	lsls	r3, r3, #1
 80069ac:	633b      	str	r3, [r7, #48]	@ 0x30

      sysclockfreq = pllvco / pllp;
 80069ae:	6bfa      	ldr	r2, [r7, #60]	@ 0x3c
 80069b0:	6b3b      	ldr	r3, [r7, #48]	@ 0x30
 80069b2:	fbb2 f3f3 	udiv	r3, r2, r3
 80069b6:	63bb      	str	r3, [r7, #56]	@ 0x38
      break;
 80069b8:	e002      	b.n	80069c0 <HAL_RCC_GetSysClockFreq+0x170>
    }
    default:
    {
      sysclockfreq = HSI_VALUE;
 80069ba:	4b05      	ldr	r3, [pc, #20]	@ (80069d0 <HAL_RCC_GetSysClockFreq+0x180>)
 80069bc:	63bb      	str	r3, [r7, #56]	@ 0x38
      break;
 80069be:	bf00      	nop
    }
  }
  return sysclockfreq;
 80069c0:	6bbb      	ldr	r3, [r7, #56]	@ 0x38
}
 80069c2:	4618      	mov	r0, r3
 80069c4:	3740      	adds	r7, #64	@ 0x40
 80069c6:	46bd      	mov	sp, r7
 80069c8:	e8bd 8fb0 	ldmia.w	sp!, {r4, r5, r7, r8, r9, sl, fp, pc}
 80069cc:	40023800 	.word	0x40023800
 80069d0:	00f42400 	.word	0x00f42400
 80069d4:	017d7840 	.word	0x017d7840

080069d8 <HAL_RCC_GetHCLKFreq>:
  * @note   The SystemCoreClock CMSIS variable is used to store System Clock Frequency
  *         and updated within this function
  * @retval HCLK frequency
  */
uint32_t HAL_RCC_GetHCLKFreq(void)
{
 80069d8:	b480      	push	{r7}
 80069da:	af00      	add	r7, sp, #0
  return SystemCoreClock;
 80069dc:	4b03      	ldr	r3, [pc, #12]	@ (80069ec <HAL_RCC_GetHCLKFreq+0x14>)
 80069de:	681b      	ldr	r3, [r3, #0]
}
 80069e0:	4618      	mov	r0, r3
 80069e2:	46bd      	mov	sp, r7
 80069e4:	f85d 7b04 	ldr.w	r7, [sp], #4
 80069e8:	4770      	bx	lr
 80069ea:	bf00      	nop
 80069ec:	20002004 	.word	0x20002004

080069f0 <HAL_RCC_GetPCLK1Freq>:
  * @note   Each time PCLK1 changes, this function must be called to update the
  *         right PCLK1 value. Otherwise, any configuration based on this function will be incorrect.
  * @retval PCLK1 frequency
  */
uint32_t HAL_RCC_GetPCLK1Freq(void)
{
 80069f0:	b580      	push	{r7, lr}
 80069f2:	af00      	add	r7, sp, #0
  /* Get HCLK source and Compute PCLK1 frequency ---------------------------*/
  return (HAL_RCC_GetHCLKFreq() >> APBPrescTable[(RCC->CFGR & RCC_CFGR_PPRE1) >> RCC_CFGR_PPRE1_Pos]);
 80069f4:	f7ff fff0 	bl	80069d8 <HAL_RCC_GetHCLKFreq>
 80069f8:	4602      	mov	r2, r0
 80069fa:	4b05      	ldr	r3, [pc, #20]	@ (8006a10 <HAL_RCC_GetPCLK1Freq+0x20>)
 80069fc:	689b      	ldr	r3, [r3, #8]
 80069fe:	0a9b      	lsrs	r3, r3, #10
 8006a00:	f003 0307 	and.w	r3, r3, #7
 8006a04:	4903      	ldr	r1, [pc, #12]	@ (8006a14 <HAL_RCC_GetPCLK1Freq+0x24>)
 8006a06:	5ccb      	ldrb	r3, [r1, r3]
 8006a08:	fa22 f303 	lsr.w	r3, r2, r3
}
 8006a0c:	4618      	mov	r0, r3
 8006a0e:	bd80      	pop	{r7, pc}
 8006a10:	40023800 	.word	0x40023800
 8006a14:	0800aebc 	.word	0x0800aebc

08006a18 <HAL_RCC_GetPCLK2Freq>:
  * @note   Each time PCLK2 changes, this function must be called to update the
  *         right PCLK2 value. Otherwise, any configuration based on this function will be incorrect.
  * @retval PCLK2 frequency
  */
uint32_t HAL_RCC_GetPCLK2Freq(void)
{
 8006a18:	b580      	push	{r7, lr}
 8006a1a:	af00      	add	r7, sp, #0
  /* Get HCLK source and Compute PCLK2 frequency ---------------------------*/
  return (HAL_RCC_GetHCLKFreq() >> APBPrescTable[(RCC->CFGR & RCC_CFGR_PPRE2) >> RCC_CFGR_PPRE2_Pos]);
 8006a1c:	f7ff ffdc 	bl	80069d8 <HAL_RCC_GetHCLKFreq>
 8006a20:	4602      	mov	r2, r0
 8006a22:	4b05      	ldr	r3, [pc, #20]	@ (8006a38 <HAL_RCC_GetPCLK2Freq+0x20>)
 8006a24:	689b      	ldr	r3, [r3, #8]
 8006a26:	0b5b      	lsrs	r3, r3, #13
 8006a28:	f003 0307 	and.w	r3, r3, #7
 8006a2c:	4903      	ldr	r1, [pc, #12]	@ (8006a3c <HAL_RCC_GetPCLK2Freq+0x24>)
 8006a2e:	5ccb      	ldrb	r3, [r1, r3]
 8006a30:	fa22 f303 	lsr.w	r3, r2, r3
}
 8006a34:	4618      	mov	r0, r3
 8006a36:	bd80      	pop	{r7, pc}
 8006a38:	40023800 	.word	0x40023800
 8006a3c:	0800aebc 	.word	0x0800aebc

08006a40 <HAL_RCCEx_PeriphCLKConfig>:
  *        domain (RTC and RCC_BDCR register expect BKPSRAM) will be reset
  *
  * @retval HAL status
  */
HAL_StatusTypeDef HAL_RCCEx_PeriphCLKConfig(RCC_PeriphCLKInitTypeDef  *PeriphClkInit)
{
 8006a40:	b580      	push	{r7, lr}
 8006a42:	b086      	sub	sp, #24
 8006a44:	af00      	add	r7, sp, #0
 8006a46:	6078      	str	r0, [r7, #4]
  uint32_t tickstart = 0U;
 8006a48:	2300      	movs	r3, #0
 8006a4a:	617b      	str	r3, [r7, #20]
  uint32_t tmpreg1 = 0U;
 8006a4c:	2300      	movs	r3, #0
 8006a4e:	613b      	str	r3, [r7, #16]

  /* Check the parameters */
  assert_param(IS_RCC_PERIPHCLOCK(PeriphClkInit->PeriphClockSelection));

  /*---------------------------- I2S configuration ---------------------------*/
  if ((((PeriphClkInit->PeriphClockSelection) & RCC_PERIPHCLK_I2S) == RCC_PERIPHCLK_I2S) ||
 8006a50:	687b      	ldr	r3, [r7, #4]
 8006a52:	681b      	ldr	r3, [r3, #0]
 8006a54:	f003 0301 	and.w	r3, r3, #1
 8006a58:	2b00      	cmp	r3, #0
 8006a5a:	d105      	bne.n	8006a68 <HAL_RCCEx_PeriphCLKConfig+0x28>
      (((PeriphClkInit->PeriphClockSelection) & RCC_PERIPHCLK_PLLI2S) == RCC_PERIPHCLK_PLLI2S))
 8006a5c:	687b      	ldr	r3, [r7, #4]
 8006a5e:	681b      	ldr	r3, [r3, #0]
 8006a60:	f003 0304 	and.w	r3, r3, #4
  if ((((PeriphClkInit->PeriphClockSelection) & RCC_PERIPHCLK_I2S) == RCC_PERIPHCLK_I2S) ||
 8006a64:	2b00      	cmp	r3, #0
 8006a66:	d035      	beq.n	8006ad4 <HAL_RCCEx_PeriphCLKConfig+0x94>
    assert_param(IS_RCC_PLLI2SN_VALUE(PeriphClkInit->PLLI2S.PLLI2SN));
#if defined(STM32F411xE)
    assert_param(IS_RCC_PLLI2SM_VALUE(PeriphClkInit->PLLI2S.PLLI2SM));
#endif /* STM32F411xE */
    /* Disable the PLLI2S */
    __HAL_RCC_PLLI2S_DISABLE();
 8006a68:	4b67      	ldr	r3, [pc, #412]	@ (8006c08 <HAL_RCCEx_PeriphCLKConfig+0x1c8>)
 8006a6a:	2200      	movs	r2, #0
 8006a6c:	601a      	str	r2, [r3, #0]
    /* Get tick */
    tickstart = HAL_GetTick();
 8006a6e:	f7fd ff83 	bl	8004978 <HAL_GetTick>
 8006a72:	6178      	str	r0, [r7, #20]
    /* Wait till PLLI2S is disabled */
    while (__HAL_RCC_GET_FLAG(RCC_FLAG_PLLI2SRDY)  != RESET)
 8006a74:	e008      	b.n	8006a88 <HAL_RCCEx_PeriphCLKConfig+0x48>
    {
      if ((HAL_GetTick() - tickstart) > PLLI2S_TIMEOUT_VALUE)
 8006a76:	f7fd ff7f 	bl	8004978 <HAL_GetTick>
 8006a7a:	4602      	mov	r2, r0
 8006a7c:	697b      	ldr	r3, [r7, #20]
 8006a7e:	1ad3      	subs	r3, r2, r3
 8006a80:	2b02      	cmp	r3, #2
 8006a82:	d901      	bls.n	8006a88 <HAL_RCCEx_PeriphCLKConfig+0x48>
      {
        /* return in case of Timeout detected */
        return HAL_TIMEOUT;
 8006a84:	2303      	movs	r3, #3
 8006a86:	e0ba      	b.n	8006bfe <HAL_RCCEx_PeriphCLKConfig+0x1be>
    while (__HAL_RCC_GET_FLAG(RCC_FLAG_PLLI2SRDY)  != RESET)
 8006a88:	4b60      	ldr	r3, [pc, #384]	@ (8006c0c <HAL_RCCEx_PeriphCLKConfig+0x1cc>)
 8006a8a:	681b      	ldr	r3, [r3, #0]
 8006a8c:	f003 6300 	and.w	r3, r3, #134217728	@ 0x8000000
 8006a90:	2b00      	cmp	r3, #0
 8006a92:	d1f0      	bne.n	8006a76 <HAL_RCCEx_PeriphCLKConfig+0x36>
                                   PeriphClkInit->PLLI2S.PLLI2SR);
#else
    /* Configure the PLLI2S division factors */
    /* PLLI2S_VCO = f(VCO clock) = f(PLLI2S clock input) * (PLLI2SN/PLLM) */
    /* I2SCLK = f(PLLI2S clock output) = f(VCO clock) / PLLI2SR */
    __HAL_RCC_PLLI2S_CONFIG(PeriphClkInit->PLLI2S.PLLI2SN, PeriphClkInit->PLLI2S.PLLI2SR);
 8006a94:	687b      	ldr	r3, [r7, #4]
 8006a96:	685b      	ldr	r3, [r3, #4]
 8006a98:	019a      	lsls	r2, r3, #6
 8006a9a:	687b      	ldr	r3, [r7, #4]
 8006a9c:	689b      	ldr	r3, [r3, #8]
 8006a9e:	071b      	lsls	r3, r3, #28
 8006aa0:	495a      	ldr	r1, [pc, #360]	@ (8006c0c <HAL_RCCEx_PeriphCLKConfig+0x1cc>)
 8006aa2:	4313      	orrs	r3, r2
 8006aa4:	f8c1 3084 	str.w	r3, [r1, #132]	@ 0x84
#endif /* STM32F411xE */

    /* Enable the PLLI2S */
    __HAL_RCC_PLLI2S_ENABLE();
 8006aa8:	4b57      	ldr	r3, [pc, #348]	@ (8006c08 <HAL_RCCEx_PeriphCLKConfig+0x1c8>)
 8006aaa:	2201      	movs	r2, #1
 8006aac:	601a      	str	r2, [r3, #0]
    /* Get tick */
    tickstart = HAL_GetTick();
 8006aae:	f7fd ff63 	bl	8004978 <HAL_GetTick>
 8006ab2:	6178      	str	r0, [r7, #20]
    /* Wait till PLLI2S is ready */
    while (__HAL_RCC_GET_FLAG(RCC_FLAG_PLLI2SRDY)  == RESET)
 8006ab4:	e008      	b.n	8006ac8 <HAL_RCCEx_PeriphCLKConfig+0x88>
    {
      if ((HAL_GetTick() - tickstart) > PLLI2S_TIMEOUT_VALUE)
 8006ab6:	f7fd ff5f 	bl	8004978 <HAL_GetTick>
 8006aba:	4602      	mov	r2, r0
 8006abc:	697b      	ldr	r3, [r7, #20]
 8006abe:	1ad3      	subs	r3, r2, r3
 8006ac0:	2b02      	cmp	r3, #2
 8006ac2:	d901      	bls.n	8006ac8 <HAL_RCCEx_PeriphCLKConfig+0x88>
      {
        /* return in case of Timeout detected */
        return HAL_TIMEOUT;
 8006ac4:	2303      	movs	r3, #3
 8006ac6:	e09a      	b.n	8006bfe <HAL_RCCEx_PeriphCLKConfig+0x1be>
    while (__HAL_RCC_GET_FLAG(RCC_FLAG_PLLI2SRDY)  == RESET)
 8006ac8:	4b50      	ldr	r3, [pc, #320]	@ (8006c0c <HAL_RCCEx_PeriphCLKConfig+0x1cc>)
 8006aca:	681b      	ldr	r3, [r3, #0]
 8006acc:	f003 6300 	and.w	r3, r3, #134217728	@ 0x8000000
 8006ad0:	2b00      	cmp	r3, #0
 8006ad2:	d0f0      	beq.n	8006ab6 <HAL_RCCEx_PeriphCLKConfig+0x76>
      }
    }
  }

  /*---------------------------- RTC configuration ---------------------------*/
  if (((PeriphClkInit->PeriphClockSelection) & RCC_PERIPHCLK_RTC) == (RCC_PERIPHCLK_RTC))
 8006ad4:	687b      	ldr	r3, [r7, #4]
 8006ad6:	681b      	ldr	r3, [r3, #0]
 8006ad8:	f003 0302 	and.w	r3, r3, #2
 8006adc:	2b00      	cmp	r3, #0
 8006ade:	f000 8083 	beq.w	8006be8 <HAL_RCCEx_PeriphCLKConfig+0x1a8>
  {
    /* Check for RTC Parameters used to output RTCCLK */
    assert_param(IS_RCC_RTCCLKSOURCE(PeriphClkInit->RTCClockSelection));

    /* Enable Power Clock*/
    __HAL_RCC_PWR_CLK_ENABLE();
 8006ae2:	2300      	movs	r3, #0
 8006ae4:	60fb      	str	r3, [r7, #12]
 8006ae6:	4b49      	ldr	r3, [pc, #292]	@ (8006c0c <HAL_RCCEx_PeriphCLKConfig+0x1cc>)
 8006ae8:	6c1b      	ldr	r3, [r3, #64]	@ 0x40
 8006aea:	4a48      	ldr	r2, [pc, #288]	@ (8006c0c <HAL_RCCEx_PeriphCLKConfig+0x1cc>)
 8006aec:	f043 5380 	orr.w	r3, r3, #268435456	@ 0x10000000
 8006af0:	6413      	str	r3, [r2, #64]	@ 0x40
 8006af2:	4b46      	ldr	r3, [pc, #280]	@ (8006c0c <HAL_RCCEx_PeriphCLKConfig+0x1cc>)
 8006af4:	6c1b      	ldr	r3, [r3, #64]	@ 0x40
 8006af6:	f003 5380 	and.w	r3, r3, #268435456	@ 0x10000000
 8006afa:	60fb      	str	r3, [r7, #12]
 8006afc:	68fb      	ldr	r3, [r7, #12]

    /* Enable write access to Backup domain */
    PWR->CR |= PWR_CR_DBP;
 8006afe:	4b44      	ldr	r3, [pc, #272]	@ (8006c10 <HAL_RCCEx_PeriphCLKConfig+0x1d0>)
 8006b00:	681b      	ldr	r3, [r3, #0]
 8006b02:	4a43      	ldr	r2, [pc, #268]	@ (8006c10 <HAL_RCCEx_PeriphCLKConfig+0x1d0>)
 8006b04:	f443 7380 	orr.w	r3, r3, #256	@ 0x100
 8006b08:	6013      	str	r3, [r2, #0]

    /* Get tick */
    tickstart = HAL_GetTick();
 8006b0a:	f7fd ff35 	bl	8004978 <HAL_GetTick>
 8006b0e:	6178      	str	r0, [r7, #20]

    while ((PWR->CR & PWR_CR_DBP) == RESET)
 8006b10:	e008      	b.n	8006b24 <HAL_RCCEx_PeriphCLKConfig+0xe4>
    {
      if ((HAL_GetTick() - tickstart) > RCC_DBP_TIMEOUT_VALUE)
 8006b12:	f7fd ff31 	bl	8004978 <HAL_GetTick>
 8006b16:	4602      	mov	r2, r0
 8006b18:	697b      	ldr	r3, [r7, #20]
 8006b1a:	1ad3      	subs	r3, r2, r3
 8006b1c:	2b02      	cmp	r3, #2
 8006b1e:	d901      	bls.n	8006b24 <HAL_RCCEx_PeriphCLKConfig+0xe4>
      {
        return HAL_TIMEOUT;
 8006b20:	2303      	movs	r3, #3
 8006b22:	e06c      	b.n	8006bfe <HAL_RCCEx_PeriphCLKConfig+0x1be>
    while ((PWR->CR & PWR_CR_DBP) == RESET)
 8006b24:	4b3a      	ldr	r3, [pc, #232]	@ (8006c10 <HAL_RCCEx_PeriphCLKConfig+0x1d0>)
 8006b26:	681b      	ldr	r3, [r3, #0]
 8006b28:	f403 7380 	and.w	r3, r3, #256	@ 0x100
 8006b2c:	2b00      	cmp	r3, #0
 8006b2e:	d0f0      	beq.n	8006b12 <HAL_RCCEx_PeriphCLKConfig+0xd2>
      }
    }
    /* Reset the Backup domain only if the RTC Clock source selection is modified from reset value */
    tmpreg1 = (RCC->BDCR & RCC_BDCR_RTCSEL);
 8006b30:	4b36      	ldr	r3, [pc, #216]	@ (8006c0c <HAL_RCCEx_PeriphCLKConfig+0x1cc>)
 8006b32:	6f1b      	ldr	r3, [r3, #112]	@ 0x70
 8006b34:	f403 7340 	and.w	r3, r3, #768	@ 0x300
 8006b38:	613b      	str	r3, [r7, #16]
    if ((tmpreg1 != 0x00000000U) && ((tmpreg1) != (PeriphClkInit->RTCClockSelection & RCC_BDCR_RTCSEL)))
 8006b3a:	693b      	ldr	r3, [r7, #16]
 8006b3c:	2b00      	cmp	r3, #0
 8006b3e:	d02f      	beq.n	8006ba0 <HAL_RCCEx_PeriphCLKConfig+0x160>
 8006b40:	687b      	ldr	r3, [r7, #4]
 8006b42:	68db      	ldr	r3, [r3, #12]
 8006b44:	f403 7340 	and.w	r3, r3, #768	@ 0x300
 8006b48:	693a      	ldr	r2, [r7, #16]
 8006b4a:	429a      	cmp	r2, r3
 8006b4c:	d028      	beq.n	8006ba0 <HAL_RCCEx_PeriphCLKConfig+0x160>
    {
      /* Store the content of BDCR register before the reset of Backup Domain */
      tmpreg1 = (RCC->BDCR & ~(RCC_BDCR_RTCSEL));
 8006b4e:	4b2f      	ldr	r3, [pc, #188]	@ (8006c0c <HAL_RCCEx_PeriphCLKConfig+0x1cc>)
 8006b50:	6f1b      	ldr	r3, [r3, #112]	@ 0x70
 8006b52:	f423 7340 	bic.w	r3, r3, #768	@ 0x300
 8006b56:	613b      	str	r3, [r7, #16]
      /* RTC Clock selection can be changed only if the Backup Domain is reset */
      __HAL_RCC_BACKUPRESET_FORCE();
 8006b58:	4b2e      	ldr	r3, [pc, #184]	@ (8006c14 <HAL_RCCEx_PeriphCLKConfig+0x1d4>)
 8006b5a:	2201      	movs	r2, #1
 8006b5c:	601a      	str	r2, [r3, #0]
      __HAL_RCC_BACKUPRESET_RELEASE();
 8006b5e:	4b2d      	ldr	r3, [pc, #180]	@ (8006c14 <HAL_RCCEx_PeriphCLKConfig+0x1d4>)
 8006b60:	2200      	movs	r2, #0
 8006b62:	601a      	str	r2, [r3, #0]
      /* Restore the Content of BDCR register */
      RCC->BDCR = tmpreg1;
 8006b64:	4a29      	ldr	r2, [pc, #164]	@ (8006c0c <HAL_RCCEx_PeriphCLKConfig+0x1cc>)
 8006b66:	693b      	ldr	r3, [r7, #16]
 8006b68:	6713      	str	r3, [r2, #112]	@ 0x70

      /* Wait for LSE reactivation if LSE was enable prior to Backup Domain reset */
      if (HAL_IS_BIT_SET(RCC->BDCR, RCC_BDCR_LSEON))
 8006b6a:	4b28      	ldr	r3, [pc, #160]	@ (8006c0c <HAL_RCCEx_PeriphCLKConfig+0x1cc>)
 8006b6c:	6f1b      	ldr	r3, [r3, #112]	@ 0x70
 8006b6e:	f003 0301 	and.w	r3, r3, #1
 8006b72:	2b01      	cmp	r3, #1
 8006b74:	d114      	bne.n	8006ba0 <HAL_RCCEx_PeriphCLKConfig+0x160>
      {
        /* Get tick */
        tickstart = HAL_GetTick();
 8006b76:	f7fd feff 	bl	8004978 <HAL_GetTick>
 8006b7a:	6178      	str	r0, [r7, #20]

        /* Wait till LSE is ready */
        while (__HAL_RCC_GET_FLAG(RCC_FLAG_LSERDY) == RESET)
 8006b7c:	e00a      	b.n	8006b94 <HAL_RCCEx_PeriphCLKConfig+0x154>
        {
          if ((HAL_GetTick() - tickstart) > RCC_LSE_TIMEOUT_VALUE)
 8006b7e:	f7fd fefb 	bl	8004978 <HAL_GetTick>
 8006b82:	4602      	mov	r2, r0
 8006b84:	697b      	ldr	r3, [r7, #20]
 8006b86:	1ad3      	subs	r3, r2, r3
 8006b88:	f241 3288 	movw	r2, #5000	@ 0x1388
 8006b8c:	4293      	cmp	r3, r2
 8006b8e:	d901      	bls.n	8006b94 <HAL_RCCEx_PeriphCLKConfig+0x154>
          {
            return HAL_TIMEOUT;
 8006b90:	2303      	movs	r3, #3
 8006b92:	e034      	b.n	8006bfe <HAL_RCCEx_PeriphCLKConfig+0x1be>
        while (__HAL_RCC_GET_FLAG(RCC_FLAG_LSERDY) == RESET)
 8006b94:	4b1d      	ldr	r3, [pc, #116]	@ (8006c0c <HAL_RCCEx_PeriphCLKConfig+0x1cc>)
 8006b96:	6f1b      	ldr	r3, [r3, #112]	@ 0x70
 8006b98:	f003 0302 	and.w	r3, r3, #2
 8006b9c:	2b00      	cmp	r3, #0
 8006b9e:	d0ee      	beq.n	8006b7e <HAL_RCCEx_PeriphCLKConfig+0x13e>
          }
        }
      }
    }
    __HAL_RCC_RTC_CONFIG(PeriphClkInit->RTCClockSelection);
 8006ba0:	687b      	ldr	r3, [r7, #4]
 8006ba2:	68db      	ldr	r3, [r3, #12]
 8006ba4:	f403 7340 	and.w	r3, r3, #768	@ 0x300
 8006ba8:	f5b3 7f40 	cmp.w	r3, #768	@ 0x300
 8006bac:	d10d      	bne.n	8006bca <HAL_RCCEx_PeriphCLKConfig+0x18a>
 8006bae:	4b17      	ldr	r3, [pc, #92]	@ (8006c0c <HAL_RCCEx_PeriphCLKConfig+0x1cc>)
 8006bb0:	689b      	ldr	r3, [r3, #8]
 8006bb2:	f423 12f8 	bic.w	r2, r3, #2031616	@ 0x1f0000
 8006bb6:	687b      	ldr	r3, [r7, #4]
 8006bb8:	68db      	ldr	r3, [r3, #12]
 8006bba:	f023 4370 	bic.w	r3, r3, #4026531840	@ 0xf0000000
 8006bbe:	f423 7340 	bic.w	r3, r3, #768	@ 0x300
 8006bc2:	4912      	ldr	r1, [pc, #72]	@ (8006c0c <HAL_RCCEx_PeriphCLKConfig+0x1cc>)
 8006bc4:	4313      	orrs	r3, r2
 8006bc6:	608b      	str	r3, [r1, #8]
 8006bc8:	e005      	b.n	8006bd6 <HAL_RCCEx_PeriphCLKConfig+0x196>
 8006bca:	4b10      	ldr	r3, [pc, #64]	@ (8006c0c <HAL_RCCEx_PeriphCLKConfig+0x1cc>)
 8006bcc:	689b      	ldr	r3, [r3, #8]
 8006bce:	4a0f      	ldr	r2, [pc, #60]	@ (8006c0c <HAL_RCCEx_PeriphCLKConfig+0x1cc>)
 8006bd0:	f423 13f8 	bic.w	r3, r3, #2031616	@ 0x1f0000
 8006bd4:	6093      	str	r3, [r2, #8]
 8006bd6:	4b0d      	ldr	r3, [pc, #52]	@ (8006c0c <HAL_RCCEx_PeriphCLKConfig+0x1cc>)
 8006bd8:	6f1a      	ldr	r2, [r3, #112]	@ 0x70
 8006bda:	687b      	ldr	r3, [r7, #4]
 8006bdc:	68db      	ldr	r3, [r3, #12]
 8006bde:	f3c3 030b 	ubfx	r3, r3, #0, #12
 8006be2:	490a      	ldr	r1, [pc, #40]	@ (8006c0c <HAL_RCCEx_PeriphCLKConfig+0x1cc>)
 8006be4:	4313      	orrs	r3, r2
 8006be6:	670b      	str	r3, [r1, #112]	@ 0x70
  }
#if defined(STM32F401xC) || defined(STM32F401xE) || defined(STM32F411xE)
  /*---------------------------- TIM configuration ---------------------------*/
  if (((PeriphClkInit->PeriphClockSelection) & RCC_PERIPHCLK_TIM) == (RCC_PERIPHCLK_TIM))
 8006be8:	687b      	ldr	r3, [r7, #4]
 8006bea:	681b      	ldr	r3, [r3, #0]
 8006bec:	f003 0308 	and.w	r3, r3, #8
 8006bf0:	2b00      	cmp	r3, #0
 8006bf2:	d003      	beq.n	8006bfc <HAL_RCCEx_PeriphCLKConfig+0x1bc>
  {
    __HAL_RCC_TIMCLKPRESCALER(PeriphClkInit->TIMPresSelection);
 8006bf4:	687b      	ldr	r3, [r7, #4]
 8006bf6:	7c1a      	ldrb	r2, [r3, #16]
 8006bf8:	4b07      	ldr	r3, [pc, #28]	@ (8006c18 <HAL_RCCEx_PeriphCLKConfig+0x1d8>)
 8006bfa:	601a      	str	r2, [r3, #0]
  }
#endif /* STM32F401xC || STM32F401xE || STM32F411xE */
  return HAL_OK;
 8006bfc:	2300      	movs	r3, #0
}
 8006bfe:	4618      	mov	r0, r3
 8006c00:	3718      	adds	r7, #24
 8006c02:	46bd      	mov	sp, r7
 8006c04:	bd80      	pop	{r7, pc}
 8006c06:	bf00      	nop
 8006c08:	42470068 	.word	0x42470068
 8006c0c:	40023800 	.word	0x40023800
 8006c10:	40007000 	.word	0x40007000
 8006c14:	42470e40 	.word	0x42470e40
 8006c18:	424711e0 	.word	0x424711e0

08006c1c <HAL_RCCEx_GetPeriphCLKFreq>:
  *         This parameter can be one of the following values:
  *            @arg RCC_PERIPHCLK_I2S: I2S peripheral clock
  * @retval Frequency in KHz
  */
uint32_t HAL_RCCEx_GetPeriphCLKFreq(uint32_t PeriphClk)
{
 8006c1c:	b480      	push	{r7}
 8006c1e:	b087      	sub	sp, #28
 8006c20:	af00      	add	r7, sp, #0
 8006c22:	6078      	str	r0, [r7, #4]
  /* This variable used to store the I2S clock frequency (value in Hz) */
  uint32_t frequency = 0U;
 8006c24:	2300      	movs	r3, #0
 8006c26:	617b      	str	r3, [r7, #20]
  /* This variable used to store the VCO Input (value in Hz) */
  uint32_t vcoinput = 0U;
 8006c28:	2300      	movs	r3, #0
 8006c2a:	613b      	str	r3, [r7, #16]
  uint32_t srcclk = 0U;
 8006c2c:	2300      	movs	r3, #0
 8006c2e:	60fb      	str	r3, [r7, #12]
  /* This variable used to store the VCO Output (value in Hz) */
  uint32_t vcooutput = 0U;
 8006c30:	2300      	movs	r3, #0
 8006c32:	60bb      	str	r3, [r7, #8]
  switch (PeriphClk)
 8006c34:	687b      	ldr	r3, [r7, #4]
 8006c36:	2b01      	cmp	r3, #1
 8006c38:	d13f      	bne.n	8006cba <HAL_RCCEx_GetPeriphCLKFreq+0x9e>
  {
    case RCC_PERIPHCLK_I2S:
    {
      /* Get the current I2S source */
      srcclk = __HAL_RCC_GET_I2S_SOURCE();
 8006c3a:	4b24      	ldr	r3, [pc, #144]	@ (8006ccc <HAL_RCCEx_GetPeriphCLKFreq+0xb0>)
 8006c3c:	689b      	ldr	r3, [r3, #8]
 8006c3e:	f403 0300 	and.w	r3, r3, #8388608	@ 0x800000
 8006c42:	60fb      	str	r3, [r7, #12]
      switch (srcclk)
 8006c44:	68fb      	ldr	r3, [r7, #12]
 8006c46:	2b00      	cmp	r3, #0
 8006c48:	d006      	beq.n	8006c58 <HAL_RCCEx_GetPeriphCLKFreq+0x3c>
 8006c4a:	68fb      	ldr	r3, [r7, #12]
 8006c4c:	f5b3 0f00 	cmp.w	r3, #8388608	@ 0x800000
 8006c50:	d12f      	bne.n	8006cb2 <HAL_RCCEx_GetPeriphCLKFreq+0x96>
      {
        /* Check if I2S clock selection is External clock mapped on the I2S_CKIN pin used as I2S clock */
        case RCC_I2SCLKSOURCE_EXT:
        {
          /* Set the I2S clock to the external clock  value */
          frequency = EXTERNAL_CLOCK_VALUE;
 8006c52:	4b1f      	ldr	r3, [pc, #124]	@ (8006cd0 <HAL_RCCEx_GetPeriphCLKFreq+0xb4>)
 8006c54:	617b      	str	r3, [r7, #20]
          break;
 8006c56:	e02f      	b.n	8006cb8 <HAL_RCCEx_GetPeriphCLKFreq+0x9c>
            vcoinput = (uint32_t)(HSI_VALUE / (uint32_t)(RCC->PLLI2SCFGR & RCC_PLLI2SCFGR_PLLI2SM));
          }
#else
          /* Configure the PLLI2S division factor */
          /* PLLI2S_VCO Input  = PLL_SOURCE/PLLM */
          if ((RCC->PLLCFGR & RCC_PLLCFGR_PLLSRC) == RCC_PLLSOURCE_HSE)
 8006c58:	4b1c      	ldr	r3, [pc, #112]	@ (8006ccc <HAL_RCCEx_GetPeriphCLKFreq+0xb0>)
 8006c5a:	685b      	ldr	r3, [r3, #4]
 8006c5c:	f403 0380 	and.w	r3, r3, #4194304	@ 0x400000
 8006c60:	f5b3 0f80 	cmp.w	r3, #4194304	@ 0x400000
 8006c64:	d108      	bne.n	8006c78 <HAL_RCCEx_GetPeriphCLKFreq+0x5c>
          {
            /* Get the I2S source clock value */
            vcoinput = (uint32_t)(HSE_VALUE / (uint32_t)(RCC->PLLCFGR & RCC_PLLCFGR_PLLM));
 8006c66:	4b19      	ldr	r3, [pc, #100]	@ (8006ccc <HAL_RCCEx_GetPeriphCLKFreq+0xb0>)
 8006c68:	685b      	ldr	r3, [r3, #4]
 8006c6a:	f003 033f 	and.w	r3, r3, #63	@ 0x3f
 8006c6e:	4a19      	ldr	r2, [pc, #100]	@ (8006cd4 <HAL_RCCEx_GetPeriphCLKFreq+0xb8>)
 8006c70:	fbb2 f3f3 	udiv	r3, r2, r3
 8006c74:	613b      	str	r3, [r7, #16]
 8006c76:	e007      	b.n	8006c88 <HAL_RCCEx_GetPeriphCLKFreq+0x6c>
          }
          else
          {
            /* Get the I2S source clock value */
            vcoinput = (uint32_t)(HSI_VALUE / (uint32_t)(RCC->PLLCFGR & RCC_PLLCFGR_PLLM));
 8006c78:	4b14      	ldr	r3, [pc, #80]	@ (8006ccc <HAL_RCCEx_GetPeriphCLKFreq+0xb0>)
 8006c7a:	685b      	ldr	r3, [r3, #4]
 8006c7c:	f003 033f 	and.w	r3, r3, #63	@ 0x3f
 8006c80:	4a15      	ldr	r2, [pc, #84]	@ (8006cd8 <HAL_RCCEx_GetPeriphCLKFreq+0xbc>)
 8006c82:	fbb2 f3f3 	udiv	r3, r2, r3
 8006c86:	613b      	str	r3, [r7, #16]
          }
#endif /* STM32F411xE */
          /* PLLI2S_VCO Output = PLLI2S_VCO Input * PLLI2SN */
          vcooutput = (uint32_t)(vcoinput * (((RCC->PLLI2SCFGR & RCC_PLLI2SCFGR_PLLI2SN) >> 6U) & (RCC_PLLI2SCFGR_PLLI2SN >> 6U)));
 8006c88:	4b10      	ldr	r3, [pc, #64]	@ (8006ccc <HAL_RCCEx_GetPeriphCLKFreq+0xb0>)
 8006c8a:	f8d3 3084 	ldr.w	r3, [r3, #132]	@ 0x84
 8006c8e:	099b      	lsrs	r3, r3, #6
 8006c90:	f3c3 0208 	ubfx	r2, r3, #0, #9
 8006c94:	693b      	ldr	r3, [r7, #16]
 8006c96:	fb02 f303 	mul.w	r3, r2, r3
 8006c9a:	60bb      	str	r3, [r7, #8]
          /* I2S_CLK = PLLI2S_VCO Output/PLLI2SR */
          frequency = (uint32_t)(vcooutput / (((RCC->PLLI2SCFGR & RCC_PLLI2SCFGR_PLLI2SR) >> 28U) & (RCC_PLLI2SCFGR_PLLI2SR >> 28U)));
 8006c9c:	4b0b      	ldr	r3, [pc, #44]	@ (8006ccc <HAL_RCCEx_GetPeriphCLKFreq+0xb0>)
 8006c9e:	f8d3 3084 	ldr.w	r3, [r3, #132]	@ 0x84
 8006ca2:	0f1b      	lsrs	r3, r3, #28
 8006ca4:	f003 0307 	and.w	r3, r3, #7
 8006ca8:	68ba      	ldr	r2, [r7, #8]
 8006caa:	fbb2 f3f3 	udiv	r3, r2, r3
 8006cae:	617b      	str	r3, [r7, #20]
          break;
 8006cb0:	e002      	b.n	8006cb8 <HAL_RCCEx_GetPeriphCLKFreq+0x9c>
        }
        /* Clock not enabled for I2S*/
        default:
        {
          frequency = 0U;
 8006cb2:	2300      	movs	r3, #0
 8006cb4:	617b      	str	r3, [r7, #20]
          break;
 8006cb6:	bf00      	nop
        }
      }
      break;
 8006cb8:	e000      	b.n	8006cbc <HAL_RCCEx_GetPeriphCLKFreq+0xa0>
    }
    default:
    {
      break;
 8006cba:	bf00      	nop
    }
  }
  return frequency;
 8006cbc:	697b      	ldr	r3, [r7, #20]
}
 8006cbe:	4618      	mov	r0, r3
 8006cc0:	371c      	adds	r7, #28
 8006cc2:	46bd      	mov	sp, r7
 8006cc4:	f85d 7b04 	ldr.w	r7, [sp], #4
 8006cc8:	4770      	bx	lr
 8006cca:	bf00      	nop
 8006ccc:	40023800 	.word	0x40023800
 8006cd0:	00bb8000 	.word	0x00bb8000
 8006cd4:	017d7840 	.word	0x017d7840
 8006cd8:	00f42400 	.word	0x00f42400

08006cdc <HAL_UART_Init>:
  * @param  huart  Pointer to a UART_HandleTypeDef structure that contains
  *                the configuration information for the specified UART module.
  * @retval HAL status
  */
HAL_StatusTypeDef HAL_UART_Init(UART_HandleTypeDef *huart)
{
 8006cdc:	b580      	push	{r7, lr}
 8006cde:	b082      	sub	sp, #8
 8006ce0:	af00      	add	r7, sp, #0
 8006ce2:	6078      	str	r0, [r7, #4]
  /* Check the UART handle allocation */
  if (huart == NULL)
 8006ce4:	687b      	ldr	r3, [r7, #4]
 8006ce6:	2b00      	cmp	r3, #0
 8006ce8:	d101      	bne.n	8006cee <HAL_UART_Init+0x12>
  {
    return HAL_ERROR;
 8006cea:	2301      	movs	r3, #1
 8006cec:	e042      	b.n	8006d74 <HAL_UART_Init+0x98>
    assert_param(IS_UART_INSTANCE(huart->Instance));
  }
  assert_param(IS_UART_WORD_LENGTH(huart->Init.WordLength));
  assert_param(IS_UART_OVERSAMPLING(huart->Init.OverSampling));

  if (huart->gState == HAL_UART_STATE_RESET)
 8006cee:	687b      	ldr	r3, [r7, #4]
 8006cf0:	f893 3041 	ldrb.w	r3, [r3, #65]	@ 0x41
 8006cf4:	b2db      	uxtb	r3, r3
 8006cf6:	2b00      	cmp	r3, #0
 8006cf8:	d106      	bne.n	8006d08 <HAL_UART_Init+0x2c>
  {
    /* Allocate lock resource and initialize it */
    huart->Lock = HAL_UNLOCKED;
 8006cfa:	687b      	ldr	r3, [r7, #4]
 8006cfc:	2200      	movs	r2, #0
 8006cfe:	f883 2040 	strb.w	r2, [r3, #64]	@ 0x40

    /* Init the low level hardware */
    huart->MspInitCallback(huart);
#else
    /* Init the low level hardware : GPIO, CLOCK */
    HAL_UART_MspInit(huart);
 8006d02:	6878      	ldr	r0, [r7, #4]
 8006d04:	f7fa fda2 	bl	800184c <HAL_UART_MspInit>
#endif /* (USE_HAL_UART_REGISTER_CALLBACKS) */
  }

  huart->gState = HAL_UART_STATE_BUSY;
 8006d08:	687b      	ldr	r3, [r7, #4]
 8006d0a:	2224      	movs	r2, #36	@ 0x24
 8006d0c:	f883 2041 	strb.w	r2, [r3, #65]	@ 0x41

  /* Disable the peripheral */
  __HAL_UART_DISABLE(huart);
 8006d10:	687b      	ldr	r3, [r7, #4]
 8006d12:	681b      	ldr	r3, [r3, #0]
 8006d14:	68da      	ldr	r2, [r3, #12]
 8006d16:	687b      	ldr	r3, [r7, #4]
 8006d18:	681b      	ldr	r3, [r3, #0]
 8006d1a:	f422 5200 	bic.w	r2, r2, #8192	@ 0x2000
 8006d1e:	60da      	str	r2, [r3, #12]

  /* Set the UART Communication parameters */
  UART_SetConfig(huart);
 8006d20:	6878      	ldr	r0, [r7, #4]
 8006d22:	f000 f973 	bl	800700c <UART_SetConfig>

  /* In asynchronous mode, the following bits must be kept cleared:
     - LINEN and CLKEN bits in the USART_CR2 register,
     - SCEN, HDSEL and IREN  bits in the USART_CR3 register.*/
  CLEAR_BIT(huart->Instance->CR2, (USART_CR2_LINEN | USART_CR2_CLKEN));
 8006d26:	687b      	ldr	r3, [r7, #4]
 8006d28:	681b      	ldr	r3, [r3, #0]
 8006d2a:	691a      	ldr	r2, [r3, #16]
 8006d2c:	687b      	ldr	r3, [r7, #4]
 8006d2e:	681b      	ldr	r3, [r3, #0]
 8006d30:	f422 4290 	bic.w	r2, r2, #18432	@ 0x4800
 8006d34:	611a      	str	r2, [r3, #16]
  CLEAR_BIT(huart->Instance->CR3, (USART_CR3_SCEN | USART_CR3_HDSEL | USART_CR3_IREN));
 8006d36:	687b      	ldr	r3, [r7, #4]
 8006d38:	681b      	ldr	r3, [r3, #0]
 8006d3a:	695a      	ldr	r2, [r3, #20]
 8006d3c:	687b      	ldr	r3, [r7, #4]
 8006d3e:	681b      	ldr	r3, [r3, #0]
 8006d40:	f022 022a 	bic.w	r2, r2, #42	@ 0x2a
 8006d44:	615a      	str	r2, [r3, #20]

  /* Enable the peripheral */
  __HAL_UART_ENABLE(huart);
 8006d46:	687b      	ldr	r3, [r7, #4]
 8006d48:	681b      	ldr	r3, [r3, #0]
 8006d4a:	68da      	ldr	r2, [r3, #12]
 8006d4c:	687b      	ldr	r3, [r7, #4]
 8006d4e:	681b      	ldr	r3, [r3, #0]
 8006d50:	f442 5200 	orr.w	r2, r2, #8192	@ 0x2000
 8006d54:	60da      	str	r2, [r3, #12]

  /* Initialize the UART state */
  huart->ErrorCode = HAL_UART_ERROR_NONE;
 8006d56:	687b      	ldr	r3, [r7, #4]
 8006d58:	2200      	movs	r2, #0
 8006d5a:	645a      	str	r2, [r3, #68]	@ 0x44
  huart->gState = HAL_UART_STATE_READY;
 8006d5c:	687b      	ldr	r3, [r7, #4]
 8006d5e:	2220      	movs	r2, #32
 8006d60:	f883 2041 	strb.w	r2, [r3, #65]	@ 0x41
  huart->RxState = HAL_UART_STATE_READY;
 8006d64:	687b      	ldr	r3, [r7, #4]
 8006d66:	2220      	movs	r2, #32
 8006d68:	f883 2042 	strb.w	r2, [r3, #66]	@ 0x42
  huart->RxEventType = HAL_UART_RXEVENT_TC;
 8006d6c:	687b      	ldr	r3, [r7, #4]
 8006d6e:	2200      	movs	r2, #0
 8006d70:	635a      	str	r2, [r3, #52]	@ 0x34

  return HAL_OK;
 8006d72:	2300      	movs	r3, #0
}
 8006d74:	4618      	mov	r0, r3
 8006d76:	3708      	adds	r7, #8
 8006d78:	46bd      	mov	sp, r7
 8006d7a:	bd80      	pop	{r7, pc}

08006d7c <HAL_UART_Transmit>:
  * @param  Size  Amount of data elements (u8 or u16) to be sent
  * @param  Timeout Timeout duration
  * @retval HAL status
  */
HAL_StatusTypeDef HAL_UART_Transmit(UART_HandleTypeDef *huart, const uint8_t *pData, uint16_t Size, uint32_t Timeout)
{
 8006d7c:	b580      	push	{r7, lr}
 8006d7e:	b08a      	sub	sp, #40	@ 0x28
 8006d80:	af02      	add	r7, sp, #8
 8006d82:	60f8      	str	r0, [r7, #12]
 8006d84:	60b9      	str	r1, [r7, #8]
 8006d86:	603b      	str	r3, [r7, #0]
 8006d88:	4613      	mov	r3, r2
 8006d8a:	80fb      	strh	r3, [r7, #6]
  const uint8_t  *pdata8bits;
  const uint16_t *pdata16bits;
  uint32_t tickstart = 0U;
 8006d8c:	2300      	movs	r3, #0
 8006d8e:	617b      	str	r3, [r7, #20]

  /* Check that a Tx process is not already ongoing */
  if (huart->gState == HAL_UART_STATE_READY)
 8006d90:	68fb      	ldr	r3, [r7, #12]
 8006d92:	f893 3041 	ldrb.w	r3, [r3, #65]	@ 0x41
 8006d96:	b2db      	uxtb	r3, r3
 8006d98:	2b20      	cmp	r3, #32
 8006d9a:	d175      	bne.n	8006e88 <HAL_UART_Transmit+0x10c>
  {
    if ((pData == NULL) || (Size == 0U))
 8006d9c:	68bb      	ldr	r3, [r7, #8]
 8006d9e:	2b00      	cmp	r3, #0
 8006da0:	d002      	beq.n	8006da8 <HAL_UART_Transmit+0x2c>
 8006da2:	88fb      	ldrh	r3, [r7, #6]
 8006da4:	2b00      	cmp	r3, #0
 8006da6:	d101      	bne.n	8006dac <HAL_UART_Transmit+0x30>
    {
      return  HAL_ERROR;
 8006da8:	2301      	movs	r3, #1
 8006daa:	e06e      	b.n	8006e8a <HAL_UART_Transmit+0x10e>
    }

    huart->ErrorCode = HAL_UART_ERROR_NONE;
 8006dac:	68fb      	ldr	r3, [r7, #12]
 8006dae:	2200      	movs	r2, #0
 8006db0:	645a      	str	r2, [r3, #68]	@ 0x44
    huart->gState = HAL_UART_STATE_BUSY_TX;
 8006db2:	68fb      	ldr	r3, [r7, #12]
 8006db4:	2221      	movs	r2, #33	@ 0x21
 8006db6:	f883 2041 	strb.w	r2, [r3, #65]	@ 0x41

    /* Init tickstart for timeout management */
    tickstart = HAL_GetTick();
 8006dba:	f7fd fddd 	bl	8004978 <HAL_GetTick>
 8006dbe:	6178      	str	r0, [r7, #20]

    huart->TxXferSize = Size;
 8006dc0:	68fb      	ldr	r3, [r7, #12]
 8006dc2:	88fa      	ldrh	r2, [r7, #6]
 8006dc4:	849a      	strh	r2, [r3, #36]	@ 0x24
    huart->TxXferCount = Size;
 8006dc6:	68fb      	ldr	r3, [r7, #12]
 8006dc8:	88fa      	ldrh	r2, [r7, #6]
 8006dca:	84da      	strh	r2, [r3, #38]	@ 0x26

    /* In case of 9bits/No Parity transfer, pData needs to be handled as a uint16_t pointer */
    if ((huart->Init.WordLength == UART_WORDLENGTH_9B) && (huart->Init.Parity == UART_PARITY_NONE))
 8006dcc:	68fb      	ldr	r3, [r7, #12]
 8006dce:	689b      	ldr	r3, [r3, #8]
 8006dd0:	f5b3 5f80 	cmp.w	r3, #4096	@ 0x1000
 8006dd4:	d108      	bne.n	8006de8 <HAL_UART_Transmit+0x6c>
 8006dd6:	68fb      	ldr	r3, [r7, #12]
 8006dd8:	691b      	ldr	r3, [r3, #16]
 8006dda:	2b00      	cmp	r3, #0
 8006ddc:	d104      	bne.n	8006de8 <HAL_UART_Transmit+0x6c>
    {
      pdata8bits  = NULL;
 8006dde:	2300      	movs	r3, #0
 8006de0:	61fb      	str	r3, [r7, #28]
      pdata16bits = (const uint16_t *) pData;
 8006de2:	68bb      	ldr	r3, [r7, #8]
 8006de4:	61bb      	str	r3, [r7, #24]
 8006de6:	e003      	b.n	8006df0 <HAL_UART_Transmit+0x74>
    }
    else
    {
      pdata8bits  = pData;
 8006de8:	68bb      	ldr	r3, [r7, #8]
 8006dea:	61fb      	str	r3, [r7, #28]
      pdata16bits = NULL;
 8006dec:	2300      	movs	r3, #0
 8006dee:	61bb      	str	r3, [r7, #24]
    }

    while (huart->TxXferCount > 0U)
 8006df0:	e02e      	b.n	8006e50 <HAL_UART_Transmit+0xd4>
    {
      if (UART_WaitOnFlagUntilTimeout(huart, UART_FLAG_TXE, RESET, tickstart, Timeout) != HAL_OK)
 8006df2:	683b      	ldr	r3, [r7, #0]
 8006df4:	9300      	str	r3, [sp, #0]
 8006df6:	697b      	ldr	r3, [r7, #20]
 8006df8:	2200      	movs	r2, #0
 8006dfa:	2180      	movs	r1, #128	@ 0x80
 8006dfc:	68f8      	ldr	r0, [r7, #12]
 8006dfe:	f000 f848 	bl	8006e92 <UART_WaitOnFlagUntilTimeout>
 8006e02:	4603      	mov	r3, r0
 8006e04:	2b00      	cmp	r3, #0
 8006e06:	d005      	beq.n	8006e14 <HAL_UART_Transmit+0x98>
      {
        huart->gState = HAL_UART_STATE_READY;
 8006e08:	68fb      	ldr	r3, [r7, #12]
 8006e0a:	2220      	movs	r2, #32
 8006e0c:	f883 2041 	strb.w	r2, [r3, #65]	@ 0x41

        return HAL_TIMEOUT;
 8006e10:	2303      	movs	r3, #3
 8006e12:	e03a      	b.n	8006e8a <HAL_UART_Transmit+0x10e>
      }
      if (pdata8bits == NULL)
 8006e14:	69fb      	ldr	r3, [r7, #28]
 8006e16:	2b00      	cmp	r3, #0
 8006e18:	d10b      	bne.n	8006e32 <HAL_UART_Transmit+0xb6>
      {
        huart->Instance->DR = (uint16_t)(*pdata16bits & 0x01FFU);
 8006e1a:	69bb      	ldr	r3, [r7, #24]
 8006e1c:	881b      	ldrh	r3, [r3, #0]
 8006e1e:	461a      	mov	r2, r3
 8006e20:	68fb      	ldr	r3, [r7, #12]
 8006e22:	681b      	ldr	r3, [r3, #0]
 8006e24:	f3c2 0208 	ubfx	r2, r2, #0, #9
 8006e28:	605a      	str	r2, [r3, #4]
        pdata16bits++;
 8006e2a:	69bb      	ldr	r3, [r7, #24]
 8006e2c:	3302      	adds	r3, #2
 8006e2e:	61bb      	str	r3, [r7, #24]
 8006e30:	e007      	b.n	8006e42 <HAL_UART_Transmit+0xc6>
      }
      else
      {
        huart->Instance->DR = (uint8_t)(*pdata8bits & 0xFFU);
 8006e32:	69fb      	ldr	r3, [r7, #28]
 8006e34:	781a      	ldrb	r2, [r3, #0]
 8006e36:	68fb      	ldr	r3, [r7, #12]
 8006e38:	681b      	ldr	r3, [r3, #0]
 8006e3a:	605a      	str	r2, [r3, #4]
        pdata8bits++;
 8006e3c:	69fb      	ldr	r3, [r7, #28]
 8006e3e:	3301      	adds	r3, #1
 8006e40:	61fb      	str	r3, [r7, #28]
      }
      huart->TxXferCount--;
 8006e42:	68fb      	ldr	r3, [r7, #12]
 8006e44:	8cdb      	ldrh	r3, [r3, #38]	@ 0x26
 8006e46:	b29b      	uxth	r3, r3
 8006e48:	3b01      	subs	r3, #1
 8006e4a:	b29a      	uxth	r2, r3
 8006e4c:	68fb      	ldr	r3, [r7, #12]
 8006e4e:	84da      	strh	r2, [r3, #38]	@ 0x26
    while (huart->TxXferCount > 0U)
 8006e50:	68fb      	ldr	r3, [r7, #12]
 8006e52:	8cdb      	ldrh	r3, [r3, #38]	@ 0x26
 8006e54:	b29b      	uxth	r3, r3
 8006e56:	2b00      	cmp	r3, #0
 8006e58:	d1cb      	bne.n	8006df2 <HAL_UART_Transmit+0x76>
    }

    if (UART_WaitOnFlagUntilTimeout(huart, UART_FLAG_TC, RESET, tickstart, Timeout) != HAL_OK)
 8006e5a:	683b      	ldr	r3, [r7, #0]
 8006e5c:	9300      	str	r3, [sp, #0]
 8006e5e:	697b      	ldr	r3, [r7, #20]
 8006e60:	2200      	movs	r2, #0
 8006e62:	2140      	movs	r1, #64	@ 0x40
 8006e64:	68f8      	ldr	r0, [r7, #12]
 8006e66:	f000 f814 	bl	8006e92 <UART_WaitOnFlagUntilTimeout>
 8006e6a:	4603      	mov	r3, r0
 8006e6c:	2b00      	cmp	r3, #0
 8006e6e:	d005      	beq.n	8006e7c <HAL_UART_Transmit+0x100>
    {
      huart->gState = HAL_UART_STATE_READY;
 8006e70:	68fb      	ldr	r3, [r7, #12]
 8006e72:	2220      	movs	r2, #32
 8006e74:	f883 2041 	strb.w	r2, [r3, #65]	@ 0x41

      return HAL_TIMEOUT;
 8006e78:	2303      	movs	r3, #3
 8006e7a:	e006      	b.n	8006e8a <HAL_UART_Transmit+0x10e>
    }

    /* At end of Tx process, restore huart->gState to Ready */
    huart->gState = HAL_UART_STATE_READY;
 8006e7c:	68fb      	ldr	r3, [r7, #12]
 8006e7e:	2220      	movs	r2, #32
 8006e80:	f883 2041 	strb.w	r2, [r3, #65]	@ 0x41

    return HAL_OK;
 8006e84:	2300      	movs	r3, #0
 8006e86:	e000      	b.n	8006e8a <HAL_UART_Transmit+0x10e>
  }
  else
  {
    return HAL_BUSY;
 8006e88:	2302      	movs	r3, #2
  }
}
 8006e8a:	4618      	mov	r0, r3
 8006e8c:	3720      	adds	r7, #32
 8006e8e:	46bd      	mov	sp, r7
 8006e90:	bd80      	pop	{r7, pc}

08006e92 <UART_WaitOnFlagUntilTimeout>:
  * @param  Timeout Timeout duration
  * @retval HAL status
  */
static HAL_StatusTypeDef UART_WaitOnFlagUntilTimeout(UART_HandleTypeDef *huart, uint32_t Flag, FlagStatus Status,
                                                     uint32_t Tickstart, uint32_t Timeout)
{
 8006e92:	b580      	push	{r7, lr}
 8006e94:	b086      	sub	sp, #24
 8006e96:	af00      	add	r7, sp, #0
 8006e98:	60f8      	str	r0, [r7, #12]
 8006e9a:	60b9      	str	r1, [r7, #8]
 8006e9c:	603b      	str	r3, [r7, #0]
 8006e9e:	4613      	mov	r3, r2
 8006ea0:	71fb      	strb	r3, [r7, #7]
  /* Wait until flag is set */
  while ((__HAL_UART_GET_FLAG(huart, Flag) ? SET : RESET) == Status)
 8006ea2:	e03b      	b.n	8006f1c <UART_WaitOnFlagUntilTimeout+0x8a>
  {
    /* Check for the Timeout */
    if (Timeout != HAL_MAX_DELAY)
 8006ea4:	6a3b      	ldr	r3, [r7, #32]
 8006ea6:	f1b3 3fff 	cmp.w	r3, #4294967295
 8006eaa:	d037      	beq.n	8006f1c <UART_WaitOnFlagUntilTimeout+0x8a>
    {
      if (((HAL_GetTick() - Tickstart) > Timeout) || (Timeout == 0U))
 8006eac:	f7fd fd64 	bl	8004978 <HAL_GetTick>
 8006eb0:	4602      	mov	r2, r0
 8006eb2:	683b      	ldr	r3, [r7, #0]
 8006eb4:	1ad3      	subs	r3, r2, r3
 8006eb6:	6a3a      	ldr	r2, [r7, #32]
 8006eb8:	429a      	cmp	r2, r3
 8006eba:	d302      	bcc.n	8006ec2 <UART_WaitOnFlagUntilTimeout+0x30>
 8006ebc:	6a3b      	ldr	r3, [r7, #32]
 8006ebe:	2b00      	cmp	r3, #0
 8006ec0:	d101      	bne.n	8006ec6 <UART_WaitOnFlagUntilTimeout+0x34>
      {

        return HAL_TIMEOUT;
 8006ec2:	2303      	movs	r3, #3
 8006ec4:	e03a      	b.n	8006f3c <UART_WaitOnFlagUntilTimeout+0xaa>
      }

      if ((READ_BIT(huart->Instance->CR1, USART_CR1_RE) != 0U) && (Flag != UART_FLAG_TXE) && (Flag != UART_FLAG_TC))
 8006ec6:	68fb      	ldr	r3, [r7, #12]
 8006ec8:	681b      	ldr	r3, [r3, #0]
 8006eca:	68db      	ldr	r3, [r3, #12]
 8006ecc:	f003 0304 	and.w	r3, r3, #4
 8006ed0:	2b00      	cmp	r3, #0
 8006ed2:	d023      	beq.n	8006f1c <UART_WaitOnFlagUntilTimeout+0x8a>
 8006ed4:	68bb      	ldr	r3, [r7, #8]
 8006ed6:	2b80      	cmp	r3, #128	@ 0x80
 8006ed8:	d020      	beq.n	8006f1c <UART_WaitOnFlagUntilTimeout+0x8a>
 8006eda:	68bb      	ldr	r3, [r7, #8]
 8006edc:	2b40      	cmp	r3, #64	@ 0x40
 8006ede:	d01d      	beq.n	8006f1c <UART_WaitOnFlagUntilTimeout+0x8a>
      {
        if (__HAL_UART_GET_FLAG(huart, UART_FLAG_ORE) == SET)
 8006ee0:	68fb      	ldr	r3, [r7, #12]
 8006ee2:	681b      	ldr	r3, [r3, #0]
 8006ee4:	681b      	ldr	r3, [r3, #0]
 8006ee6:	f003 0308 	and.w	r3, r3, #8
 8006eea:	2b08      	cmp	r3, #8
 8006eec:	d116      	bne.n	8006f1c <UART_WaitOnFlagUntilTimeout+0x8a>
        {
          /* Clear Overrun Error flag*/
          __HAL_UART_CLEAR_OREFLAG(huart);
 8006eee:	2300      	movs	r3, #0
 8006ef0:	617b      	str	r3, [r7, #20]
 8006ef2:	68fb      	ldr	r3, [r7, #12]
 8006ef4:	681b      	ldr	r3, [r3, #0]
 8006ef6:	681b      	ldr	r3, [r3, #0]
 8006ef8:	617b      	str	r3, [r7, #20]
 8006efa:	68fb      	ldr	r3, [r7, #12]
 8006efc:	681b      	ldr	r3, [r3, #0]
 8006efe:	685b      	ldr	r3, [r3, #4]
 8006f00:	617b      	str	r3, [r7, #20]
 8006f02:	697b      	ldr	r3, [r7, #20]

          /* Blocking error : transfer is aborted
          Set the UART state ready to be able to start again the process,
          Disable Rx Interrupts if ongoing */
          UART_EndRxTransfer(huart);
 8006f04:	68f8      	ldr	r0, [r7, #12]
 8006f06:	f000 f81d 	bl	8006f44 <UART_EndRxTransfer>

          huart->ErrorCode = HAL_UART_ERROR_ORE;
 8006f0a:	68fb      	ldr	r3, [r7, #12]
 8006f0c:	2208      	movs	r2, #8
 8006f0e:	645a      	str	r2, [r3, #68]	@ 0x44

          /* Process Unlocked */
          __HAL_UNLOCK(huart);
 8006f10:	68fb      	ldr	r3, [r7, #12]
 8006f12:	2200      	movs	r2, #0
 8006f14:	f883 2040 	strb.w	r2, [r3, #64]	@ 0x40

          return HAL_ERROR;
 8006f18:	2301      	movs	r3, #1
 8006f1a:	e00f      	b.n	8006f3c <UART_WaitOnFlagUntilTimeout+0xaa>
  while ((__HAL_UART_GET_FLAG(huart, Flag) ? SET : RESET) == Status)
 8006f1c:	68fb      	ldr	r3, [r7, #12]
 8006f1e:	681b      	ldr	r3, [r3, #0]
 8006f20:	681a      	ldr	r2, [r3, #0]
 8006f22:	68bb      	ldr	r3, [r7, #8]
 8006f24:	4013      	ands	r3, r2
 8006f26:	68ba      	ldr	r2, [r7, #8]
 8006f28:	429a      	cmp	r2, r3
 8006f2a:	bf0c      	ite	eq
 8006f2c:	2301      	moveq	r3, #1
 8006f2e:	2300      	movne	r3, #0
 8006f30:	b2db      	uxtb	r3, r3
 8006f32:	461a      	mov	r2, r3
 8006f34:	79fb      	ldrb	r3, [r7, #7]
 8006f36:	429a      	cmp	r2, r3
 8006f38:	d0b4      	beq.n	8006ea4 <UART_WaitOnFlagUntilTimeout+0x12>
        }
      }
    }
  }
  return HAL_OK;
 8006f3a:	2300      	movs	r3, #0
}
 8006f3c:	4618      	mov	r0, r3
 8006f3e:	3718      	adds	r7, #24
 8006f40:	46bd      	mov	sp, r7
 8006f42:	bd80      	pop	{r7, pc}

08006f44 <UART_EndRxTransfer>:
  * @brief  End ongoing Rx transfer on UART peripheral (following error detection or Reception completion).
  * @param  huart UART handle.
  * @retval None
  */
static void UART_EndRxTransfer(UART_HandleTypeDef *huart)
{
 8006f44:	b480      	push	{r7}
 8006f46:	b095      	sub	sp, #84	@ 0x54
 8006f48:	af00      	add	r7, sp, #0
 8006f4a:	6078      	str	r0, [r7, #4]
  /* Disable RXNE, PE and ERR (Frame error, noise error, overrun error) interrupts */
  ATOMIC_CLEAR_BIT(huart->Instance->CR1, (USART_CR1_RXNEIE | USART_CR1_PEIE));
 8006f4c:	687b      	ldr	r3, [r7, #4]
 8006f4e:	681b      	ldr	r3, [r3, #0]
 8006f50:	330c      	adds	r3, #12
 8006f52:	637b      	str	r3, [r7, #52]	@ 0x34
   __ASM volatile ("ldrex %0, %1" : "=r" (result) : "Q" (*addr) );
 8006f54:	6b7b      	ldr	r3, [r7, #52]	@ 0x34
 8006f56:	e853 3f00 	ldrex	r3, [r3]
 8006f5a:	633b      	str	r3, [r7, #48]	@ 0x30
   return(result);
 8006f5c:	6b3b      	ldr	r3, [r7, #48]	@ 0x30
 8006f5e:	f423 7390 	bic.w	r3, r3, #288	@ 0x120
 8006f62:	64fb      	str	r3, [r7, #76]	@ 0x4c
 8006f64:	687b      	ldr	r3, [r7, #4]
 8006f66:	681b      	ldr	r3, [r3, #0]
 8006f68:	330c      	adds	r3, #12
 8006f6a:	6cfa      	ldr	r2, [r7, #76]	@ 0x4c
 8006f6c:	643a      	str	r2, [r7, #64]	@ 0x40
 8006f6e:	63fb      	str	r3, [r7, #60]	@ 0x3c
   __ASM volatile ("strex %0, %2, %1" : "=&r" (result), "=Q" (*addr) : "r" (value) );
 8006f70:	6bf9      	ldr	r1, [r7, #60]	@ 0x3c
 8006f72:	6c3a      	ldr	r2, [r7, #64]	@ 0x40
 8006f74:	e841 2300 	strex	r3, r2, [r1]
 8006f78:	63bb      	str	r3, [r7, #56]	@ 0x38
   return(result);
 8006f7a:	6bbb      	ldr	r3, [r7, #56]	@ 0x38
 8006f7c:	2b00      	cmp	r3, #0
 8006f7e:	d1e5      	bne.n	8006f4c <UART_EndRxTransfer+0x8>
  ATOMIC_CLEAR_BIT(huart->Instance->CR3, USART_CR3_EIE);
 8006f80:	687b      	ldr	r3, [r7, #4]
 8006f82:	681b      	ldr	r3, [r3, #0]
 8006f84:	3314      	adds	r3, #20
 8006f86:	623b      	str	r3, [r7, #32]
   __ASM volatile ("ldrex %0, %1" : "=r" (result) : "Q" (*addr) );
 8006f88:	6a3b      	ldr	r3, [r7, #32]
 8006f8a:	e853 3f00 	ldrex	r3, [r3]
 8006f8e:	61fb      	str	r3, [r7, #28]
   return(result);
 8006f90:	69fb      	ldr	r3, [r7, #28]
 8006f92:	f023 0301 	bic.w	r3, r3, #1
 8006f96:	64bb      	str	r3, [r7, #72]	@ 0x48
 8006f98:	687b      	ldr	r3, [r7, #4]
 8006f9a:	681b      	ldr	r3, [r3, #0]
 8006f9c:	3314      	adds	r3, #20
 8006f9e:	6cba      	ldr	r2, [r7, #72]	@ 0x48
 8006fa0:	62fa      	str	r2, [r7, #44]	@ 0x2c
 8006fa2:	62bb      	str	r3, [r7, #40]	@ 0x28
   __ASM volatile ("strex %0, %2, %1" : "=&r" (result), "=Q" (*addr) : "r" (value) );
 8006fa4:	6ab9      	ldr	r1, [r7, #40]	@ 0x28
 8006fa6:	6afa      	ldr	r2, [r7, #44]	@ 0x2c
 8006fa8:	e841 2300 	strex	r3, r2, [r1]
 8006fac:	627b      	str	r3, [r7, #36]	@ 0x24
   return(result);
 8006fae:	6a7b      	ldr	r3, [r7, #36]	@ 0x24
 8006fb0:	2b00      	cmp	r3, #0
 8006fb2:	d1e5      	bne.n	8006f80 <UART_EndRxTransfer+0x3c>

  /* In case of reception waiting for IDLE event, disable also the IDLE IE interrupt source */
  if (huart->ReceptionType == HAL_UART_RECEPTION_TOIDLE)
 8006fb4:	687b      	ldr	r3, [r7, #4]
 8006fb6:	6b1b      	ldr	r3, [r3, #48]	@ 0x30
 8006fb8:	2b01      	cmp	r3, #1
 8006fba:	d119      	bne.n	8006ff0 <UART_EndRxTransfer+0xac>
  {
    ATOMIC_CLEAR_BIT(huart->Instance->CR1, USART_CR1_IDLEIE);
 8006fbc:	687b      	ldr	r3, [r7, #4]
 8006fbe:	681b      	ldr	r3, [r3, #0]
 8006fc0:	330c      	adds	r3, #12
 8006fc2:	60fb      	str	r3, [r7, #12]
   __ASM volatile ("ldrex %0, %1" : "=r" (result) : "Q" (*addr) );
 8006fc4:	68fb      	ldr	r3, [r7, #12]
 8006fc6:	e853 3f00 	ldrex	r3, [r3]
 8006fca:	60bb      	str	r3, [r7, #8]
   return(result);
 8006fcc:	68bb      	ldr	r3, [r7, #8]
 8006fce:	f023 0310 	bic.w	r3, r3, #16
 8006fd2:	647b      	str	r3, [r7, #68]	@ 0x44
 8006fd4:	687b      	ldr	r3, [r7, #4]
 8006fd6:	681b      	ldr	r3, [r3, #0]
 8006fd8:	330c      	adds	r3, #12
 8006fda:	6c7a      	ldr	r2, [r7, #68]	@ 0x44
 8006fdc:	61ba      	str	r2, [r7, #24]
 8006fde:	617b      	str	r3, [r7, #20]
   __ASM volatile ("strex %0, %2, %1" : "=&r" (result), "=Q" (*addr) : "r" (value) );
 8006fe0:	6979      	ldr	r1, [r7, #20]
 8006fe2:	69ba      	ldr	r2, [r7, #24]
 8006fe4:	e841 2300 	strex	r3, r2, [r1]
 8006fe8:	613b      	str	r3, [r7, #16]
   return(result);
 8006fea:	693b      	ldr	r3, [r7, #16]
 8006fec:	2b00      	cmp	r3, #0
 8006fee:	d1e5      	bne.n	8006fbc <UART_EndRxTransfer+0x78>
  }

  /* At end of Rx process, restore huart->RxState to Ready */
  huart->RxState = HAL_UART_STATE_READY;
 8006ff0:	687b      	ldr	r3, [r7, #4]
 8006ff2:	2220      	movs	r2, #32
 8006ff4:	f883 2042 	strb.w	r2, [r3, #66]	@ 0x42
  huart->ReceptionType = HAL_UART_RECEPTION_STANDARD;
 8006ff8:	687b      	ldr	r3, [r7, #4]
 8006ffa:	2200      	movs	r2, #0
 8006ffc:	631a      	str	r2, [r3, #48]	@ 0x30
}
 8006ffe:	bf00      	nop
 8007000:	3754      	adds	r7, #84	@ 0x54
 8007002:	46bd      	mov	sp, r7
 8007004:	f85d 7b04 	ldr.w	r7, [sp], #4
 8007008:	4770      	bx	lr
	...

0800700c <UART_SetConfig>:
  * @param  huart  Pointer to a UART_HandleTypeDef structure that contains
  *                the configuration information for the specified UART module.
  * @retval None
  */
static void UART_SetConfig(UART_HandleTypeDef *huart)
{
 800700c:	e92d 4fb0 	stmdb	sp!, {r4, r5, r7, r8, r9, sl, fp, lr}
 8007010:	b0c0      	sub	sp, #256	@ 0x100
 8007012:	af00      	add	r7, sp, #0
 8007014:	f8c7 00f4 	str.w	r0, [r7, #244]	@ 0xf4
  assert_param(IS_UART_MODE(huart->Init.Mode));

  /*-------------------------- USART CR2 Configuration -----------------------*/
  /* Configure the UART Stop Bits: Set STOP[13:12] bits
     according to huart->Init.StopBits value */
  MODIFY_REG(huart->Instance->CR2, USART_CR2_STOP, huart->Init.StopBits);
 8007018:	f8d7 30f4 	ldr.w	r3, [r7, #244]	@ 0xf4
 800701c:	681b      	ldr	r3, [r3, #0]
 800701e:	691b      	ldr	r3, [r3, #16]
 8007020:	f423 5040 	bic.w	r0, r3, #12288	@ 0x3000
 8007024:	f8d7 30f4 	ldr.w	r3, [r7, #244]	@ 0xf4
 8007028:	68d9      	ldr	r1, [r3, #12]
 800702a:	f8d7 30f4 	ldr.w	r3, [r7, #244]	@ 0xf4
 800702e:	681a      	ldr	r2, [r3, #0]
 8007030:	ea40 0301 	orr.w	r3, r0, r1
 8007034:	6113      	str	r3, [r2, #16]
     Set the M bits according to huart->Init.WordLength value
     Set PCE and PS bits according to huart->Init.Parity value
     Set TE and RE bits according to huart->Init.Mode value
     Set OVER8 bit according to huart->Init.OverSampling value */

  tmpreg = (uint32_t)huart->Init.WordLength | huart->Init.Parity | huart->Init.Mode | huart->Init.OverSampling;
 8007036:	f8d7 30f4 	ldr.w	r3, [r7, #244]	@ 0xf4
 800703a:	689a      	ldr	r2, [r3, #8]
 800703c:	f8d7 30f4 	ldr.w	r3, [r7, #244]	@ 0xf4
 8007040:	691b      	ldr	r3, [r3, #16]
 8007042:	431a      	orrs	r2, r3
 8007044:	f8d7 30f4 	ldr.w	r3, [r7, #244]	@ 0xf4
 8007048:	695b      	ldr	r3, [r3, #20]
 800704a:	431a      	orrs	r2, r3
 800704c:	f8d7 30f4 	ldr.w	r3, [r7, #244]	@ 0xf4
 8007050:	69db      	ldr	r3, [r3, #28]
 8007052:	4313      	orrs	r3, r2
 8007054:	f8c7 30f8 	str.w	r3, [r7, #248]	@ 0xf8
  MODIFY_REG(huart->Instance->CR1,
 8007058:	f8d7 30f4 	ldr.w	r3, [r7, #244]	@ 0xf4
 800705c:	681b      	ldr	r3, [r3, #0]
 800705e:	68db      	ldr	r3, [r3, #12]
 8007060:	f423 4116 	bic.w	r1, r3, #38400	@ 0x9600
 8007064:	f021 010c 	bic.w	r1, r1, #12
 8007068:	f8d7 30f4 	ldr.w	r3, [r7, #244]	@ 0xf4
 800706c:	681a      	ldr	r2, [r3, #0]
 800706e:	f8d7 30f8 	ldr.w	r3, [r7, #248]	@ 0xf8
 8007072:	430b      	orrs	r3, r1
 8007074:	60d3      	str	r3, [r2, #12]
             (uint32_t)(USART_CR1_M | USART_CR1_PCE | USART_CR1_PS | USART_CR1_TE | USART_CR1_RE | USART_CR1_OVER8),
             tmpreg);

  /*-------------------------- USART CR3 Configuration -----------------------*/
  /* Configure the UART HFC: Set CTSE and RTSE bits according to huart->Init.HwFlowCtl value */
  MODIFY_REG(huart->Instance->CR3, (USART_CR3_RTSE | USART_CR3_CTSE), huart->Init.HwFlowCtl);
 8007076:	f8d7 30f4 	ldr.w	r3, [r7, #244]	@ 0xf4
 800707a:	681b      	ldr	r3, [r3, #0]
 800707c:	695b      	ldr	r3, [r3, #20]
 800707e:	f423 7040 	bic.w	r0, r3, #768	@ 0x300
 8007082:	f8d7 30f4 	ldr.w	r3, [r7, #244]	@ 0xf4
 8007086:	6999      	ldr	r1, [r3, #24]
 8007088:	f8d7 30f4 	ldr.w	r3, [r7, #244]	@ 0xf4
 800708c:	681a      	ldr	r2, [r3, #0]
 800708e:	ea40 0301 	orr.w	r3, r0, r1
 8007092:	6153      	str	r3, [r2, #20]
    if ((huart->Instance == USART1) || (huart->Instance == USART6) || (huart->Instance == UART9) || (huart->Instance == UART10))
    {
      pclk = HAL_RCC_GetPCLK2Freq();
    }
#elif defined(USART6)
    if ((huart->Instance == USART1) || (huart->Instance == USART6))
 8007094:	f8d7 30f4 	ldr.w	r3, [r7, #244]	@ 0xf4
 8007098:	681a      	ldr	r2, [r3, #0]
 800709a:	4b8f      	ldr	r3, [pc, #572]	@ (80072d8 <UART_SetConfig+0x2cc>)
 800709c:	429a      	cmp	r2, r3
 800709e:	d005      	beq.n	80070ac <UART_SetConfig+0xa0>
 80070a0:	f8d7 30f4 	ldr.w	r3, [r7, #244]	@ 0xf4
 80070a4:	681a      	ldr	r2, [r3, #0]
 80070a6:	4b8d      	ldr	r3, [pc, #564]	@ (80072dc <UART_SetConfig+0x2d0>)
 80070a8:	429a      	cmp	r2, r3
 80070aa:	d104      	bne.n	80070b6 <UART_SetConfig+0xaa>
    {
      pclk = HAL_RCC_GetPCLK2Freq();
 80070ac:	f7ff fcb4 	bl	8006a18 <HAL_RCC_GetPCLK2Freq>
 80070b0:	f8c7 00fc 	str.w	r0, [r7, #252]	@ 0xfc
 80070b4:	e003      	b.n	80070be <UART_SetConfig+0xb2>
      pclk = HAL_RCC_GetPCLK2Freq();
    }
#endif /* USART6 */
    else
    {
      pclk = HAL_RCC_GetPCLK1Freq();
 80070b6:	f7ff fc9b 	bl	80069f0 <HAL_RCC_GetPCLK1Freq>
 80070ba:	f8c7 00fc 	str.w	r0, [r7, #252]	@ 0xfc
    }
  /*-------------------------- USART BRR Configuration ---------------------*/
  if (huart->Init.OverSampling == UART_OVERSAMPLING_8)
 80070be:	f8d7 30f4 	ldr.w	r3, [r7, #244]	@ 0xf4
 80070c2:	69db      	ldr	r3, [r3, #28]
 80070c4:	f5b3 4f00 	cmp.w	r3, #32768	@ 0x8000
 80070c8:	f040 810c 	bne.w	80072e4 <UART_SetConfig+0x2d8>
  {
    huart->Instance->BRR = UART_BRR_SAMPLING8(pclk, huart->Init.BaudRate);
 80070cc:	f8d7 30fc 	ldr.w	r3, [r7, #252]	@ 0xfc
 80070d0:	2200      	movs	r2, #0
 80070d2:	f8c7 30e8 	str.w	r3, [r7, #232]	@ 0xe8
 80070d6:	f8c7 20ec 	str.w	r2, [r7, #236]	@ 0xec
 80070da:	e9d7 453a 	ldrd	r4, r5, [r7, #232]	@ 0xe8
 80070de:	4622      	mov	r2, r4
 80070e0:	462b      	mov	r3, r5
 80070e2:	1891      	adds	r1, r2, r2
 80070e4:	65b9      	str	r1, [r7, #88]	@ 0x58
 80070e6:	415b      	adcs	r3, r3
 80070e8:	65fb      	str	r3, [r7, #92]	@ 0x5c
 80070ea:	e9d7 2316 	ldrd	r2, r3, [r7, #88]	@ 0x58
 80070ee:	4621      	mov	r1, r4
 80070f0:	eb12 0801 	adds.w	r8, r2, r1
 80070f4:	4629      	mov	r1, r5
 80070f6:	eb43 0901 	adc.w	r9, r3, r1
 80070fa:	f04f 0200 	mov.w	r2, #0
 80070fe:	f04f 0300 	mov.w	r3, #0
 8007102:	ea4f 03c9 	mov.w	r3, r9, lsl #3
 8007106:	ea43 7358 	orr.w	r3, r3, r8, lsr #29
 800710a:	ea4f 02c8 	mov.w	r2, r8, lsl #3
 800710e:	4690      	mov	r8, r2
 8007110:	4699      	mov	r9, r3
 8007112:	4623      	mov	r3, r4
 8007114:	eb18 0303 	adds.w	r3, r8, r3
 8007118:	f8c7 30e0 	str.w	r3, [r7, #224]	@ 0xe0
 800711c:	462b      	mov	r3, r5
 800711e:	eb49 0303 	adc.w	r3, r9, r3
 8007122:	f8c7 30e4 	str.w	r3, [r7, #228]	@ 0xe4
 8007126:	f8d7 30f4 	ldr.w	r3, [r7, #244]	@ 0xf4
 800712a:	685b      	ldr	r3, [r3, #4]
 800712c:	2200      	movs	r2, #0
 800712e:	f8c7 30d8 	str.w	r3, [r7, #216]	@ 0xd8
 8007132:	f8c7 20dc 	str.w	r2, [r7, #220]	@ 0xdc
 8007136:	e9d7 1236 	ldrd	r1, r2, [r7, #216]	@ 0xd8
 800713a:	460b      	mov	r3, r1
 800713c:	18db      	adds	r3, r3, r3
 800713e:	653b      	str	r3, [r7, #80]	@ 0x50
 8007140:	4613      	mov	r3, r2
 8007142:	eb42 0303 	adc.w	r3, r2, r3
 8007146:	657b      	str	r3, [r7, #84]	@ 0x54
 8007148:	e9d7 2314 	ldrd	r2, r3, [r7, #80]	@ 0x50
 800714c:	e9d7 0138 	ldrd	r0, r1, [r7, #224]	@ 0xe0
 8007150:	f7f9 fd32 	bl	8000bb8 <__aeabi_uldivmod>
 8007154:	4602      	mov	r2, r0
 8007156:	460b      	mov	r3, r1
 8007158:	4b61      	ldr	r3, [pc, #388]	@ (80072e0 <UART_SetConfig+0x2d4>)
 800715a:	fba3 2302 	umull	r2, r3, r3, r2
 800715e:	095b      	lsrs	r3, r3, #5
 8007160:	011c      	lsls	r4, r3, #4
 8007162:	f8d7 30fc 	ldr.w	r3, [r7, #252]	@ 0xfc
 8007166:	2200      	movs	r2, #0
 8007168:	f8c7 30d0 	str.w	r3, [r7, #208]	@ 0xd0
 800716c:	f8c7 20d4 	str.w	r2, [r7, #212]	@ 0xd4
 8007170:	e9d7 8934 	ldrd	r8, r9, [r7, #208]	@ 0xd0
 8007174:	4642      	mov	r2, r8
 8007176:	464b      	mov	r3, r9
 8007178:	1891      	adds	r1, r2, r2
 800717a:	64b9      	str	r1, [r7, #72]	@ 0x48
 800717c:	415b      	adcs	r3, r3
 800717e:	64fb      	str	r3, [r7, #76]	@ 0x4c
 8007180:	e9d7 2312 	ldrd	r2, r3, [r7, #72]	@ 0x48
 8007184:	4641      	mov	r1, r8
 8007186:	eb12 0a01 	adds.w	sl, r2, r1
 800718a:	4649      	mov	r1, r9
 800718c:	eb43 0b01 	adc.w	fp, r3, r1
 8007190:	f04f 0200 	mov.w	r2, #0
 8007194:	f04f 0300 	mov.w	r3, #0
 8007198:	ea4f 03cb 	mov.w	r3, fp, lsl #3
 800719c:	ea43 735a 	orr.w	r3, r3, sl, lsr #29
 80071a0:	ea4f 02ca 	mov.w	r2, sl, lsl #3
 80071a4:	4692      	mov	sl, r2
 80071a6:	469b      	mov	fp, r3
 80071a8:	4643      	mov	r3, r8
 80071aa:	eb1a 0303 	adds.w	r3, sl, r3
 80071ae:	f8c7 30c8 	str.w	r3, [r7, #200]	@ 0xc8
 80071b2:	464b      	mov	r3, r9
 80071b4:	eb4b 0303 	adc.w	r3, fp, r3
 80071b8:	f8c7 30cc 	str.w	r3, [r7, #204]	@ 0xcc
 80071bc:	f8d7 30f4 	ldr.w	r3, [r7, #244]	@ 0xf4
 80071c0:	685b      	ldr	r3, [r3, #4]
 80071c2:	2200      	movs	r2, #0
 80071c4:	f8c7 30c0 	str.w	r3, [r7, #192]	@ 0xc0
 80071c8:	f8c7 20c4 	str.w	r2, [r7, #196]	@ 0xc4
 80071cc:	e9d7 1230 	ldrd	r1, r2, [r7, #192]	@ 0xc0
 80071d0:	460b      	mov	r3, r1
 80071d2:	18db      	adds	r3, r3, r3
 80071d4:	643b      	str	r3, [r7, #64]	@ 0x40
 80071d6:	4613      	mov	r3, r2
 80071d8:	eb42 0303 	adc.w	r3, r2, r3
 80071dc:	647b      	str	r3, [r7, #68]	@ 0x44
 80071de:	e9d7 2310 	ldrd	r2, r3, [r7, #64]	@ 0x40
 80071e2:	e9d7 0132 	ldrd	r0, r1, [r7, #200]	@ 0xc8
 80071e6:	f7f9 fce7 	bl	8000bb8 <__aeabi_uldivmod>
 80071ea:	4602      	mov	r2, r0
 80071ec:	460b      	mov	r3, r1
 80071ee:	4611      	mov	r1, r2
 80071f0:	4b3b      	ldr	r3, [pc, #236]	@ (80072e0 <UART_SetConfig+0x2d4>)
 80071f2:	fba3 2301 	umull	r2, r3, r3, r1
 80071f6:	095b      	lsrs	r3, r3, #5
 80071f8:	2264      	movs	r2, #100	@ 0x64
 80071fa:	fb02 f303 	mul.w	r3, r2, r3
 80071fe:	1acb      	subs	r3, r1, r3
 8007200:	00db      	lsls	r3, r3, #3
 8007202:	f103 0232 	add.w	r2, r3, #50	@ 0x32
 8007206:	4b36      	ldr	r3, [pc, #216]	@ (80072e0 <UART_SetConfig+0x2d4>)
 8007208:	fba3 2302 	umull	r2, r3, r3, r2
 800720c:	095b      	lsrs	r3, r3, #5
 800720e:	005b      	lsls	r3, r3, #1
 8007210:	f403 73f8 	and.w	r3, r3, #496	@ 0x1f0
 8007214:	441c      	add	r4, r3
 8007216:	f8d7 30fc 	ldr.w	r3, [r7, #252]	@ 0xfc
 800721a:	2200      	movs	r2, #0
 800721c:	f8c7 30b8 	str.w	r3, [r7, #184]	@ 0xb8
 8007220:	f8c7 20bc 	str.w	r2, [r7, #188]	@ 0xbc
 8007224:	e9d7 892e 	ldrd	r8, r9, [r7, #184]	@ 0xb8
 8007228:	4642      	mov	r2, r8
 800722a:	464b      	mov	r3, r9
 800722c:	1891      	adds	r1, r2, r2
 800722e:	63b9      	str	r1, [r7, #56]	@ 0x38
 8007230:	415b      	adcs	r3, r3
 8007232:	63fb      	str	r3, [r7, #60]	@ 0x3c
 8007234:	e9d7 230e 	ldrd	r2, r3, [r7, #56]	@ 0x38
 8007238:	4641      	mov	r1, r8
 800723a:	1851      	adds	r1, r2, r1
 800723c:	6339      	str	r1, [r7, #48]	@ 0x30
 800723e:	4649      	mov	r1, r9
 8007240:	414b      	adcs	r3, r1
 8007242:	637b      	str	r3, [r7, #52]	@ 0x34
 8007244:	f04f 0200 	mov.w	r2, #0
 8007248:	f04f 0300 	mov.w	r3, #0
 800724c:	e9d7 ab0c 	ldrd	sl, fp, [r7, #48]	@ 0x30
 8007250:	4659      	mov	r1, fp
 8007252:	00cb      	lsls	r3, r1, #3
 8007254:	4651      	mov	r1, sl
 8007256:	ea43 7351 	orr.w	r3, r3, r1, lsr #29
 800725a:	4651      	mov	r1, sl
 800725c:	00ca      	lsls	r2, r1, #3
 800725e:	4610      	mov	r0, r2
 8007260:	4619      	mov	r1, r3
 8007262:	4603      	mov	r3, r0
 8007264:	4642      	mov	r2, r8
 8007266:	189b      	adds	r3, r3, r2
 8007268:	f8c7 30b0 	str.w	r3, [r7, #176]	@ 0xb0
 800726c:	464b      	mov	r3, r9
 800726e:	460a      	mov	r2, r1
 8007270:	eb42 0303 	adc.w	r3, r2, r3
 8007274:	f8c7 30b4 	str.w	r3, [r7, #180]	@ 0xb4
 8007278:	f8d7 30f4 	ldr.w	r3, [r7, #244]	@ 0xf4
 800727c:	685b      	ldr	r3, [r3, #4]
 800727e:	2200      	movs	r2, #0
 8007280:	f8c7 30a8 	str.w	r3, [r7, #168]	@ 0xa8
 8007284:	f8c7 20ac 	str.w	r2, [r7, #172]	@ 0xac
 8007288:	e9d7 122a 	ldrd	r1, r2, [r7, #168]	@ 0xa8
 800728c:	460b      	mov	r3, r1
 800728e:	18db      	adds	r3, r3, r3
 8007290:	62bb      	str	r3, [r7, #40]	@ 0x28
 8007292:	4613      	mov	r3, r2
 8007294:	eb42 0303 	adc.w	r3, r2, r3
 8007298:	62fb      	str	r3, [r7, #44]	@ 0x2c
 800729a:	e9d7 230a 	ldrd	r2, r3, [r7, #40]	@ 0x28
 800729e:	e9d7 012c 	ldrd	r0, r1, [r7, #176]	@ 0xb0
 80072a2:	f7f9 fc89 	bl	8000bb8 <__aeabi_uldivmod>
 80072a6:	4602      	mov	r2, r0
 80072a8:	460b      	mov	r3, r1
 80072aa:	4b0d      	ldr	r3, [pc, #52]	@ (80072e0 <UART_SetConfig+0x2d4>)
 80072ac:	fba3 1302 	umull	r1, r3, r3, r2
 80072b0:	095b      	lsrs	r3, r3, #5
 80072b2:	2164      	movs	r1, #100	@ 0x64
 80072b4:	fb01 f303 	mul.w	r3, r1, r3
 80072b8:	1ad3      	subs	r3, r2, r3
 80072ba:	00db      	lsls	r3, r3, #3
 80072bc:	3332      	adds	r3, #50	@ 0x32
 80072be:	4a08      	ldr	r2, [pc, #32]	@ (80072e0 <UART_SetConfig+0x2d4>)
 80072c0:	fba2 2303 	umull	r2, r3, r2, r3
 80072c4:	095b      	lsrs	r3, r3, #5
 80072c6:	f003 0207 	and.w	r2, r3, #7
 80072ca:	f8d7 30f4 	ldr.w	r3, [r7, #244]	@ 0xf4
 80072ce:	681b      	ldr	r3, [r3, #0]
 80072d0:	4422      	add	r2, r4
 80072d2:	609a      	str	r2, [r3, #8]
  }
  else
  {
    huart->Instance->BRR = UART_BRR_SAMPLING16(pclk, huart->Init.BaudRate);
  }
}
 80072d4:	e106      	b.n	80074e4 <UART_SetConfig+0x4d8>
 80072d6:	bf00      	nop
 80072d8:	40011000 	.word	0x40011000
 80072dc:	40011400 	.word	0x40011400
 80072e0:	51eb851f 	.word	0x51eb851f
    huart->Instance->BRR = UART_BRR_SAMPLING16(pclk, huart->Init.BaudRate);
 80072e4:	f8d7 30fc 	ldr.w	r3, [r7, #252]	@ 0xfc
 80072e8:	2200      	movs	r2, #0
 80072ea:	f8c7 30a0 	str.w	r3, [r7, #160]	@ 0xa0
 80072ee:	f8c7 20a4 	str.w	r2, [r7, #164]	@ 0xa4
 80072f2:	e9d7 8928 	ldrd	r8, r9, [r7, #160]	@ 0xa0
 80072f6:	4642      	mov	r2, r8
 80072f8:	464b      	mov	r3, r9
 80072fa:	1891      	adds	r1, r2, r2
 80072fc:	6239      	str	r1, [r7, #32]
 80072fe:	415b      	adcs	r3, r3
 8007300:	627b      	str	r3, [r7, #36]	@ 0x24
 8007302:	e9d7 2308 	ldrd	r2, r3, [r7, #32]
 8007306:	4641      	mov	r1, r8
 8007308:	1854      	adds	r4, r2, r1
 800730a:	4649      	mov	r1, r9
 800730c:	eb43 0501 	adc.w	r5, r3, r1
 8007310:	f04f 0200 	mov.w	r2, #0
 8007314:	f04f 0300 	mov.w	r3, #0
 8007318:	00eb      	lsls	r3, r5, #3
 800731a:	ea43 7354 	orr.w	r3, r3, r4, lsr #29
 800731e:	00e2      	lsls	r2, r4, #3
 8007320:	4614      	mov	r4, r2
 8007322:	461d      	mov	r5, r3
 8007324:	4643      	mov	r3, r8
 8007326:	18e3      	adds	r3, r4, r3
 8007328:	f8c7 3098 	str.w	r3, [r7, #152]	@ 0x98
 800732c:	464b      	mov	r3, r9
 800732e:	eb45 0303 	adc.w	r3, r5, r3
 8007332:	f8c7 309c 	str.w	r3, [r7, #156]	@ 0x9c
 8007336:	f8d7 30f4 	ldr.w	r3, [r7, #244]	@ 0xf4
 800733a:	685b      	ldr	r3, [r3, #4]
 800733c:	2200      	movs	r2, #0
 800733e:	f8c7 3090 	str.w	r3, [r7, #144]	@ 0x90
 8007342:	f8c7 2094 	str.w	r2, [r7, #148]	@ 0x94
 8007346:	f04f 0200 	mov.w	r2, #0
 800734a:	f04f 0300 	mov.w	r3, #0
 800734e:	e9d7 4524 	ldrd	r4, r5, [r7, #144]	@ 0x90
 8007352:	4629      	mov	r1, r5
 8007354:	008b      	lsls	r3, r1, #2
 8007356:	4621      	mov	r1, r4
 8007358:	ea43 7391 	orr.w	r3, r3, r1, lsr #30
 800735c:	4621      	mov	r1, r4
 800735e:	008a      	lsls	r2, r1, #2
 8007360:	e9d7 0126 	ldrd	r0, r1, [r7, #152]	@ 0x98
 8007364:	f7f9 fc28 	bl	8000bb8 <__aeabi_uldivmod>
 8007368:	4602      	mov	r2, r0
 800736a:	460b      	mov	r3, r1
 800736c:	4b60      	ldr	r3, [pc, #384]	@ (80074f0 <UART_SetConfig+0x4e4>)
 800736e:	fba3 2302 	umull	r2, r3, r3, r2
 8007372:	095b      	lsrs	r3, r3, #5
 8007374:	011c      	lsls	r4, r3, #4
 8007376:	f8d7 30fc 	ldr.w	r3, [r7, #252]	@ 0xfc
 800737a:	2200      	movs	r2, #0
 800737c:	f8c7 3088 	str.w	r3, [r7, #136]	@ 0x88
 8007380:	f8c7 208c 	str.w	r2, [r7, #140]	@ 0x8c
 8007384:	e9d7 8922 	ldrd	r8, r9, [r7, #136]	@ 0x88
 8007388:	4642      	mov	r2, r8
 800738a:	464b      	mov	r3, r9
 800738c:	1891      	adds	r1, r2, r2
 800738e:	61b9      	str	r1, [r7, #24]
 8007390:	415b      	adcs	r3, r3
 8007392:	61fb      	str	r3, [r7, #28]
 8007394:	e9d7 2306 	ldrd	r2, r3, [r7, #24]
 8007398:	4641      	mov	r1, r8
 800739a:	1851      	adds	r1, r2, r1
 800739c:	6139      	str	r1, [r7, #16]
 800739e:	4649      	mov	r1, r9
 80073a0:	414b      	adcs	r3, r1
 80073a2:	617b      	str	r3, [r7, #20]
 80073a4:	f04f 0200 	mov.w	r2, #0
 80073a8:	f04f 0300 	mov.w	r3, #0
 80073ac:	e9d7 ab04 	ldrd	sl, fp, [r7, #16]
 80073b0:	4659      	mov	r1, fp
 80073b2:	00cb      	lsls	r3, r1, #3
 80073b4:	4651      	mov	r1, sl
 80073b6:	ea43 7351 	orr.w	r3, r3, r1, lsr #29
 80073ba:	4651      	mov	r1, sl
 80073bc:	00ca      	lsls	r2, r1, #3
 80073be:	4610      	mov	r0, r2
 80073c0:	4619      	mov	r1, r3
 80073c2:	4603      	mov	r3, r0
 80073c4:	4642      	mov	r2, r8
 80073c6:	189b      	adds	r3, r3, r2
 80073c8:	f8c7 3080 	str.w	r3, [r7, #128]	@ 0x80
 80073cc:	464b      	mov	r3, r9
 80073ce:	460a      	mov	r2, r1
 80073d0:	eb42 0303 	adc.w	r3, r2, r3
 80073d4:	f8c7 3084 	str.w	r3, [r7, #132]	@ 0x84
 80073d8:	f8d7 30f4 	ldr.w	r3, [r7, #244]	@ 0xf4
 80073dc:	685b      	ldr	r3, [r3, #4]
 80073de:	2200      	movs	r2, #0
 80073e0:	67bb      	str	r3, [r7, #120]	@ 0x78
 80073e2:	67fa      	str	r2, [r7, #124]	@ 0x7c
 80073e4:	f04f 0200 	mov.w	r2, #0
 80073e8:	f04f 0300 	mov.w	r3, #0
 80073ec:	e9d7 891e 	ldrd	r8, r9, [r7, #120]	@ 0x78
 80073f0:	4649      	mov	r1, r9
 80073f2:	008b      	lsls	r3, r1, #2
 80073f4:	4641      	mov	r1, r8
 80073f6:	ea43 7391 	orr.w	r3, r3, r1, lsr #30
 80073fa:	4641      	mov	r1, r8
 80073fc:	008a      	lsls	r2, r1, #2
 80073fe:	e9d7 0120 	ldrd	r0, r1, [r7, #128]	@ 0x80
 8007402:	f7f9 fbd9 	bl	8000bb8 <__aeabi_uldivmod>
 8007406:	4602      	mov	r2, r0
 8007408:	460b      	mov	r3, r1
 800740a:	4611      	mov	r1, r2
 800740c:	4b38      	ldr	r3, [pc, #224]	@ (80074f0 <UART_SetConfig+0x4e4>)
 800740e:	fba3 2301 	umull	r2, r3, r3, r1
 8007412:	095b      	lsrs	r3, r3, #5
 8007414:	2264      	movs	r2, #100	@ 0x64
 8007416:	fb02 f303 	mul.w	r3, r2, r3
 800741a:	1acb      	subs	r3, r1, r3
 800741c:	011b      	lsls	r3, r3, #4
 800741e:	3332      	adds	r3, #50	@ 0x32
 8007420:	4a33      	ldr	r2, [pc, #204]	@ (80074f0 <UART_SetConfig+0x4e4>)
 8007422:	fba2 2303 	umull	r2, r3, r2, r3
 8007426:	095b      	lsrs	r3, r3, #5
 8007428:	f003 03f0 	and.w	r3, r3, #240	@ 0xf0
 800742c:	441c      	add	r4, r3
 800742e:	f8d7 30fc 	ldr.w	r3, [r7, #252]	@ 0xfc
 8007432:	2200      	movs	r2, #0
 8007434:	673b      	str	r3, [r7, #112]	@ 0x70
 8007436:	677a      	str	r2, [r7, #116]	@ 0x74
 8007438:	e9d7 891c 	ldrd	r8, r9, [r7, #112]	@ 0x70
 800743c:	4642      	mov	r2, r8
 800743e:	464b      	mov	r3, r9
 8007440:	1891      	adds	r1, r2, r2
 8007442:	60b9      	str	r1, [r7, #8]
 8007444:	415b      	adcs	r3, r3
 8007446:	60fb      	str	r3, [r7, #12]
 8007448:	e9d7 2302 	ldrd	r2, r3, [r7, #8]
 800744c:	4641      	mov	r1, r8
 800744e:	1851      	adds	r1, r2, r1
 8007450:	6039      	str	r1, [r7, #0]
 8007452:	4649      	mov	r1, r9
 8007454:	414b      	adcs	r3, r1
 8007456:	607b      	str	r3, [r7, #4]
 8007458:	f04f 0200 	mov.w	r2, #0
 800745c:	f04f 0300 	mov.w	r3, #0
 8007460:	e9d7 ab00 	ldrd	sl, fp, [r7]
 8007464:	4659      	mov	r1, fp
 8007466:	00cb      	lsls	r3, r1, #3
 8007468:	4651      	mov	r1, sl
 800746a:	ea43 7351 	orr.w	r3, r3, r1, lsr #29
 800746e:	4651      	mov	r1, sl
 8007470:	00ca      	lsls	r2, r1, #3
 8007472:	4610      	mov	r0, r2
 8007474:	4619      	mov	r1, r3
 8007476:	4603      	mov	r3, r0
 8007478:	4642      	mov	r2, r8
 800747a:	189b      	adds	r3, r3, r2
 800747c:	66bb      	str	r3, [r7, #104]	@ 0x68
 800747e:	464b      	mov	r3, r9
 8007480:	460a      	mov	r2, r1
 8007482:	eb42 0303 	adc.w	r3, r2, r3
 8007486:	66fb      	str	r3, [r7, #108]	@ 0x6c
 8007488:	f8d7 30f4 	ldr.w	r3, [r7, #244]	@ 0xf4
 800748c:	685b      	ldr	r3, [r3, #4]
 800748e:	2200      	movs	r2, #0
 8007490:	663b      	str	r3, [r7, #96]	@ 0x60
 8007492:	667a      	str	r2, [r7, #100]	@ 0x64
 8007494:	f04f 0200 	mov.w	r2, #0
 8007498:	f04f 0300 	mov.w	r3, #0
 800749c:	e9d7 8918 	ldrd	r8, r9, [r7, #96]	@ 0x60
 80074a0:	4649      	mov	r1, r9
 80074a2:	008b      	lsls	r3, r1, #2
 80074a4:	4641      	mov	r1, r8
 80074a6:	ea43 7391 	orr.w	r3, r3, r1, lsr #30
 80074aa:	4641      	mov	r1, r8
 80074ac:	008a      	lsls	r2, r1, #2
 80074ae:	e9d7 011a 	ldrd	r0, r1, [r7, #104]	@ 0x68
 80074b2:	f7f9 fb81 	bl	8000bb8 <__aeabi_uldivmod>
 80074b6:	4602      	mov	r2, r0
 80074b8:	460b      	mov	r3, r1
 80074ba:	4b0d      	ldr	r3, [pc, #52]	@ (80074f0 <UART_SetConfig+0x4e4>)
 80074bc:	fba3 1302 	umull	r1, r3, r3, r2
 80074c0:	095b      	lsrs	r3, r3, #5
 80074c2:	2164      	movs	r1, #100	@ 0x64
 80074c4:	fb01 f303 	mul.w	r3, r1, r3
 80074c8:	1ad3      	subs	r3, r2, r3
 80074ca:	011b      	lsls	r3, r3, #4
 80074cc:	3332      	adds	r3, #50	@ 0x32
 80074ce:	4a08      	ldr	r2, [pc, #32]	@ (80074f0 <UART_SetConfig+0x4e4>)
 80074d0:	fba2 2303 	umull	r2, r3, r2, r3
 80074d4:	095b      	lsrs	r3, r3, #5
 80074d6:	f003 020f 	and.w	r2, r3, #15
 80074da:	f8d7 30f4 	ldr.w	r3, [r7, #244]	@ 0xf4
 80074de:	681b      	ldr	r3, [r3, #0]
 80074e0:	4422      	add	r2, r4
 80074e2:	609a      	str	r2, [r3, #8]
}
 80074e4:	bf00      	nop
 80074e6:	f507 7780 	add.w	r7, r7, #256	@ 0x100
 80074ea:	46bd      	mov	sp, r7
 80074ec:	e8bd 8fb0 	ldmia.w	sp!, {r4, r5, r7, r8, r9, sl, fp, pc}
 80074f0:	51eb851f 	.word	0x51eb851f

080074f4 <__cvt>:
 80074f4:	e92d 47ff 	stmdb	sp!, {r0, r1, r2, r3, r4, r5, r6, r7, r8, r9, sl, lr}
 80074f8:	ec57 6b10 	vmov	r6, r7, d0
 80074fc:	2f00      	cmp	r7, #0
 80074fe:	460c      	mov	r4, r1
 8007500:	4619      	mov	r1, r3
 8007502:	463b      	mov	r3, r7
 8007504:	bfbb      	ittet	lt
 8007506:	f107 4300 	addlt.w	r3, r7, #2147483648	@ 0x80000000
 800750a:	461f      	movlt	r7, r3
 800750c:	2300      	movge	r3, #0
 800750e:	232d      	movlt	r3, #45	@ 0x2d
 8007510:	700b      	strb	r3, [r1, #0]
 8007512:	9b0d      	ldr	r3, [sp, #52]	@ 0x34
 8007514:	f8dd a030 	ldr.w	sl, [sp, #48]	@ 0x30
 8007518:	4691      	mov	r9, r2
 800751a:	f023 0820 	bic.w	r8, r3, #32
 800751e:	bfbc      	itt	lt
 8007520:	4632      	movlt	r2, r6
 8007522:	4616      	movlt	r6, r2
 8007524:	f1b8 0f46 	cmp.w	r8, #70	@ 0x46
 8007528:	d005      	beq.n	8007536 <__cvt+0x42>
 800752a:	f1b8 0f45 	cmp.w	r8, #69	@ 0x45
 800752e:	d100      	bne.n	8007532 <__cvt+0x3e>
 8007530:	3401      	adds	r4, #1
 8007532:	2102      	movs	r1, #2
 8007534:	e000      	b.n	8007538 <__cvt+0x44>
 8007536:	2103      	movs	r1, #3
 8007538:	ab03      	add	r3, sp, #12
 800753a:	9301      	str	r3, [sp, #4]
 800753c:	ab02      	add	r3, sp, #8
 800753e:	9300      	str	r3, [sp, #0]
 8007540:	ec47 6b10 	vmov	d0, r6, r7
 8007544:	4653      	mov	r3, sl
 8007546:	4622      	mov	r2, r4
 8007548:	f000 fe96 	bl	8008278 <_dtoa_r>
 800754c:	f1b8 0f47 	cmp.w	r8, #71	@ 0x47
 8007550:	4605      	mov	r5, r0
 8007552:	d119      	bne.n	8007588 <__cvt+0x94>
 8007554:	f019 0f01 	tst.w	r9, #1
 8007558:	d00e      	beq.n	8007578 <__cvt+0x84>
 800755a:	eb00 0904 	add.w	r9, r0, r4
 800755e:	2200      	movs	r2, #0
 8007560:	2300      	movs	r3, #0
 8007562:	4630      	mov	r0, r6
 8007564:	4639      	mov	r1, r7
 8007566:	f7f9 fab7 	bl	8000ad8 <__aeabi_dcmpeq>
 800756a:	b108      	cbz	r0, 8007570 <__cvt+0x7c>
 800756c:	f8cd 900c 	str.w	r9, [sp, #12]
 8007570:	2230      	movs	r2, #48	@ 0x30
 8007572:	9b03      	ldr	r3, [sp, #12]
 8007574:	454b      	cmp	r3, r9
 8007576:	d31e      	bcc.n	80075b6 <__cvt+0xc2>
 8007578:	9b03      	ldr	r3, [sp, #12]
 800757a:	9a0e      	ldr	r2, [sp, #56]	@ 0x38
 800757c:	1b5b      	subs	r3, r3, r5
 800757e:	4628      	mov	r0, r5
 8007580:	6013      	str	r3, [r2, #0]
 8007582:	b004      	add	sp, #16
 8007584:	e8bd 87f0 	ldmia.w	sp!, {r4, r5, r6, r7, r8, r9, sl, pc}
 8007588:	f1b8 0f46 	cmp.w	r8, #70	@ 0x46
 800758c:	eb00 0904 	add.w	r9, r0, r4
 8007590:	d1e5      	bne.n	800755e <__cvt+0x6a>
 8007592:	7803      	ldrb	r3, [r0, #0]
 8007594:	2b30      	cmp	r3, #48	@ 0x30
 8007596:	d10a      	bne.n	80075ae <__cvt+0xba>
 8007598:	2200      	movs	r2, #0
 800759a:	2300      	movs	r3, #0
 800759c:	4630      	mov	r0, r6
 800759e:	4639      	mov	r1, r7
 80075a0:	f7f9 fa9a 	bl	8000ad8 <__aeabi_dcmpeq>
 80075a4:	b918      	cbnz	r0, 80075ae <__cvt+0xba>
 80075a6:	f1c4 0401 	rsb	r4, r4, #1
 80075aa:	f8ca 4000 	str.w	r4, [sl]
 80075ae:	f8da 3000 	ldr.w	r3, [sl]
 80075b2:	4499      	add	r9, r3
 80075b4:	e7d3      	b.n	800755e <__cvt+0x6a>
 80075b6:	1c59      	adds	r1, r3, #1
 80075b8:	9103      	str	r1, [sp, #12]
 80075ba:	701a      	strb	r2, [r3, #0]
 80075bc:	e7d9      	b.n	8007572 <__cvt+0x7e>

080075be <__exponent>:
 80075be:	b5f7      	push	{r0, r1, r2, r4, r5, r6, r7, lr}
 80075c0:	2900      	cmp	r1, #0
 80075c2:	bfba      	itte	lt
 80075c4:	4249      	neglt	r1, r1
 80075c6:	232d      	movlt	r3, #45	@ 0x2d
 80075c8:	232b      	movge	r3, #43	@ 0x2b
 80075ca:	2909      	cmp	r1, #9
 80075cc:	7002      	strb	r2, [r0, #0]
 80075ce:	7043      	strb	r3, [r0, #1]
 80075d0:	dd29      	ble.n	8007626 <__exponent+0x68>
 80075d2:	f10d 0407 	add.w	r4, sp, #7
 80075d6:	4625      	mov	r5, r4
 80075d8:	270a      	movs	r7, #10
 80075da:	4622      	mov	r2, r4
 80075dc:	fbb1 f6f7 	udiv	r6, r1, r7
 80075e0:	fb07 1316 	mls	r3, r7, r6, r1
 80075e4:	3330      	adds	r3, #48	@ 0x30
 80075e6:	f802 3c01 	strb.w	r3, [r2, #-1]
 80075ea:	460b      	mov	r3, r1
 80075ec:	2b63      	cmp	r3, #99	@ 0x63
 80075ee:	f104 34ff 	add.w	r4, r4, #4294967295
 80075f2:	4631      	mov	r1, r6
 80075f4:	dcf1      	bgt.n	80075da <__exponent+0x1c>
 80075f6:	3130      	adds	r1, #48	@ 0x30
 80075f8:	1e93      	subs	r3, r2, #2
 80075fa:	f804 1c01 	strb.w	r1, [r4, #-1]
 80075fe:	1c41      	adds	r1, r0, #1
 8007600:	461c      	mov	r4, r3
 8007602:	42ab      	cmp	r3, r5
 8007604:	d30a      	bcc.n	800761c <__exponent+0x5e>
 8007606:	f10d 0309 	add.w	r3, sp, #9
 800760a:	1a9b      	subs	r3, r3, r2
 800760c:	42a5      	cmp	r5, r4
 800760e:	bf38      	it	cc
 8007610:	2300      	movcc	r3, #0
 8007612:	1c82      	adds	r2, r0, #2
 8007614:	4413      	add	r3, r2
 8007616:	1a18      	subs	r0, r3, r0
 8007618:	b003      	add	sp, #12
 800761a:	bdf0      	pop	{r4, r5, r6, r7, pc}
 800761c:	f813 6b01 	ldrb.w	r6, [r3], #1
 8007620:	f801 6f01 	strb.w	r6, [r1, #1]!
 8007624:	e7ed      	b.n	8007602 <__exponent+0x44>
 8007626:	2330      	movs	r3, #48	@ 0x30
 8007628:	3130      	adds	r1, #48	@ 0x30
 800762a:	7083      	strb	r3, [r0, #2]
 800762c:	70c1      	strb	r1, [r0, #3]
 800762e:	1d03      	adds	r3, r0, #4
 8007630:	e7f1      	b.n	8007616 <__exponent+0x58>
	...

08007634 <_printf_float>:
 8007634:	e92d 4ff0 	stmdb	sp!, {r4, r5, r6, r7, r8, r9, sl, fp, lr}
 8007638:	b08d      	sub	sp, #52	@ 0x34
 800763a:	460c      	mov	r4, r1
 800763c:	f8dd 8058 	ldr.w	r8, [sp, #88]	@ 0x58
 8007640:	4616      	mov	r6, r2
 8007642:	461f      	mov	r7, r3
 8007644:	4605      	mov	r5, r0
 8007646:	f000 fd09 	bl	800805c <_localeconv_r>
 800764a:	6803      	ldr	r3, [r0, #0]
 800764c:	9306      	str	r3, [sp, #24]
 800764e:	4618      	mov	r0, r3
 8007650:	f7f8 fe16 	bl	8000280 <strlen>
 8007654:	2300      	movs	r3, #0
 8007656:	930a      	str	r3, [sp, #40]	@ 0x28
 8007658:	f8d8 3000 	ldr.w	r3, [r8]
 800765c:	f894 a018 	ldrb.w	sl, [r4, #24]
 8007660:	f8d4 b000 	ldr.w	fp, [r4]
 8007664:	9007      	str	r0, [sp, #28]
 8007666:	3307      	adds	r3, #7
 8007668:	f023 0307 	bic.w	r3, r3, #7
 800766c:	ecb3 7b02 	vldmia	r3!, {d7}
 8007670:	ed8d 7b04 	vstr	d7, [sp, #16]
 8007674:	f8c8 3000 	str.w	r3, [r8]
 8007678:	e9dd 8304 	ldrd	r8, r3, [sp, #16]
 800767c:	f023 4900 	bic.w	r9, r3, #2147483648	@ 0x80000000
 8007680:	ed84 7b12 	vstr	d7, [r4, #72]	@ 0x48
 8007684:	4b9c      	ldr	r3, [pc, #624]	@ (80078f8 <_printf_float+0x2c4>)
 8007686:	f04f 32ff 	mov.w	r2, #4294967295
 800768a:	4640      	mov	r0, r8
 800768c:	4649      	mov	r1, r9
 800768e:	f7f9 fa55 	bl	8000b3c <__aeabi_dcmpun>
 8007692:	bb70      	cbnz	r0, 80076f2 <_printf_float+0xbe>
 8007694:	4b98      	ldr	r3, [pc, #608]	@ (80078f8 <_printf_float+0x2c4>)
 8007696:	f04f 32ff 	mov.w	r2, #4294967295
 800769a:	4640      	mov	r0, r8
 800769c:	4649      	mov	r1, r9
 800769e:	f7f9 fa2f 	bl	8000b00 <__aeabi_dcmple>
 80076a2:	bb30      	cbnz	r0, 80076f2 <_printf_float+0xbe>
 80076a4:	e9dd 0104 	ldrd	r0, r1, [sp, #16]
 80076a8:	2200      	movs	r2, #0
 80076aa:	2300      	movs	r3, #0
 80076ac:	f7f9 fa1e 	bl	8000aec <__aeabi_dcmplt>
 80076b0:	b110      	cbz	r0, 80076b8 <_printf_float+0x84>
 80076b2:	232d      	movs	r3, #45	@ 0x2d
 80076b4:	f884 3043 	strb.w	r3, [r4, #67]	@ 0x43
 80076b8:	4a90      	ldr	r2, [pc, #576]	@ (80078fc <_printf_float+0x2c8>)
 80076ba:	4b91      	ldr	r3, [pc, #580]	@ (8007900 <_printf_float+0x2cc>)
 80076bc:	f1ba 0f47 	cmp.w	sl, #71	@ 0x47
 80076c0:	bf8c      	ite	hi
 80076c2:	4690      	movhi	r8, r2
 80076c4:	4698      	movls	r8, r3
 80076c6:	2303      	movs	r3, #3
 80076c8:	6123      	str	r3, [r4, #16]
 80076ca:	f02b 0304 	bic.w	r3, fp, #4
 80076ce:	6023      	str	r3, [r4, #0]
 80076d0:	f04f 0900 	mov.w	r9, #0
 80076d4:	9700      	str	r7, [sp, #0]
 80076d6:	4633      	mov	r3, r6
 80076d8:	aa0b      	add	r2, sp, #44	@ 0x2c
 80076da:	4621      	mov	r1, r4
 80076dc:	4628      	mov	r0, r5
 80076de:	f000 f9d1 	bl	8007a84 <_printf_common>
 80076e2:	3001      	adds	r0, #1
 80076e4:	f040 808c 	bne.w	8007800 <_printf_float+0x1cc>
 80076e8:	f04f 30ff 	mov.w	r0, #4294967295
 80076ec:	b00d      	add	sp, #52	@ 0x34
 80076ee:	e8bd 8ff0 	ldmia.w	sp!, {r4, r5, r6, r7, r8, r9, sl, fp, pc}
 80076f2:	e9dd 2304 	ldrd	r2, r3, [sp, #16]
 80076f6:	4610      	mov	r0, r2
 80076f8:	4619      	mov	r1, r3
 80076fa:	f7f9 fa1f 	bl	8000b3c <__aeabi_dcmpun>
 80076fe:	b140      	cbz	r0, 8007712 <_printf_float+0xde>
 8007700:	9b05      	ldr	r3, [sp, #20]
 8007702:	4a80      	ldr	r2, [pc, #512]	@ (8007904 <_printf_float+0x2d0>)
 8007704:	2b00      	cmp	r3, #0
 8007706:	bfbc      	itt	lt
 8007708:	232d      	movlt	r3, #45	@ 0x2d
 800770a:	f884 3043 	strblt.w	r3, [r4, #67]	@ 0x43
 800770e:	4b7e      	ldr	r3, [pc, #504]	@ (8007908 <_printf_float+0x2d4>)
 8007710:	e7d4      	b.n	80076bc <_printf_float+0x88>
 8007712:	6863      	ldr	r3, [r4, #4]
 8007714:	1c5a      	adds	r2, r3, #1
 8007716:	f00a 09df 	and.w	r9, sl, #223	@ 0xdf
 800771a:	d13b      	bne.n	8007794 <_printf_float+0x160>
 800771c:	2306      	movs	r3, #6
 800771e:	6063      	str	r3, [r4, #4]
 8007720:	f44b 6280 	orr.w	r2, fp, #1024	@ 0x400
 8007724:	2300      	movs	r3, #0
 8007726:	6022      	str	r2, [r4, #0]
 8007728:	9303      	str	r3, [sp, #12]
 800772a:	ab0a      	add	r3, sp, #40	@ 0x28
 800772c:	e9cd a301 	strd	sl, r3, [sp, #4]
 8007730:	ab09      	add	r3, sp, #36	@ 0x24
 8007732:	9300      	str	r3, [sp, #0]
 8007734:	6861      	ldr	r1, [r4, #4]
 8007736:	ed9d 0b04 	vldr	d0, [sp, #16]
 800773a:	f10d 0323 	add.w	r3, sp, #35	@ 0x23
 800773e:	4628      	mov	r0, r5
 8007740:	f7ff fed8 	bl	80074f4 <__cvt>
 8007744:	f1b9 0f47 	cmp.w	r9, #71	@ 0x47
 8007748:	9909      	ldr	r1, [sp, #36]	@ 0x24
 800774a:	4680      	mov	r8, r0
 800774c:	d129      	bne.n	80077a2 <_printf_float+0x16e>
 800774e:	1cc8      	adds	r0, r1, #3
 8007750:	db02      	blt.n	8007758 <_printf_float+0x124>
 8007752:	6863      	ldr	r3, [r4, #4]
 8007754:	428b      	cmp	r3, r1
 8007756:	da41      	bge.n	80077dc <_printf_float+0x1a8>
 8007758:	f1aa 0a02 	sub.w	sl, sl, #2
 800775c:	fa5f fa8a 	uxtb.w	sl, sl
 8007760:	3901      	subs	r1, #1
 8007762:	4652      	mov	r2, sl
 8007764:	f104 0050 	add.w	r0, r4, #80	@ 0x50
 8007768:	9109      	str	r1, [sp, #36]	@ 0x24
 800776a:	f7ff ff28 	bl	80075be <__exponent>
 800776e:	9a0a      	ldr	r2, [sp, #40]	@ 0x28
 8007770:	1813      	adds	r3, r2, r0
 8007772:	2a01      	cmp	r2, #1
 8007774:	4681      	mov	r9, r0
 8007776:	6123      	str	r3, [r4, #16]
 8007778:	dc02      	bgt.n	8007780 <_printf_float+0x14c>
 800777a:	6822      	ldr	r2, [r4, #0]
 800777c:	07d2      	lsls	r2, r2, #31
 800777e:	d501      	bpl.n	8007784 <_printf_float+0x150>
 8007780:	3301      	adds	r3, #1
 8007782:	6123      	str	r3, [r4, #16]
 8007784:	f89d 3023 	ldrb.w	r3, [sp, #35]	@ 0x23
 8007788:	2b00      	cmp	r3, #0
 800778a:	d0a3      	beq.n	80076d4 <_printf_float+0xa0>
 800778c:	232d      	movs	r3, #45	@ 0x2d
 800778e:	f884 3043 	strb.w	r3, [r4, #67]	@ 0x43
 8007792:	e79f      	b.n	80076d4 <_printf_float+0xa0>
 8007794:	f1b9 0f47 	cmp.w	r9, #71	@ 0x47
 8007798:	d1c2      	bne.n	8007720 <_printf_float+0xec>
 800779a:	2b00      	cmp	r3, #0
 800779c:	d1c0      	bne.n	8007720 <_printf_float+0xec>
 800779e:	2301      	movs	r3, #1
 80077a0:	e7bd      	b.n	800771e <_printf_float+0xea>
 80077a2:	f1ba 0f65 	cmp.w	sl, #101	@ 0x65
 80077a6:	d9db      	bls.n	8007760 <_printf_float+0x12c>
 80077a8:	f1ba 0f66 	cmp.w	sl, #102	@ 0x66
 80077ac:	d118      	bne.n	80077e0 <_printf_float+0x1ac>
 80077ae:	2900      	cmp	r1, #0
 80077b0:	6863      	ldr	r3, [r4, #4]
 80077b2:	dd0b      	ble.n	80077cc <_printf_float+0x198>
 80077b4:	6121      	str	r1, [r4, #16]
 80077b6:	b913      	cbnz	r3, 80077be <_printf_float+0x18a>
 80077b8:	6822      	ldr	r2, [r4, #0]
 80077ba:	07d0      	lsls	r0, r2, #31
 80077bc:	d502      	bpl.n	80077c4 <_printf_float+0x190>
 80077be:	3301      	adds	r3, #1
 80077c0:	440b      	add	r3, r1
 80077c2:	6123      	str	r3, [r4, #16]
 80077c4:	65a1      	str	r1, [r4, #88]	@ 0x58
 80077c6:	f04f 0900 	mov.w	r9, #0
 80077ca:	e7db      	b.n	8007784 <_printf_float+0x150>
 80077cc:	b913      	cbnz	r3, 80077d4 <_printf_float+0x1a0>
 80077ce:	6822      	ldr	r2, [r4, #0]
 80077d0:	07d2      	lsls	r2, r2, #31
 80077d2:	d501      	bpl.n	80077d8 <_printf_float+0x1a4>
 80077d4:	3302      	adds	r3, #2
 80077d6:	e7f4      	b.n	80077c2 <_printf_float+0x18e>
 80077d8:	2301      	movs	r3, #1
 80077da:	e7f2      	b.n	80077c2 <_printf_float+0x18e>
 80077dc:	f04f 0a67 	mov.w	sl, #103	@ 0x67
 80077e0:	9b0a      	ldr	r3, [sp, #40]	@ 0x28
 80077e2:	428b      	cmp	r3, r1
 80077e4:	dc05      	bgt.n	80077f2 <_printf_float+0x1be>
 80077e6:	6823      	ldr	r3, [r4, #0]
 80077e8:	6121      	str	r1, [r4, #16]
 80077ea:	07d8      	lsls	r0, r3, #31
 80077ec:	d5ea      	bpl.n	80077c4 <_printf_float+0x190>
 80077ee:	1c4b      	adds	r3, r1, #1
 80077f0:	e7e7      	b.n	80077c2 <_printf_float+0x18e>
 80077f2:	2900      	cmp	r1, #0
 80077f4:	bfd4      	ite	le
 80077f6:	f1c1 0202 	rsble	r2, r1, #2
 80077fa:	2201      	movgt	r2, #1
 80077fc:	4413      	add	r3, r2
 80077fe:	e7e0      	b.n	80077c2 <_printf_float+0x18e>
 8007800:	6823      	ldr	r3, [r4, #0]
 8007802:	055a      	lsls	r2, r3, #21
 8007804:	d407      	bmi.n	8007816 <_printf_float+0x1e2>
 8007806:	6923      	ldr	r3, [r4, #16]
 8007808:	4642      	mov	r2, r8
 800780a:	4631      	mov	r1, r6
 800780c:	4628      	mov	r0, r5
 800780e:	47b8      	blx	r7
 8007810:	3001      	adds	r0, #1
 8007812:	d12b      	bne.n	800786c <_printf_float+0x238>
 8007814:	e768      	b.n	80076e8 <_printf_float+0xb4>
 8007816:	f1ba 0f65 	cmp.w	sl, #101	@ 0x65
 800781a:	f240 80dd 	bls.w	80079d8 <_printf_float+0x3a4>
 800781e:	e9d4 0112 	ldrd	r0, r1, [r4, #72]	@ 0x48
 8007822:	2200      	movs	r2, #0
 8007824:	2300      	movs	r3, #0
 8007826:	f7f9 f957 	bl	8000ad8 <__aeabi_dcmpeq>
 800782a:	2800      	cmp	r0, #0
 800782c:	d033      	beq.n	8007896 <_printf_float+0x262>
 800782e:	4a37      	ldr	r2, [pc, #220]	@ (800790c <_printf_float+0x2d8>)
 8007830:	2301      	movs	r3, #1
 8007832:	4631      	mov	r1, r6
 8007834:	4628      	mov	r0, r5
 8007836:	47b8      	blx	r7
 8007838:	3001      	adds	r0, #1
 800783a:	f43f af55 	beq.w	80076e8 <_printf_float+0xb4>
 800783e:	e9dd 3809 	ldrd	r3, r8, [sp, #36]	@ 0x24
 8007842:	4543      	cmp	r3, r8
 8007844:	db02      	blt.n	800784c <_printf_float+0x218>
 8007846:	6823      	ldr	r3, [r4, #0]
 8007848:	07d8      	lsls	r0, r3, #31
 800784a:	d50f      	bpl.n	800786c <_printf_float+0x238>
 800784c:	e9dd 2306 	ldrd	r2, r3, [sp, #24]
 8007850:	4631      	mov	r1, r6
 8007852:	4628      	mov	r0, r5
 8007854:	47b8      	blx	r7
 8007856:	3001      	adds	r0, #1
 8007858:	f43f af46 	beq.w	80076e8 <_printf_float+0xb4>
 800785c:	f04f 0900 	mov.w	r9, #0
 8007860:	f108 38ff 	add.w	r8, r8, #4294967295
 8007864:	f104 0a1a 	add.w	sl, r4, #26
 8007868:	45c8      	cmp	r8, r9
 800786a:	dc09      	bgt.n	8007880 <_printf_float+0x24c>
 800786c:	6823      	ldr	r3, [r4, #0]
 800786e:	079b      	lsls	r3, r3, #30
 8007870:	f100 8103 	bmi.w	8007a7a <_printf_float+0x446>
 8007874:	68e0      	ldr	r0, [r4, #12]
 8007876:	9b0b      	ldr	r3, [sp, #44]	@ 0x2c
 8007878:	4298      	cmp	r0, r3
 800787a:	bfb8      	it	lt
 800787c:	4618      	movlt	r0, r3
 800787e:	e735      	b.n	80076ec <_printf_float+0xb8>
 8007880:	2301      	movs	r3, #1
 8007882:	4652      	mov	r2, sl
 8007884:	4631      	mov	r1, r6
 8007886:	4628      	mov	r0, r5
 8007888:	47b8      	blx	r7
 800788a:	3001      	adds	r0, #1
 800788c:	f43f af2c 	beq.w	80076e8 <_printf_float+0xb4>
 8007890:	f109 0901 	add.w	r9, r9, #1
 8007894:	e7e8      	b.n	8007868 <_printf_float+0x234>
 8007896:	9b09      	ldr	r3, [sp, #36]	@ 0x24
 8007898:	2b00      	cmp	r3, #0
 800789a:	dc39      	bgt.n	8007910 <_printf_float+0x2dc>
 800789c:	4a1b      	ldr	r2, [pc, #108]	@ (800790c <_printf_float+0x2d8>)
 800789e:	2301      	movs	r3, #1
 80078a0:	4631      	mov	r1, r6
 80078a2:	4628      	mov	r0, r5
 80078a4:	47b8      	blx	r7
 80078a6:	3001      	adds	r0, #1
 80078a8:	f43f af1e 	beq.w	80076e8 <_printf_float+0xb4>
 80078ac:	e9dd 3909 	ldrd	r3, r9, [sp, #36]	@ 0x24
 80078b0:	ea59 0303 	orrs.w	r3, r9, r3
 80078b4:	d102      	bne.n	80078bc <_printf_float+0x288>
 80078b6:	6823      	ldr	r3, [r4, #0]
 80078b8:	07d9      	lsls	r1, r3, #31
 80078ba:	d5d7      	bpl.n	800786c <_printf_float+0x238>
 80078bc:	e9dd 2306 	ldrd	r2, r3, [sp, #24]
 80078c0:	4631      	mov	r1, r6
 80078c2:	4628      	mov	r0, r5
 80078c4:	47b8      	blx	r7
 80078c6:	3001      	adds	r0, #1
 80078c8:	f43f af0e 	beq.w	80076e8 <_printf_float+0xb4>
 80078cc:	f04f 0a00 	mov.w	sl, #0
 80078d0:	f104 0b1a 	add.w	fp, r4, #26
 80078d4:	9b09      	ldr	r3, [sp, #36]	@ 0x24
 80078d6:	425b      	negs	r3, r3
 80078d8:	4553      	cmp	r3, sl
 80078da:	dc01      	bgt.n	80078e0 <_printf_float+0x2ac>
 80078dc:	464b      	mov	r3, r9
 80078de:	e793      	b.n	8007808 <_printf_float+0x1d4>
 80078e0:	2301      	movs	r3, #1
 80078e2:	465a      	mov	r2, fp
 80078e4:	4631      	mov	r1, r6
 80078e6:	4628      	mov	r0, r5
 80078e8:	47b8      	blx	r7
 80078ea:	3001      	adds	r0, #1
 80078ec:	f43f aefc 	beq.w	80076e8 <_printf_float+0xb4>
 80078f0:	f10a 0a01 	add.w	sl, sl, #1
 80078f4:	e7ee      	b.n	80078d4 <_printf_float+0x2a0>
 80078f6:	bf00      	nop
 80078f8:	7fefffff 	.word	0x7fefffff
 80078fc:	0801e3a8 	.word	0x0801e3a8
 8007900:	0801e3a4 	.word	0x0801e3a4
 8007904:	0801e3b0 	.word	0x0801e3b0
 8007908:	0801e3ac 	.word	0x0801e3ac
 800790c:	0801e3b4 	.word	0x0801e3b4
 8007910:	6da3      	ldr	r3, [r4, #88]	@ 0x58
 8007912:	f8dd a028 	ldr.w	sl, [sp, #40]	@ 0x28
 8007916:	4553      	cmp	r3, sl
 8007918:	bfa8      	it	ge
 800791a:	4653      	movge	r3, sl
 800791c:	2b00      	cmp	r3, #0
 800791e:	4699      	mov	r9, r3
 8007920:	dc36      	bgt.n	8007990 <_printf_float+0x35c>
 8007922:	f04f 0b00 	mov.w	fp, #0
 8007926:	ea29 79e9 	bic.w	r9, r9, r9, asr #31
 800792a:	f104 021a 	add.w	r2, r4, #26
 800792e:	6da3      	ldr	r3, [r4, #88]	@ 0x58
 8007930:	9304      	str	r3, [sp, #16]
 8007932:	eba3 0309 	sub.w	r3, r3, r9
 8007936:	455b      	cmp	r3, fp
 8007938:	dc31      	bgt.n	800799e <_printf_float+0x36a>
 800793a:	9b09      	ldr	r3, [sp, #36]	@ 0x24
 800793c:	459a      	cmp	sl, r3
 800793e:	dc3a      	bgt.n	80079b6 <_printf_float+0x382>
 8007940:	6823      	ldr	r3, [r4, #0]
 8007942:	07da      	lsls	r2, r3, #31
 8007944:	d437      	bmi.n	80079b6 <_printf_float+0x382>
 8007946:	9b09      	ldr	r3, [sp, #36]	@ 0x24
 8007948:	ebaa 0903 	sub.w	r9, sl, r3
 800794c:	9b04      	ldr	r3, [sp, #16]
 800794e:	ebaa 0303 	sub.w	r3, sl, r3
 8007952:	4599      	cmp	r9, r3
 8007954:	bfa8      	it	ge
 8007956:	4699      	movge	r9, r3
 8007958:	f1b9 0f00 	cmp.w	r9, #0
 800795c:	dc33      	bgt.n	80079c6 <_printf_float+0x392>
 800795e:	f04f 0800 	mov.w	r8, #0
 8007962:	ea29 79e9 	bic.w	r9, r9, r9, asr #31
 8007966:	f104 0b1a 	add.w	fp, r4, #26
 800796a:	9b09      	ldr	r3, [sp, #36]	@ 0x24
 800796c:	ebaa 0303 	sub.w	r3, sl, r3
 8007970:	eba3 0309 	sub.w	r3, r3, r9
 8007974:	4543      	cmp	r3, r8
 8007976:	f77f af79 	ble.w	800786c <_printf_float+0x238>
 800797a:	2301      	movs	r3, #1
 800797c:	465a      	mov	r2, fp
 800797e:	4631      	mov	r1, r6
 8007980:	4628      	mov	r0, r5
 8007982:	47b8      	blx	r7
 8007984:	3001      	adds	r0, #1
 8007986:	f43f aeaf 	beq.w	80076e8 <_printf_float+0xb4>
 800798a:	f108 0801 	add.w	r8, r8, #1
 800798e:	e7ec      	b.n	800796a <_printf_float+0x336>
 8007990:	4642      	mov	r2, r8
 8007992:	4631      	mov	r1, r6
 8007994:	4628      	mov	r0, r5
 8007996:	47b8      	blx	r7
 8007998:	3001      	adds	r0, #1
 800799a:	d1c2      	bne.n	8007922 <_printf_float+0x2ee>
 800799c:	e6a4      	b.n	80076e8 <_printf_float+0xb4>
 800799e:	2301      	movs	r3, #1
 80079a0:	4631      	mov	r1, r6
 80079a2:	4628      	mov	r0, r5
 80079a4:	9204      	str	r2, [sp, #16]
 80079a6:	47b8      	blx	r7
 80079a8:	3001      	adds	r0, #1
 80079aa:	f43f ae9d 	beq.w	80076e8 <_printf_float+0xb4>
 80079ae:	9a04      	ldr	r2, [sp, #16]
 80079b0:	f10b 0b01 	add.w	fp, fp, #1
 80079b4:	e7bb      	b.n	800792e <_printf_float+0x2fa>
 80079b6:	e9dd 2306 	ldrd	r2, r3, [sp, #24]
 80079ba:	4631      	mov	r1, r6
 80079bc:	4628      	mov	r0, r5
 80079be:	47b8      	blx	r7
 80079c0:	3001      	adds	r0, #1
 80079c2:	d1c0      	bne.n	8007946 <_printf_float+0x312>
 80079c4:	e690      	b.n	80076e8 <_printf_float+0xb4>
 80079c6:	9a04      	ldr	r2, [sp, #16]
 80079c8:	464b      	mov	r3, r9
 80079ca:	4442      	add	r2, r8
 80079cc:	4631      	mov	r1, r6
 80079ce:	4628      	mov	r0, r5
 80079d0:	47b8      	blx	r7
 80079d2:	3001      	adds	r0, #1
 80079d4:	d1c3      	bne.n	800795e <_printf_float+0x32a>
 80079d6:	e687      	b.n	80076e8 <_printf_float+0xb4>
 80079d8:	f8dd a028 	ldr.w	sl, [sp, #40]	@ 0x28
 80079dc:	f1ba 0f01 	cmp.w	sl, #1
 80079e0:	dc01      	bgt.n	80079e6 <_printf_float+0x3b2>
 80079e2:	07db      	lsls	r3, r3, #31
 80079e4:	d536      	bpl.n	8007a54 <_printf_float+0x420>
 80079e6:	2301      	movs	r3, #1
 80079e8:	4642      	mov	r2, r8
 80079ea:	4631      	mov	r1, r6
 80079ec:	4628      	mov	r0, r5
 80079ee:	47b8      	blx	r7
 80079f0:	3001      	adds	r0, #1
 80079f2:	f43f ae79 	beq.w	80076e8 <_printf_float+0xb4>
 80079f6:	e9dd 2306 	ldrd	r2, r3, [sp, #24]
 80079fa:	4631      	mov	r1, r6
 80079fc:	4628      	mov	r0, r5
 80079fe:	47b8      	blx	r7
 8007a00:	3001      	adds	r0, #1
 8007a02:	f43f ae71 	beq.w	80076e8 <_printf_float+0xb4>
 8007a06:	e9d4 0112 	ldrd	r0, r1, [r4, #72]	@ 0x48
 8007a0a:	2200      	movs	r2, #0
 8007a0c:	2300      	movs	r3, #0
 8007a0e:	f10a 3aff 	add.w	sl, sl, #4294967295
 8007a12:	f7f9 f861 	bl	8000ad8 <__aeabi_dcmpeq>
 8007a16:	b9c0      	cbnz	r0, 8007a4a <_printf_float+0x416>
 8007a18:	4653      	mov	r3, sl
 8007a1a:	f108 0201 	add.w	r2, r8, #1
 8007a1e:	4631      	mov	r1, r6
 8007a20:	4628      	mov	r0, r5
 8007a22:	47b8      	blx	r7
 8007a24:	3001      	adds	r0, #1
 8007a26:	d10c      	bne.n	8007a42 <_printf_float+0x40e>
 8007a28:	e65e      	b.n	80076e8 <_printf_float+0xb4>
 8007a2a:	2301      	movs	r3, #1
 8007a2c:	465a      	mov	r2, fp
 8007a2e:	4631      	mov	r1, r6
 8007a30:	4628      	mov	r0, r5
 8007a32:	47b8      	blx	r7
 8007a34:	3001      	adds	r0, #1
 8007a36:	f43f ae57 	beq.w	80076e8 <_printf_float+0xb4>
 8007a3a:	f108 0801 	add.w	r8, r8, #1
 8007a3e:	45d0      	cmp	r8, sl
 8007a40:	dbf3      	blt.n	8007a2a <_printf_float+0x3f6>
 8007a42:	464b      	mov	r3, r9
 8007a44:	f104 0250 	add.w	r2, r4, #80	@ 0x50
 8007a48:	e6df      	b.n	800780a <_printf_float+0x1d6>
 8007a4a:	f04f 0800 	mov.w	r8, #0
 8007a4e:	f104 0b1a 	add.w	fp, r4, #26
 8007a52:	e7f4      	b.n	8007a3e <_printf_float+0x40a>
 8007a54:	2301      	movs	r3, #1
 8007a56:	4642      	mov	r2, r8
 8007a58:	e7e1      	b.n	8007a1e <_printf_float+0x3ea>
 8007a5a:	2301      	movs	r3, #1
 8007a5c:	464a      	mov	r2, r9
 8007a5e:	4631      	mov	r1, r6
 8007a60:	4628      	mov	r0, r5
 8007a62:	47b8      	blx	r7
 8007a64:	3001      	adds	r0, #1
 8007a66:	f43f ae3f 	beq.w	80076e8 <_printf_float+0xb4>
 8007a6a:	f108 0801 	add.w	r8, r8, #1
 8007a6e:	68e3      	ldr	r3, [r4, #12]
 8007a70:	990b      	ldr	r1, [sp, #44]	@ 0x2c
 8007a72:	1a5b      	subs	r3, r3, r1
 8007a74:	4543      	cmp	r3, r8
 8007a76:	dcf0      	bgt.n	8007a5a <_printf_float+0x426>
 8007a78:	e6fc      	b.n	8007874 <_printf_float+0x240>
 8007a7a:	f04f 0800 	mov.w	r8, #0
 8007a7e:	f104 0919 	add.w	r9, r4, #25
 8007a82:	e7f4      	b.n	8007a6e <_printf_float+0x43a>

08007a84 <_printf_common>:
 8007a84:	e92d 47f0 	stmdb	sp!, {r4, r5, r6, r7, r8, r9, sl, lr}
 8007a88:	4616      	mov	r6, r2
 8007a8a:	4698      	mov	r8, r3
 8007a8c:	688a      	ldr	r2, [r1, #8]
 8007a8e:	690b      	ldr	r3, [r1, #16]
 8007a90:	f8dd 9020 	ldr.w	r9, [sp, #32]
 8007a94:	4293      	cmp	r3, r2
 8007a96:	bfb8      	it	lt
 8007a98:	4613      	movlt	r3, r2
 8007a9a:	6033      	str	r3, [r6, #0]
 8007a9c:	f891 2043 	ldrb.w	r2, [r1, #67]	@ 0x43
 8007aa0:	4607      	mov	r7, r0
 8007aa2:	460c      	mov	r4, r1
 8007aa4:	b10a      	cbz	r2, 8007aaa <_printf_common+0x26>
 8007aa6:	3301      	adds	r3, #1
 8007aa8:	6033      	str	r3, [r6, #0]
 8007aaa:	6823      	ldr	r3, [r4, #0]
 8007aac:	0699      	lsls	r1, r3, #26
 8007aae:	bf42      	ittt	mi
 8007ab0:	6833      	ldrmi	r3, [r6, #0]
 8007ab2:	3302      	addmi	r3, #2
 8007ab4:	6033      	strmi	r3, [r6, #0]
 8007ab6:	6825      	ldr	r5, [r4, #0]
 8007ab8:	f015 0506 	ands.w	r5, r5, #6
 8007abc:	d106      	bne.n	8007acc <_printf_common+0x48>
 8007abe:	f104 0a19 	add.w	sl, r4, #25
 8007ac2:	68e3      	ldr	r3, [r4, #12]
 8007ac4:	6832      	ldr	r2, [r6, #0]
 8007ac6:	1a9b      	subs	r3, r3, r2
 8007ac8:	42ab      	cmp	r3, r5
 8007aca:	dc26      	bgt.n	8007b1a <_printf_common+0x96>
 8007acc:	f894 3043 	ldrb.w	r3, [r4, #67]	@ 0x43
 8007ad0:	6822      	ldr	r2, [r4, #0]
 8007ad2:	3b00      	subs	r3, #0
 8007ad4:	bf18      	it	ne
 8007ad6:	2301      	movne	r3, #1
 8007ad8:	0692      	lsls	r2, r2, #26
 8007ada:	d42b      	bmi.n	8007b34 <_printf_common+0xb0>
 8007adc:	f104 0243 	add.w	r2, r4, #67	@ 0x43
 8007ae0:	4641      	mov	r1, r8
 8007ae2:	4638      	mov	r0, r7
 8007ae4:	47c8      	blx	r9
 8007ae6:	3001      	adds	r0, #1
 8007ae8:	d01e      	beq.n	8007b28 <_printf_common+0xa4>
 8007aea:	6823      	ldr	r3, [r4, #0]
 8007aec:	6922      	ldr	r2, [r4, #16]
 8007aee:	f003 0306 	and.w	r3, r3, #6
 8007af2:	2b04      	cmp	r3, #4
 8007af4:	bf02      	ittt	eq
 8007af6:	68e5      	ldreq	r5, [r4, #12]
 8007af8:	6833      	ldreq	r3, [r6, #0]
 8007afa:	1aed      	subeq	r5, r5, r3
 8007afc:	68a3      	ldr	r3, [r4, #8]
 8007afe:	bf0c      	ite	eq
 8007b00:	ea25 75e5 	biceq.w	r5, r5, r5, asr #31
 8007b04:	2500      	movne	r5, #0
 8007b06:	4293      	cmp	r3, r2
 8007b08:	bfc4      	itt	gt
 8007b0a:	1a9b      	subgt	r3, r3, r2
 8007b0c:	18ed      	addgt	r5, r5, r3
 8007b0e:	2600      	movs	r6, #0
 8007b10:	341a      	adds	r4, #26
 8007b12:	42b5      	cmp	r5, r6
 8007b14:	d11a      	bne.n	8007b4c <_printf_common+0xc8>
 8007b16:	2000      	movs	r0, #0
 8007b18:	e008      	b.n	8007b2c <_printf_common+0xa8>
 8007b1a:	2301      	movs	r3, #1
 8007b1c:	4652      	mov	r2, sl
 8007b1e:	4641      	mov	r1, r8
 8007b20:	4638      	mov	r0, r7
 8007b22:	47c8      	blx	r9
 8007b24:	3001      	adds	r0, #1
 8007b26:	d103      	bne.n	8007b30 <_printf_common+0xac>
 8007b28:	f04f 30ff 	mov.w	r0, #4294967295
 8007b2c:	e8bd 87f0 	ldmia.w	sp!, {r4, r5, r6, r7, r8, r9, sl, pc}
 8007b30:	3501      	adds	r5, #1
 8007b32:	e7c6      	b.n	8007ac2 <_printf_common+0x3e>
 8007b34:	18e1      	adds	r1, r4, r3
 8007b36:	1c5a      	adds	r2, r3, #1
 8007b38:	2030      	movs	r0, #48	@ 0x30
 8007b3a:	f881 0043 	strb.w	r0, [r1, #67]	@ 0x43
 8007b3e:	4422      	add	r2, r4
 8007b40:	f894 1045 	ldrb.w	r1, [r4, #69]	@ 0x45
 8007b44:	f882 1043 	strb.w	r1, [r2, #67]	@ 0x43
 8007b48:	3302      	adds	r3, #2
 8007b4a:	e7c7      	b.n	8007adc <_printf_common+0x58>
 8007b4c:	2301      	movs	r3, #1
 8007b4e:	4622      	mov	r2, r4
 8007b50:	4641      	mov	r1, r8
 8007b52:	4638      	mov	r0, r7
 8007b54:	47c8      	blx	r9
 8007b56:	3001      	adds	r0, #1
 8007b58:	d0e6      	beq.n	8007b28 <_printf_common+0xa4>
 8007b5a:	3601      	adds	r6, #1
 8007b5c:	e7d9      	b.n	8007b12 <_printf_common+0x8e>
	...

08007b60 <_printf_i>:
 8007b60:	e92d 43f0 	stmdb	sp!, {r4, r5, r6, r7, r8, r9, lr}
 8007b64:	7e0d      	ldrb	r5, [r1, #24]
 8007b66:	b085      	sub	sp, #20
 8007b68:	2d78      	cmp	r5, #120	@ 0x78
 8007b6a:	4690      	mov	r8, r2
 8007b6c:	9e0c      	ldr	r6, [sp, #48]	@ 0x30
 8007b6e:	4607      	mov	r7, r0
 8007b70:	460c      	mov	r4, r1
 8007b72:	4699      	mov	r9, r3
 8007b74:	f101 0243 	add.w	r2, r1, #67	@ 0x43
 8007b78:	d807      	bhi.n	8007b8a <_printf_i+0x2a>
 8007b7a:	2d62      	cmp	r5, #98	@ 0x62
 8007b7c:	d80a      	bhi.n	8007b94 <_printf_i+0x34>
 8007b7e:	2d00      	cmp	r5, #0
 8007b80:	f000 80d7 	beq.w	8007d32 <_printf_i+0x1d2>
 8007b84:	2d58      	cmp	r5, #88	@ 0x58
 8007b86:	f000 80bc 	beq.w	8007d02 <_printf_i+0x1a2>
 8007b8a:	f104 0642 	add.w	r6, r4, #66	@ 0x42
 8007b8e:	f884 5042 	strb.w	r5, [r4, #66]	@ 0x42
 8007b92:	e03b      	b.n	8007c0c <_printf_i+0xac>
 8007b94:	f1a5 0363 	sub.w	r3, r5, #99	@ 0x63
 8007b98:	2b15      	cmp	r3, #21
 8007b9a:	d8f6      	bhi.n	8007b8a <_printf_i+0x2a>
 8007b9c:	a101      	add	r1, pc, #4	@ (adr r1, 8007ba4 <_printf_i+0x44>)
 8007b9e:	f851 f023 	ldr.w	pc, [r1, r3, lsl #2]
 8007ba2:	bf00      	nop
 8007ba4:	08007bfd 	.word	0x08007bfd
 8007ba8:	08007c11 	.word	0x08007c11
 8007bac:	08007b8b 	.word	0x08007b8b
 8007bb0:	08007b8b 	.word	0x08007b8b
 8007bb4:	08007b8b 	.word	0x08007b8b
 8007bb8:	08007b8b 	.word	0x08007b8b
 8007bbc:	08007c11 	.word	0x08007c11
 8007bc0:	08007b8b 	.word	0x08007b8b
 8007bc4:	08007b8b 	.word	0x08007b8b
 8007bc8:	08007b8b 	.word	0x08007b8b
 8007bcc:	08007b8b 	.word	0x08007b8b
 8007bd0:	08007d19 	.word	0x08007d19
 8007bd4:	08007c3b 	.word	0x08007c3b
 8007bd8:	08007ccb 	.word	0x08007ccb
 8007bdc:	08007b8b 	.word	0x08007b8b
 8007be0:	08007b8b 	.word	0x08007b8b
 8007be4:	08007d3b 	.word	0x08007d3b
 8007be8:	08007b8b 	.word	0x08007b8b
 8007bec:	08007c3b 	.word	0x08007c3b
 8007bf0:	08007b8b 	.word	0x08007b8b
 8007bf4:	08007b8b 	.word	0x08007b8b
 8007bf8:	08007cd3 	.word	0x08007cd3
 8007bfc:	6833      	ldr	r3, [r6, #0]
 8007bfe:	1d1a      	adds	r2, r3, #4
 8007c00:	681b      	ldr	r3, [r3, #0]
 8007c02:	6032      	str	r2, [r6, #0]
 8007c04:	f104 0642 	add.w	r6, r4, #66	@ 0x42
 8007c08:	f884 3042 	strb.w	r3, [r4, #66]	@ 0x42
 8007c0c:	2301      	movs	r3, #1
 8007c0e:	e0a1      	b.n	8007d54 <_printf_i+0x1f4>
 8007c10:	6833      	ldr	r3, [r6, #0]
 8007c12:	6820      	ldr	r0, [r4, #0]
 8007c14:	1d19      	adds	r1, r3, #4
 8007c16:	6031      	str	r1, [r6, #0]
 8007c18:	0606      	lsls	r6, r0, #24
 8007c1a:	d501      	bpl.n	8007c20 <_printf_i+0xc0>
 8007c1c:	681d      	ldr	r5, [r3, #0]
 8007c1e:	e003      	b.n	8007c28 <_printf_i+0xc8>
 8007c20:	0645      	lsls	r5, r0, #25
 8007c22:	d5fb      	bpl.n	8007c1c <_printf_i+0xbc>
 8007c24:	f9b3 5000 	ldrsh.w	r5, [r3]
 8007c28:	2d00      	cmp	r5, #0
 8007c2a:	da03      	bge.n	8007c34 <_printf_i+0xd4>
 8007c2c:	232d      	movs	r3, #45	@ 0x2d
 8007c2e:	426d      	negs	r5, r5
 8007c30:	f884 3043 	strb.w	r3, [r4, #67]	@ 0x43
 8007c34:	485b      	ldr	r0, [pc, #364]	@ (8007da4 <_printf_i+0x244>)
 8007c36:	230a      	movs	r3, #10
 8007c38:	e011      	b.n	8007c5e <_printf_i+0xfe>
 8007c3a:	6821      	ldr	r1, [r4, #0]
 8007c3c:	6833      	ldr	r3, [r6, #0]
 8007c3e:	0608      	lsls	r0, r1, #24
 8007c40:	f853 5b04 	ldr.w	r5, [r3], #4
 8007c44:	d402      	bmi.n	8007c4c <_printf_i+0xec>
 8007c46:	0649      	lsls	r1, r1, #25
 8007c48:	bf48      	it	mi
 8007c4a:	b2ad      	uxthmi	r5, r5
 8007c4c:	6033      	str	r3, [r6, #0]
 8007c4e:	7e23      	ldrb	r3, [r4, #24]
 8007c50:	4854      	ldr	r0, [pc, #336]	@ (8007da4 <_printf_i+0x244>)
 8007c52:	2b6f      	cmp	r3, #111	@ 0x6f
 8007c54:	d15c      	bne.n	8007d10 <_printf_i+0x1b0>
 8007c56:	2308      	movs	r3, #8
 8007c58:	2100      	movs	r1, #0
 8007c5a:	f884 1043 	strb.w	r1, [r4, #67]	@ 0x43
 8007c5e:	6866      	ldr	r6, [r4, #4]
 8007c60:	60a6      	str	r6, [r4, #8]
 8007c62:	2e00      	cmp	r6, #0
 8007c64:	db05      	blt.n	8007c72 <_printf_i+0x112>
 8007c66:	6821      	ldr	r1, [r4, #0]
 8007c68:	432e      	orrs	r6, r5
 8007c6a:	f021 0104 	bic.w	r1, r1, #4
 8007c6e:	6021      	str	r1, [r4, #0]
 8007c70:	d050      	beq.n	8007d14 <_printf_i+0x1b4>
 8007c72:	4616      	mov	r6, r2
 8007c74:	fbb5 f1f3 	udiv	r1, r5, r3
 8007c78:	fb03 5c11 	mls	ip, r3, r1, r5
 8007c7c:	f810 c00c 	ldrb.w	ip, [r0, ip]
 8007c80:	f806 cd01 	strb.w	ip, [r6, #-1]!
 8007c84:	46ac      	mov	ip, r5
 8007c86:	4563      	cmp	r3, ip
 8007c88:	460d      	mov	r5, r1
 8007c8a:	d9f3      	bls.n	8007c74 <_printf_i+0x114>
 8007c8c:	2b08      	cmp	r3, #8
 8007c8e:	d10b      	bne.n	8007ca8 <_printf_i+0x148>
 8007c90:	6823      	ldr	r3, [r4, #0]
 8007c92:	07db      	lsls	r3, r3, #31
 8007c94:	d508      	bpl.n	8007ca8 <_printf_i+0x148>
 8007c96:	6923      	ldr	r3, [r4, #16]
 8007c98:	6861      	ldr	r1, [r4, #4]
 8007c9a:	4299      	cmp	r1, r3
 8007c9c:	bfde      	ittt	le
 8007c9e:	2330      	movle	r3, #48	@ 0x30
 8007ca0:	f806 3c01 	strble.w	r3, [r6, #-1]
 8007ca4:	f106 36ff 	addle.w	r6, r6, #4294967295
 8007ca8:	1b92      	subs	r2, r2, r6
 8007caa:	6122      	str	r2, [r4, #16]
 8007cac:	f8cd 9000 	str.w	r9, [sp]
 8007cb0:	4643      	mov	r3, r8
 8007cb2:	aa03      	add	r2, sp, #12
 8007cb4:	4621      	mov	r1, r4
 8007cb6:	4638      	mov	r0, r7
 8007cb8:	f7ff fee4 	bl	8007a84 <_printf_common>
 8007cbc:	3001      	adds	r0, #1
 8007cbe:	d14e      	bne.n	8007d5e <_printf_i+0x1fe>
 8007cc0:	f04f 30ff 	mov.w	r0, #4294967295
 8007cc4:	b005      	add	sp, #20
 8007cc6:	e8bd 83f0 	ldmia.w	sp!, {r4, r5, r6, r7, r8, r9, pc}
 8007cca:	6823      	ldr	r3, [r4, #0]
 8007ccc:	f043 0320 	orr.w	r3, r3, #32
 8007cd0:	6023      	str	r3, [r4, #0]
 8007cd2:	4835      	ldr	r0, [pc, #212]	@ (8007da8 <_printf_i+0x248>)
 8007cd4:	2578      	movs	r5, #120	@ 0x78
 8007cd6:	f884 5045 	strb.w	r5, [r4, #69]	@ 0x45
 8007cda:	6823      	ldr	r3, [r4, #0]
 8007cdc:	6831      	ldr	r1, [r6, #0]
 8007cde:	f013 0f80 	tst.w	r3, #128	@ 0x80
 8007ce2:	f851 5b04 	ldr.w	r5, [r1], #4
 8007ce6:	d103      	bne.n	8007cf0 <_printf_i+0x190>
 8007ce8:	f013 0f40 	tst.w	r3, #64	@ 0x40
 8007cec:	bf18      	it	ne
 8007cee:	b2ad      	uxthne	r5, r5
 8007cf0:	6031      	str	r1, [r6, #0]
 8007cf2:	07d9      	lsls	r1, r3, #31
 8007cf4:	bf44      	itt	mi
 8007cf6:	f043 0320 	orrmi.w	r3, r3, #32
 8007cfa:	6023      	strmi	r3, [r4, #0]
 8007cfc:	b11d      	cbz	r5, 8007d06 <_printf_i+0x1a6>
 8007cfe:	2310      	movs	r3, #16
 8007d00:	e7aa      	b.n	8007c58 <_printf_i+0xf8>
 8007d02:	4828      	ldr	r0, [pc, #160]	@ (8007da4 <_printf_i+0x244>)
 8007d04:	e7e7      	b.n	8007cd6 <_printf_i+0x176>
 8007d06:	6823      	ldr	r3, [r4, #0]
 8007d08:	f023 0320 	bic.w	r3, r3, #32
 8007d0c:	6023      	str	r3, [r4, #0]
 8007d0e:	e7f6      	b.n	8007cfe <_printf_i+0x19e>
 8007d10:	230a      	movs	r3, #10
 8007d12:	e7a1      	b.n	8007c58 <_printf_i+0xf8>
 8007d14:	4616      	mov	r6, r2
 8007d16:	e7b9      	b.n	8007c8c <_printf_i+0x12c>
 8007d18:	6833      	ldr	r3, [r6, #0]
 8007d1a:	6825      	ldr	r5, [r4, #0]
 8007d1c:	6961      	ldr	r1, [r4, #20]
 8007d1e:	1d18      	adds	r0, r3, #4
 8007d20:	6030      	str	r0, [r6, #0]
 8007d22:	062e      	lsls	r6, r5, #24
 8007d24:	681b      	ldr	r3, [r3, #0]
 8007d26:	d501      	bpl.n	8007d2c <_printf_i+0x1cc>
 8007d28:	6019      	str	r1, [r3, #0]
 8007d2a:	e002      	b.n	8007d32 <_printf_i+0x1d2>
 8007d2c:	0668      	lsls	r0, r5, #25
 8007d2e:	d5fb      	bpl.n	8007d28 <_printf_i+0x1c8>
 8007d30:	8019      	strh	r1, [r3, #0]
 8007d32:	2300      	movs	r3, #0
 8007d34:	6123      	str	r3, [r4, #16]
 8007d36:	4616      	mov	r6, r2
 8007d38:	e7b8      	b.n	8007cac <_printf_i+0x14c>
 8007d3a:	6833      	ldr	r3, [r6, #0]
 8007d3c:	1d1a      	adds	r2, r3, #4
 8007d3e:	6032      	str	r2, [r6, #0]
 8007d40:	681e      	ldr	r6, [r3, #0]
 8007d42:	6862      	ldr	r2, [r4, #4]
 8007d44:	2100      	movs	r1, #0
 8007d46:	4630      	mov	r0, r6
 8007d48:	f7f8 fa4a 	bl	80001e0 <memchr>
 8007d4c:	b108      	cbz	r0, 8007d52 <_printf_i+0x1f2>
 8007d4e:	1b80      	subs	r0, r0, r6
 8007d50:	6060      	str	r0, [r4, #4]
 8007d52:	6863      	ldr	r3, [r4, #4]
 8007d54:	6123      	str	r3, [r4, #16]
 8007d56:	2300      	movs	r3, #0
 8007d58:	f884 3043 	strb.w	r3, [r4, #67]	@ 0x43
 8007d5c:	e7a6      	b.n	8007cac <_printf_i+0x14c>
 8007d5e:	6923      	ldr	r3, [r4, #16]
 8007d60:	4632      	mov	r2, r6
 8007d62:	4641      	mov	r1, r8
 8007d64:	4638      	mov	r0, r7
 8007d66:	47c8      	blx	r9
 8007d68:	3001      	adds	r0, #1
 8007d6a:	d0a9      	beq.n	8007cc0 <_printf_i+0x160>
 8007d6c:	6823      	ldr	r3, [r4, #0]
 8007d6e:	079b      	lsls	r3, r3, #30
 8007d70:	d413      	bmi.n	8007d9a <_printf_i+0x23a>
 8007d72:	68e0      	ldr	r0, [r4, #12]
 8007d74:	9b03      	ldr	r3, [sp, #12]
 8007d76:	4298      	cmp	r0, r3
 8007d78:	bfb8      	it	lt
 8007d7a:	4618      	movlt	r0, r3
 8007d7c:	e7a2      	b.n	8007cc4 <_printf_i+0x164>
 8007d7e:	2301      	movs	r3, #1
 8007d80:	4632      	mov	r2, r6
 8007d82:	4641      	mov	r1, r8
 8007d84:	4638      	mov	r0, r7
 8007d86:	47c8      	blx	r9
 8007d88:	3001      	adds	r0, #1
 8007d8a:	d099      	beq.n	8007cc0 <_printf_i+0x160>
 8007d8c:	3501      	adds	r5, #1
 8007d8e:	68e3      	ldr	r3, [r4, #12]
 8007d90:	9903      	ldr	r1, [sp, #12]
 8007d92:	1a5b      	subs	r3, r3, r1
 8007d94:	42ab      	cmp	r3, r5
 8007d96:	dcf2      	bgt.n	8007d7e <_printf_i+0x21e>
 8007d98:	e7eb      	b.n	8007d72 <_printf_i+0x212>
 8007d9a:	2500      	movs	r5, #0
 8007d9c:	f104 0619 	add.w	r6, r4, #25
 8007da0:	e7f5      	b.n	8007d8e <_printf_i+0x22e>
 8007da2:	bf00      	nop
 8007da4:	0801e3b6 	.word	0x0801e3b6
 8007da8:	0801e3c7 	.word	0x0801e3c7

08007dac <std>:
 8007dac:	2300      	movs	r3, #0
 8007dae:	b510      	push	{r4, lr}
 8007db0:	4604      	mov	r4, r0
 8007db2:	e9c0 3300 	strd	r3, r3, [r0]
 8007db6:	e9c0 3304 	strd	r3, r3, [r0, #16]
 8007dba:	6083      	str	r3, [r0, #8]
 8007dbc:	8181      	strh	r1, [r0, #12]
 8007dbe:	6643      	str	r3, [r0, #100]	@ 0x64
 8007dc0:	81c2      	strh	r2, [r0, #14]
 8007dc2:	6183      	str	r3, [r0, #24]
 8007dc4:	4619      	mov	r1, r3
 8007dc6:	2208      	movs	r2, #8
 8007dc8:	305c      	adds	r0, #92	@ 0x5c
 8007dca:	f000 f93f 	bl	800804c <memset>
 8007dce:	4b0d      	ldr	r3, [pc, #52]	@ (8007e04 <std+0x58>)
 8007dd0:	6263      	str	r3, [r4, #36]	@ 0x24
 8007dd2:	4b0d      	ldr	r3, [pc, #52]	@ (8007e08 <std+0x5c>)
 8007dd4:	62a3      	str	r3, [r4, #40]	@ 0x28
 8007dd6:	4b0d      	ldr	r3, [pc, #52]	@ (8007e0c <std+0x60>)
 8007dd8:	62e3      	str	r3, [r4, #44]	@ 0x2c
 8007dda:	4b0d      	ldr	r3, [pc, #52]	@ (8007e10 <std+0x64>)
 8007ddc:	6323      	str	r3, [r4, #48]	@ 0x30
 8007dde:	4b0d      	ldr	r3, [pc, #52]	@ (8007e14 <std+0x68>)
 8007de0:	6224      	str	r4, [r4, #32]
 8007de2:	429c      	cmp	r4, r3
 8007de4:	d006      	beq.n	8007df4 <std+0x48>
 8007de6:	f103 0268 	add.w	r2, r3, #104	@ 0x68
 8007dea:	4294      	cmp	r4, r2
 8007dec:	d002      	beq.n	8007df4 <std+0x48>
 8007dee:	33d0      	adds	r3, #208	@ 0xd0
 8007df0:	429c      	cmp	r4, r3
 8007df2:	d105      	bne.n	8007e00 <std+0x54>
 8007df4:	f104 0058 	add.w	r0, r4, #88	@ 0x58
 8007df8:	e8bd 4010 	ldmia.w	sp!, {r4, lr}
 8007dfc:	f000 b9a2 	b.w	8008144 <__retarget_lock_init_recursive>
 8007e00:	bd10      	pop	{r4, pc}
 8007e02:	bf00      	nop
 8007e04:	08007fc5 	.word	0x08007fc5
 8007e08:	08007fe7 	.word	0x08007fe7
 8007e0c:	0800801f 	.word	0x0800801f
 8007e10:	08008045 	.word	0x08008045
 8007e14:	2000d320 	.word	0x2000d320

08007e18 <stdio_exit_handler>:
 8007e18:	4a02      	ldr	r2, [pc, #8]	@ (8007e24 <stdio_exit_handler+0xc>)
 8007e1a:	4903      	ldr	r1, [pc, #12]	@ (8007e28 <stdio_exit_handler+0x10>)
 8007e1c:	4803      	ldr	r0, [pc, #12]	@ (8007e2c <stdio_exit_handler+0x14>)
 8007e1e:	f000 b86b 	b.w	8007ef8 <_fwalk_sglue>
 8007e22:	bf00      	nop
 8007e24:	20002010 	.word	0x20002010
 8007e28:	08009d71 	.word	0x08009d71
 8007e2c:	20002020 	.word	0x20002020

08007e30 <cleanup_stdio>:
 8007e30:	6841      	ldr	r1, [r0, #4]
 8007e32:	4b0c      	ldr	r3, [pc, #48]	@ (8007e64 <cleanup_stdio+0x34>)
 8007e34:	4299      	cmp	r1, r3
 8007e36:	b510      	push	{r4, lr}
 8007e38:	4604      	mov	r4, r0
 8007e3a:	d001      	beq.n	8007e40 <cleanup_stdio+0x10>
 8007e3c:	f001 ff98 	bl	8009d70 <_fflush_r>
 8007e40:	68a1      	ldr	r1, [r4, #8]
 8007e42:	4b09      	ldr	r3, [pc, #36]	@ (8007e68 <cleanup_stdio+0x38>)
 8007e44:	4299      	cmp	r1, r3
 8007e46:	d002      	beq.n	8007e4e <cleanup_stdio+0x1e>
 8007e48:	4620      	mov	r0, r4
 8007e4a:	f001 ff91 	bl	8009d70 <_fflush_r>
 8007e4e:	68e1      	ldr	r1, [r4, #12]
 8007e50:	4b06      	ldr	r3, [pc, #24]	@ (8007e6c <cleanup_stdio+0x3c>)
 8007e52:	4299      	cmp	r1, r3
 8007e54:	d004      	beq.n	8007e60 <cleanup_stdio+0x30>
 8007e56:	4620      	mov	r0, r4
 8007e58:	e8bd 4010 	ldmia.w	sp!, {r4, lr}
 8007e5c:	f001 bf88 	b.w	8009d70 <_fflush_r>
 8007e60:	bd10      	pop	{r4, pc}
 8007e62:	bf00      	nop
 8007e64:	2000d320 	.word	0x2000d320
 8007e68:	2000d388 	.word	0x2000d388
 8007e6c:	2000d3f0 	.word	0x2000d3f0

08007e70 <global_stdio_init.part.0>:
 8007e70:	4b0c      	ldr	r3, [pc, #48]	@ (8007ea4 <global_stdio_init.part.0+0x34>)
 8007e72:	4a0d      	ldr	r2, [pc, #52]	@ (8007ea8 <global_stdio_init.part.0+0x38>)
 8007e74:	480d      	ldr	r0, [pc, #52]	@ (8007eac <global_stdio_init.part.0+0x3c>)
 8007e76:	b510      	push	{r4, lr}
 8007e78:	2104      	movs	r1, #4
 8007e7a:	601a      	str	r2, [r3, #0]
 8007e7c:	2200      	movs	r2, #0
 8007e7e:	f7ff ff95 	bl	8007dac <std>
 8007e82:	4b0a      	ldr	r3, [pc, #40]	@ (8007eac <global_stdio_init.part.0+0x3c>)
 8007e84:	2201      	movs	r2, #1
 8007e86:	461c      	mov	r4, r3
 8007e88:	2109      	movs	r1, #9
 8007e8a:	f103 0068 	add.w	r0, r3, #104	@ 0x68
 8007e8e:	f7ff ff8d 	bl	8007dac <std>
 8007e92:	f104 00d0 	add.w	r0, r4, #208	@ 0xd0
 8007e96:	2202      	movs	r2, #2
 8007e98:	e8bd 4010 	ldmia.w	sp!, {r4, lr}
 8007e9c:	2112      	movs	r1, #18
 8007e9e:	f7ff bf85 	b.w	8007dac <std>
 8007ea2:	bf00      	nop
 8007ea4:	2000d458 	.word	0x2000d458
 8007ea8:	08007e19 	.word	0x08007e19
 8007eac:	2000d320 	.word	0x2000d320

08007eb0 <__sfp_lock_acquire>:
 8007eb0:	4801      	ldr	r0, [pc, #4]	@ (8007eb8 <__sfp_lock_acquire+0x8>)
 8007eb2:	f000 b948 	b.w	8008146 <__retarget_lock_acquire_recursive>
 8007eb6:	bf00      	nop
 8007eb8:	2000d461 	.word	0x2000d461

08007ebc <__sfp_lock_release>:
 8007ebc:	4801      	ldr	r0, [pc, #4]	@ (8007ec4 <__sfp_lock_release+0x8>)
 8007ebe:	f000 b943 	b.w	8008148 <__retarget_lock_release_recursive>
 8007ec2:	bf00      	nop
 8007ec4:	2000d461 	.word	0x2000d461

08007ec8 <__sinit>:
 8007ec8:	b510      	push	{r4, lr}
 8007eca:	4604      	mov	r4, r0
 8007ecc:	f7ff fff0 	bl	8007eb0 <__sfp_lock_acquire>
 8007ed0:	6a23      	ldr	r3, [r4, #32]
 8007ed2:	b11b      	cbz	r3, 8007edc <__sinit+0x14>
 8007ed4:	e8bd 4010 	ldmia.w	sp!, {r4, lr}
 8007ed8:	f7ff bff0 	b.w	8007ebc <__sfp_lock_release>
 8007edc:	4b04      	ldr	r3, [pc, #16]	@ (8007ef0 <__sinit+0x28>)
 8007ede:	6223      	str	r3, [r4, #32]
 8007ee0:	4b04      	ldr	r3, [pc, #16]	@ (8007ef4 <__sinit+0x2c>)
 8007ee2:	681b      	ldr	r3, [r3, #0]
 8007ee4:	2b00      	cmp	r3, #0
 8007ee6:	d1f5      	bne.n	8007ed4 <__sinit+0xc>
 8007ee8:	f7ff ffc2 	bl	8007e70 <global_stdio_init.part.0>
 8007eec:	e7f2      	b.n	8007ed4 <__sinit+0xc>
 8007eee:	bf00      	nop
 8007ef0:	08007e31 	.word	0x08007e31
 8007ef4:	2000d458 	.word	0x2000d458

08007ef8 <_fwalk_sglue>:
 8007ef8:	e92d 43f8 	stmdb	sp!, {r3, r4, r5, r6, r7, r8, r9, lr}
 8007efc:	4607      	mov	r7, r0
 8007efe:	4688      	mov	r8, r1
 8007f00:	4614      	mov	r4, r2
 8007f02:	2600      	movs	r6, #0
 8007f04:	e9d4 9501 	ldrd	r9, r5, [r4, #4]
 8007f08:	f1b9 0901 	subs.w	r9, r9, #1
 8007f0c:	d505      	bpl.n	8007f1a <_fwalk_sglue+0x22>
 8007f0e:	6824      	ldr	r4, [r4, #0]
 8007f10:	2c00      	cmp	r4, #0
 8007f12:	d1f7      	bne.n	8007f04 <_fwalk_sglue+0xc>
 8007f14:	4630      	mov	r0, r6
 8007f16:	e8bd 83f8 	ldmia.w	sp!, {r3, r4, r5, r6, r7, r8, r9, pc}
 8007f1a:	89ab      	ldrh	r3, [r5, #12]
 8007f1c:	2b01      	cmp	r3, #1
 8007f1e:	d907      	bls.n	8007f30 <_fwalk_sglue+0x38>
 8007f20:	f9b5 300e 	ldrsh.w	r3, [r5, #14]
 8007f24:	3301      	adds	r3, #1
 8007f26:	d003      	beq.n	8007f30 <_fwalk_sglue+0x38>
 8007f28:	4629      	mov	r1, r5
 8007f2a:	4638      	mov	r0, r7
 8007f2c:	47c0      	blx	r8
 8007f2e:	4306      	orrs	r6, r0
 8007f30:	3568      	adds	r5, #104	@ 0x68
 8007f32:	e7e9      	b.n	8007f08 <_fwalk_sglue+0x10>

08007f34 <iprintf>:
 8007f34:	b40f      	push	{r0, r1, r2, r3}
 8007f36:	b507      	push	{r0, r1, r2, lr}
 8007f38:	4906      	ldr	r1, [pc, #24]	@ (8007f54 <iprintf+0x20>)
 8007f3a:	ab04      	add	r3, sp, #16
 8007f3c:	6808      	ldr	r0, [r1, #0]
 8007f3e:	f853 2b04 	ldr.w	r2, [r3], #4
 8007f42:	6881      	ldr	r1, [r0, #8]
 8007f44:	9301      	str	r3, [sp, #4]
 8007f46:	f001 fd7d 	bl	8009a44 <_vfiprintf_r>
 8007f4a:	b003      	add	sp, #12
 8007f4c:	f85d eb04 	ldr.w	lr, [sp], #4
 8007f50:	b004      	add	sp, #16
 8007f52:	4770      	bx	lr
 8007f54:	2000201c 	.word	0x2000201c

08007f58 <sniprintf>:
 8007f58:	b40c      	push	{r2, r3}
 8007f5a:	b530      	push	{r4, r5, lr}
 8007f5c:	4b18      	ldr	r3, [pc, #96]	@ (8007fc0 <sniprintf+0x68>)
 8007f5e:	1e0c      	subs	r4, r1, #0
 8007f60:	681d      	ldr	r5, [r3, #0]
 8007f62:	b09d      	sub	sp, #116	@ 0x74
 8007f64:	da08      	bge.n	8007f78 <sniprintf+0x20>
 8007f66:	238b      	movs	r3, #139	@ 0x8b
 8007f68:	602b      	str	r3, [r5, #0]
 8007f6a:	f04f 30ff 	mov.w	r0, #4294967295
 8007f6e:	b01d      	add	sp, #116	@ 0x74
 8007f70:	e8bd 4030 	ldmia.w	sp!, {r4, r5, lr}
 8007f74:	b002      	add	sp, #8
 8007f76:	4770      	bx	lr
 8007f78:	f44f 7302 	mov.w	r3, #520	@ 0x208
 8007f7c:	f8ad 3014 	strh.w	r3, [sp, #20]
 8007f80:	f04f 0300 	mov.w	r3, #0
 8007f84:	931b      	str	r3, [sp, #108]	@ 0x6c
 8007f86:	bf14      	ite	ne
 8007f88:	f104 33ff 	addne.w	r3, r4, #4294967295
 8007f8c:	4623      	moveq	r3, r4
 8007f8e:	9304      	str	r3, [sp, #16]
 8007f90:	9307      	str	r3, [sp, #28]
 8007f92:	f64f 73ff 	movw	r3, #65535	@ 0xffff
 8007f96:	9002      	str	r0, [sp, #8]
 8007f98:	9006      	str	r0, [sp, #24]
 8007f9a:	f8ad 3016 	strh.w	r3, [sp, #22]
 8007f9e:	9a20      	ldr	r2, [sp, #128]	@ 0x80
 8007fa0:	ab21      	add	r3, sp, #132	@ 0x84
 8007fa2:	a902      	add	r1, sp, #8
 8007fa4:	4628      	mov	r0, r5
 8007fa6:	9301      	str	r3, [sp, #4]
 8007fa8:	f001 fc2a 	bl	8009800 <_svfiprintf_r>
 8007fac:	1c43      	adds	r3, r0, #1
 8007fae:	bfbc      	itt	lt
 8007fb0:	238b      	movlt	r3, #139	@ 0x8b
 8007fb2:	602b      	strlt	r3, [r5, #0]
 8007fb4:	2c00      	cmp	r4, #0
 8007fb6:	d0da      	beq.n	8007f6e <sniprintf+0x16>
 8007fb8:	9b02      	ldr	r3, [sp, #8]
 8007fba:	2200      	movs	r2, #0
 8007fbc:	701a      	strb	r2, [r3, #0]
 8007fbe:	e7d6      	b.n	8007f6e <sniprintf+0x16>
 8007fc0:	2000201c 	.word	0x2000201c

08007fc4 <__sread>:
 8007fc4:	b510      	push	{r4, lr}
 8007fc6:	460c      	mov	r4, r1
 8007fc8:	f9b1 100e 	ldrsh.w	r1, [r1, #14]
 8007fcc:	f000 f86c 	bl	80080a8 <_read_r>
 8007fd0:	2800      	cmp	r0, #0
 8007fd2:	bfab      	itete	ge
 8007fd4:	6d63      	ldrge	r3, [r4, #84]	@ 0x54
 8007fd6:	89a3      	ldrhlt	r3, [r4, #12]
 8007fd8:	181b      	addge	r3, r3, r0
 8007fda:	f423 5380 	biclt.w	r3, r3, #4096	@ 0x1000
 8007fde:	bfac      	ite	ge
 8007fe0:	6563      	strge	r3, [r4, #84]	@ 0x54
 8007fe2:	81a3      	strhlt	r3, [r4, #12]
 8007fe4:	bd10      	pop	{r4, pc}

08007fe6 <__swrite>:
 8007fe6:	e92d 41f0 	stmdb	sp!, {r4, r5, r6, r7, r8, lr}
 8007fea:	461f      	mov	r7, r3
 8007fec:	898b      	ldrh	r3, [r1, #12]
 8007fee:	05db      	lsls	r3, r3, #23
 8007ff0:	4605      	mov	r5, r0
 8007ff2:	460c      	mov	r4, r1
 8007ff4:	4616      	mov	r6, r2
 8007ff6:	d505      	bpl.n	8008004 <__swrite+0x1e>
 8007ff8:	f9b1 100e 	ldrsh.w	r1, [r1, #14]
 8007ffc:	2302      	movs	r3, #2
 8007ffe:	2200      	movs	r2, #0
 8008000:	f000 f840 	bl	8008084 <_lseek_r>
 8008004:	89a3      	ldrh	r3, [r4, #12]
 8008006:	f9b4 100e 	ldrsh.w	r1, [r4, #14]
 800800a:	f423 5380 	bic.w	r3, r3, #4096	@ 0x1000
 800800e:	81a3      	strh	r3, [r4, #12]
 8008010:	4632      	mov	r2, r6
 8008012:	463b      	mov	r3, r7
 8008014:	4628      	mov	r0, r5
 8008016:	e8bd 41f0 	ldmia.w	sp!, {r4, r5, r6, r7, r8, lr}
 800801a:	f000 b857 	b.w	80080cc <_write_r>

0800801e <__sseek>:
 800801e:	b510      	push	{r4, lr}
 8008020:	460c      	mov	r4, r1
 8008022:	f9b1 100e 	ldrsh.w	r1, [r1, #14]
 8008026:	f000 f82d 	bl	8008084 <_lseek_r>
 800802a:	f9b4 300c 	ldrsh.w	r3, [r4, #12]
 800802e:	1c42      	adds	r2, r0, #1
 8008030:	bf0b      	itete	eq
 8008032:	f423 5380 	biceq.w	r3, r3, #4096	@ 0x1000
 8008036:	f443 5380 	orrne.w	r3, r3, #4096	@ 0x1000
 800803a:	81a3      	strheq	r3, [r4, #12]
 800803c:	81a3      	strhne	r3, [r4, #12]
 800803e:	bf18      	it	ne
 8008040:	6560      	strne	r0, [r4, #84]	@ 0x54
 8008042:	bd10      	pop	{r4, pc}

08008044 <__sclose>:
 8008044:	f9b1 100e 	ldrsh.w	r1, [r1, #14]
 8008048:	f000 b80c 	b.w	8008064 <_close_r>

0800804c <memset>:
 800804c:	4402      	add	r2, r0
 800804e:	4603      	mov	r3, r0
 8008050:	4293      	cmp	r3, r2
 8008052:	d100      	bne.n	8008056 <memset+0xa>
 8008054:	4770      	bx	lr
 8008056:	f803 1b01 	strb.w	r1, [r3], #1
 800805a:	e7f9      	b.n	8008050 <memset+0x4>

0800805c <_localeconv_r>:
 800805c:	4800      	ldr	r0, [pc, #0]	@ (8008060 <_localeconv_r+0x4>)
 800805e:	4770      	bx	lr
 8008060:	2000215c 	.word	0x2000215c

08008064 <_close_r>:
 8008064:	b538      	push	{r3, r4, r5, lr}
 8008066:	4d06      	ldr	r5, [pc, #24]	@ (8008080 <_close_r+0x1c>)
 8008068:	2300      	movs	r3, #0
 800806a:	4604      	mov	r4, r0
 800806c:	4608      	mov	r0, r1
 800806e:	602b      	str	r3, [r5, #0]
 8008070:	f7f9 fcca 	bl	8001a08 <_close>
 8008074:	1c43      	adds	r3, r0, #1
 8008076:	d102      	bne.n	800807e <_close_r+0x1a>
 8008078:	682b      	ldr	r3, [r5, #0]
 800807a:	b103      	cbz	r3, 800807e <_close_r+0x1a>
 800807c:	6023      	str	r3, [r4, #0]
 800807e:	bd38      	pop	{r3, r4, r5, pc}
 8008080:	2000d45c 	.word	0x2000d45c

08008084 <_lseek_r>:
 8008084:	b538      	push	{r3, r4, r5, lr}
 8008086:	4d07      	ldr	r5, [pc, #28]	@ (80080a4 <_lseek_r+0x20>)
 8008088:	4604      	mov	r4, r0
 800808a:	4608      	mov	r0, r1
 800808c:	4611      	mov	r1, r2
 800808e:	2200      	movs	r2, #0
 8008090:	602a      	str	r2, [r5, #0]
 8008092:	461a      	mov	r2, r3
 8008094:	f7f9 fcdf 	bl	8001a56 <_lseek>
 8008098:	1c43      	adds	r3, r0, #1
 800809a:	d102      	bne.n	80080a2 <_lseek_r+0x1e>
 800809c:	682b      	ldr	r3, [r5, #0]
 800809e:	b103      	cbz	r3, 80080a2 <_lseek_r+0x1e>
 80080a0:	6023      	str	r3, [r4, #0]
 80080a2:	bd38      	pop	{r3, r4, r5, pc}
 80080a4:	2000d45c 	.word	0x2000d45c

080080a8 <_read_r>:
 80080a8:	b538      	push	{r3, r4, r5, lr}
 80080aa:	4d07      	ldr	r5, [pc, #28]	@ (80080c8 <_read_r+0x20>)
 80080ac:	4604      	mov	r4, r0
 80080ae:	4608      	mov	r0, r1
 80080b0:	4611      	mov	r1, r2
 80080b2:	2200      	movs	r2, #0
 80080b4:	602a      	str	r2, [r5, #0]
 80080b6:	461a      	mov	r2, r3
 80080b8:	f7f9 fc6d 	bl	8001996 <_read>
 80080bc:	1c43      	adds	r3, r0, #1
 80080be:	d102      	bne.n	80080c6 <_read_r+0x1e>
 80080c0:	682b      	ldr	r3, [r5, #0]
 80080c2:	b103      	cbz	r3, 80080c6 <_read_r+0x1e>
 80080c4:	6023      	str	r3, [r4, #0]
 80080c6:	bd38      	pop	{r3, r4, r5, pc}
 80080c8:	2000d45c 	.word	0x2000d45c

080080cc <_write_r>:
 80080cc:	b538      	push	{r3, r4, r5, lr}
 80080ce:	4d07      	ldr	r5, [pc, #28]	@ (80080ec <_write_r+0x20>)
 80080d0:	4604      	mov	r4, r0
 80080d2:	4608      	mov	r0, r1
 80080d4:	4611      	mov	r1, r2
 80080d6:	2200      	movs	r2, #0
 80080d8:	602a      	str	r2, [r5, #0]
 80080da:	461a      	mov	r2, r3
 80080dc:	f7f9 fc78 	bl	80019d0 <_write>
 80080e0:	1c43      	adds	r3, r0, #1
 80080e2:	d102      	bne.n	80080ea <_write_r+0x1e>
 80080e4:	682b      	ldr	r3, [r5, #0]
 80080e6:	b103      	cbz	r3, 80080ea <_write_r+0x1e>
 80080e8:	6023      	str	r3, [r4, #0]
 80080ea:	bd38      	pop	{r3, r4, r5, pc}
 80080ec:	2000d45c 	.word	0x2000d45c

080080f0 <__errno>:
 80080f0:	4b01      	ldr	r3, [pc, #4]	@ (80080f8 <__errno+0x8>)
 80080f2:	6818      	ldr	r0, [r3, #0]
 80080f4:	4770      	bx	lr
 80080f6:	bf00      	nop
 80080f8:	2000201c 	.word	0x2000201c

080080fc <__libc_init_array>:
 80080fc:	b570      	push	{r4, r5, r6, lr}
 80080fe:	4b0d      	ldr	r3, [pc, #52]	@ (8008134 <__libc_init_array+0x38>)
 8008100:	4d0d      	ldr	r5, [pc, #52]	@ (8008138 <__libc_init_array+0x3c>)
 8008102:	1b5b      	subs	r3, r3, r5
 8008104:	109c      	asrs	r4, r3, #2
 8008106:	2600      	movs	r6, #0
 8008108:	42a6      	cmp	r6, r4
 800810a:	d109      	bne.n	8008120 <__libc_init_array+0x24>
 800810c:	f002 feb8 	bl	800ae80 <_init>
 8008110:	4d0a      	ldr	r5, [pc, #40]	@ (800813c <__libc_init_array+0x40>)
 8008112:	4b0b      	ldr	r3, [pc, #44]	@ (8008140 <__libc_init_array+0x44>)
 8008114:	1b5b      	subs	r3, r3, r5
 8008116:	109c      	asrs	r4, r3, #2
 8008118:	2600      	movs	r6, #0
 800811a:	42a6      	cmp	r6, r4
 800811c:	d105      	bne.n	800812a <__libc_init_array+0x2e>
 800811e:	bd70      	pop	{r4, r5, r6, pc}
 8008120:	f855 3b04 	ldr.w	r3, [r5], #4
 8008124:	4798      	blx	r3
 8008126:	3601      	adds	r6, #1
 8008128:	e7ee      	b.n	8008108 <__libc_init_array+0xc>
 800812a:	f855 3b04 	ldr.w	r3, [r5], #4
 800812e:	4798      	blx	r3
 8008130:	3601      	adds	r6, #1
 8008132:	e7f2      	b.n	800811a <__libc_init_array+0x1e>
 8008134:	0801eaf4 	.word	0x0801eaf4
 8008138:	0801eaf4 	.word	0x0801eaf4
 800813c:	0801eaf4 	.word	0x0801eaf4
 8008140:	0801eaf8 	.word	0x0801eaf8

08008144 <__retarget_lock_init_recursive>:
 8008144:	4770      	bx	lr

08008146 <__retarget_lock_acquire_recursive>:
 8008146:	4770      	bx	lr

08008148 <__retarget_lock_release_recursive>:
 8008148:	4770      	bx	lr

0800814a <memcpy>:
 800814a:	440a      	add	r2, r1
 800814c:	4291      	cmp	r1, r2
 800814e:	f100 33ff 	add.w	r3, r0, #4294967295
 8008152:	d100      	bne.n	8008156 <memcpy+0xc>
 8008154:	4770      	bx	lr
 8008156:	b510      	push	{r4, lr}
 8008158:	f811 4b01 	ldrb.w	r4, [r1], #1
 800815c:	f803 4f01 	strb.w	r4, [r3, #1]!
 8008160:	4291      	cmp	r1, r2
 8008162:	d1f9      	bne.n	8008158 <memcpy+0xe>
 8008164:	bd10      	pop	{r4, pc}

08008166 <quorem>:
 8008166:	e92d 4ff7 	stmdb	sp!, {r0, r1, r2, r4, r5, r6, r7, r8, r9, sl, fp, lr}
 800816a:	6903      	ldr	r3, [r0, #16]
 800816c:	690c      	ldr	r4, [r1, #16]
 800816e:	42a3      	cmp	r3, r4
 8008170:	4607      	mov	r7, r0
 8008172:	db7e      	blt.n	8008272 <quorem+0x10c>
 8008174:	3c01      	subs	r4, #1
 8008176:	f101 0814 	add.w	r8, r1, #20
 800817a:	00a3      	lsls	r3, r4, #2
 800817c:	f100 0514 	add.w	r5, r0, #20
 8008180:	9300      	str	r3, [sp, #0]
 8008182:	eb05 0384 	add.w	r3, r5, r4, lsl #2
 8008186:	9301      	str	r3, [sp, #4]
 8008188:	f858 3024 	ldr.w	r3, [r8, r4, lsl #2]
 800818c:	f855 2024 	ldr.w	r2, [r5, r4, lsl #2]
 8008190:	3301      	adds	r3, #1
 8008192:	429a      	cmp	r2, r3
 8008194:	eb08 0984 	add.w	r9, r8, r4, lsl #2
 8008198:	fbb2 f6f3 	udiv	r6, r2, r3
 800819c:	d32e      	bcc.n	80081fc <quorem+0x96>
 800819e:	f04f 0a00 	mov.w	sl, #0
 80081a2:	46c4      	mov	ip, r8
 80081a4:	46ae      	mov	lr, r5
 80081a6:	46d3      	mov	fp, sl
 80081a8:	f85c 3b04 	ldr.w	r3, [ip], #4
 80081ac:	b298      	uxth	r0, r3
 80081ae:	fb06 a000 	mla	r0, r6, r0, sl
 80081b2:	0c02      	lsrs	r2, r0, #16
 80081b4:	0c1b      	lsrs	r3, r3, #16
 80081b6:	fb06 2303 	mla	r3, r6, r3, r2
 80081ba:	f8de 2000 	ldr.w	r2, [lr]
 80081be:	b280      	uxth	r0, r0
 80081c0:	b292      	uxth	r2, r2
 80081c2:	1a12      	subs	r2, r2, r0
 80081c4:	445a      	add	r2, fp
 80081c6:	f8de 0000 	ldr.w	r0, [lr]
 80081ca:	ea4f 4a13 	mov.w	sl, r3, lsr #16
 80081ce:	b29b      	uxth	r3, r3
 80081d0:	ebc3 4322 	rsb	r3, r3, r2, asr #16
 80081d4:	eb03 4310 	add.w	r3, r3, r0, lsr #16
 80081d8:	b292      	uxth	r2, r2
 80081da:	ea42 4203 	orr.w	r2, r2, r3, lsl #16
 80081de:	45e1      	cmp	r9, ip
 80081e0:	f84e 2b04 	str.w	r2, [lr], #4
 80081e4:	ea4f 4b23 	mov.w	fp, r3, asr #16
 80081e8:	d2de      	bcs.n	80081a8 <quorem+0x42>
 80081ea:	9b00      	ldr	r3, [sp, #0]
 80081ec:	58eb      	ldr	r3, [r5, r3]
 80081ee:	b92b      	cbnz	r3, 80081fc <quorem+0x96>
 80081f0:	9b01      	ldr	r3, [sp, #4]
 80081f2:	3b04      	subs	r3, #4
 80081f4:	429d      	cmp	r5, r3
 80081f6:	461a      	mov	r2, r3
 80081f8:	d32f      	bcc.n	800825a <quorem+0xf4>
 80081fa:	613c      	str	r4, [r7, #16]
 80081fc:	4638      	mov	r0, r7
 80081fe:	f001 f993 	bl	8009528 <__mcmp>
 8008202:	2800      	cmp	r0, #0
 8008204:	db25      	blt.n	8008252 <quorem+0xec>
 8008206:	4629      	mov	r1, r5
 8008208:	2000      	movs	r0, #0
 800820a:	f858 2b04 	ldr.w	r2, [r8], #4
 800820e:	f8d1 c000 	ldr.w	ip, [r1]
 8008212:	fa1f fe82 	uxth.w	lr, r2
 8008216:	fa1f f38c 	uxth.w	r3, ip
 800821a:	eba3 030e 	sub.w	r3, r3, lr
 800821e:	4403      	add	r3, r0
 8008220:	0c12      	lsrs	r2, r2, #16
 8008222:	ebc2 4223 	rsb	r2, r2, r3, asr #16
 8008226:	eb02 421c 	add.w	r2, r2, ip, lsr #16
 800822a:	b29b      	uxth	r3, r3
 800822c:	ea43 4302 	orr.w	r3, r3, r2, lsl #16
 8008230:	45c1      	cmp	r9, r8
 8008232:	f841 3b04 	str.w	r3, [r1], #4
 8008236:	ea4f 4022 	mov.w	r0, r2, asr #16
 800823a:	d2e6      	bcs.n	800820a <quorem+0xa4>
 800823c:	f855 2024 	ldr.w	r2, [r5, r4, lsl #2]
 8008240:	eb05 0384 	add.w	r3, r5, r4, lsl #2
 8008244:	b922      	cbnz	r2, 8008250 <quorem+0xea>
 8008246:	3b04      	subs	r3, #4
 8008248:	429d      	cmp	r5, r3
 800824a:	461a      	mov	r2, r3
 800824c:	d30b      	bcc.n	8008266 <quorem+0x100>
 800824e:	613c      	str	r4, [r7, #16]
 8008250:	3601      	adds	r6, #1
 8008252:	4630      	mov	r0, r6
 8008254:	b003      	add	sp, #12
 8008256:	e8bd 8ff0 	ldmia.w	sp!, {r4, r5, r6, r7, r8, r9, sl, fp, pc}
 800825a:	6812      	ldr	r2, [r2, #0]
 800825c:	3b04      	subs	r3, #4
 800825e:	2a00      	cmp	r2, #0
 8008260:	d1cb      	bne.n	80081fa <quorem+0x94>
 8008262:	3c01      	subs	r4, #1
 8008264:	e7c6      	b.n	80081f4 <quorem+0x8e>
 8008266:	6812      	ldr	r2, [r2, #0]
 8008268:	3b04      	subs	r3, #4
 800826a:	2a00      	cmp	r2, #0
 800826c:	d1ef      	bne.n	800824e <quorem+0xe8>
 800826e:	3c01      	subs	r4, #1
 8008270:	e7ea      	b.n	8008248 <quorem+0xe2>
 8008272:	2000      	movs	r0, #0
 8008274:	e7ee      	b.n	8008254 <quorem+0xee>
	...

08008278 <_dtoa_r>:
 8008278:	e92d 4ff0 	stmdb	sp!, {r4, r5, r6, r7, r8, r9, sl, fp, lr}
 800827c:	b099      	sub	sp, #100	@ 0x64
 800827e:	ed8d 0b0e 	vstr	d0, [sp, #56]	@ 0x38
 8008282:	920c      	str	r2, [sp, #48]	@ 0x30
 8008284:	69c2      	ldr	r2, [r0, #28]
 8008286:	9c22      	ldr	r4, [sp, #136]	@ 0x88
 8008288:	910a      	str	r1, [sp, #40]	@ 0x28
 800828a:	ec57 6b10 	vmov	r6, r7, d0
 800828e:	4681      	mov	r9, r0
 8008290:	9313      	str	r3, [sp, #76]	@ 0x4c
 8008292:	b982      	cbnz	r2, 80082b6 <_dtoa_r+0x3e>
 8008294:	2010      	movs	r0, #16
 8008296:	f000 fe15 	bl	8008ec4 <malloc>
 800829a:	4602      	mov	r2, r0
 800829c:	f8c9 001c 	str.w	r0, [r9, #28]
 80082a0:	b920      	cbnz	r0, 80082ac <_dtoa_r+0x34>
 80082a2:	4bab      	ldr	r3, [pc, #684]	@ (8008550 <_dtoa_r+0x2d8>)
 80082a4:	21ef      	movs	r1, #239	@ 0xef
 80082a6:	48ab      	ldr	r0, [pc, #684]	@ (8008554 <_dtoa_r+0x2dc>)
 80082a8:	f001 fe46 	bl	8009f38 <__assert_func>
 80082ac:	2300      	movs	r3, #0
 80082ae:	e9c0 3301 	strd	r3, r3, [r0, #4]
 80082b2:	6003      	str	r3, [r0, #0]
 80082b4:	60c3      	str	r3, [r0, #12]
 80082b6:	6811      	ldr	r1, [r2, #0]
 80082b8:	b159      	cbz	r1, 80082d2 <_dtoa_r+0x5a>
 80082ba:	6852      	ldr	r2, [r2, #4]
 80082bc:	604a      	str	r2, [r1, #4]
 80082be:	2301      	movs	r3, #1
 80082c0:	4093      	lsls	r3, r2
 80082c2:	608b      	str	r3, [r1, #8]
 80082c4:	4648      	mov	r0, r9
 80082c6:	f000 fef1 	bl	80090ac <_Bfree>
 80082ca:	f8d9 301c 	ldr.w	r3, [r9, #28]
 80082ce:	2200      	movs	r2, #0
 80082d0:	601a      	str	r2, [r3, #0]
 80082d2:	f1b7 0800 	subs.w	r8, r7, #0
 80082d6:	bfb5      	itete	lt
 80082d8:	2301      	movlt	r3, #1
 80082da:	2300      	movge	r3, #0
 80082dc:	6023      	strlt	r3, [r4, #0]
 80082de:	6023      	strge	r3, [r4, #0]
 80082e0:	4b9d      	ldr	r3, [pc, #628]	@ (8008558 <_dtoa_r+0x2e0>)
 80082e2:	bfbc      	itt	lt
 80082e4:	f028 4800 	biclt.w	r8, r8, #2147483648	@ 0x80000000
 80082e8:	f8cd 803c 	strlt.w	r8, [sp, #60]	@ 0x3c
 80082ec:	ea33 0308 	bics.w	r3, r3, r8
 80082f0:	d11a      	bne.n	8008328 <_dtoa_r+0xb0>
 80082f2:	9a13      	ldr	r2, [sp, #76]	@ 0x4c
 80082f4:	f3c8 0813 	ubfx	r8, r8, #0, #20
 80082f8:	f242 730f 	movw	r3, #9999	@ 0x270f
 80082fc:	ea58 0806 	orrs.w	r8, r8, r6
 8008300:	6013      	str	r3, [r2, #0]
 8008302:	f000 8568 	beq.w	8008dd6 <_dtoa_r+0xb5e>
 8008306:	9b23      	ldr	r3, [sp, #140]	@ 0x8c
 8008308:	b953      	cbnz	r3, 8008320 <_dtoa_r+0xa8>
 800830a:	4b94      	ldr	r3, [pc, #592]	@ (800855c <_dtoa_r+0x2e4>)
 800830c:	e021      	b.n	8008352 <_dtoa_r+0xda>
 800830e:	4b94      	ldr	r3, [pc, #592]	@ (8008560 <_dtoa_r+0x2e8>)
 8008310:	9300      	str	r3, [sp, #0]
 8008312:	3308      	adds	r3, #8
 8008314:	9a23      	ldr	r2, [sp, #140]	@ 0x8c
 8008316:	6013      	str	r3, [r2, #0]
 8008318:	9800      	ldr	r0, [sp, #0]
 800831a:	b019      	add	sp, #100	@ 0x64
 800831c:	e8bd 8ff0 	ldmia.w	sp!, {r4, r5, r6, r7, r8, r9, sl, fp, pc}
 8008320:	4b8e      	ldr	r3, [pc, #568]	@ (800855c <_dtoa_r+0x2e4>)
 8008322:	9300      	str	r3, [sp, #0]
 8008324:	3303      	adds	r3, #3
 8008326:	e7f5      	b.n	8008314 <_dtoa_r+0x9c>
 8008328:	ed9d 7b0e 	vldr	d7, [sp, #56]	@ 0x38
 800832c:	2200      	movs	r2, #0
 800832e:	ec51 0b17 	vmov	r0, r1, d7
 8008332:	2300      	movs	r3, #0
 8008334:	ed8d 7b06 	vstr	d7, [sp, #24]
 8008338:	f7f8 fbce 	bl	8000ad8 <__aeabi_dcmpeq>
 800833c:	4682      	mov	sl, r0
 800833e:	b150      	cbz	r0, 8008356 <_dtoa_r+0xde>
 8008340:	9a13      	ldr	r2, [sp, #76]	@ 0x4c
 8008342:	2301      	movs	r3, #1
 8008344:	6013      	str	r3, [r2, #0]
 8008346:	9b23      	ldr	r3, [sp, #140]	@ 0x8c
 8008348:	b113      	cbz	r3, 8008350 <_dtoa_r+0xd8>
 800834a:	9a23      	ldr	r2, [sp, #140]	@ 0x8c
 800834c:	4b85      	ldr	r3, [pc, #532]	@ (8008564 <_dtoa_r+0x2ec>)
 800834e:	6013      	str	r3, [r2, #0]
 8008350:	4b85      	ldr	r3, [pc, #532]	@ (8008568 <_dtoa_r+0x2f0>)
 8008352:	9300      	str	r3, [sp, #0]
 8008354:	e7e0      	b.n	8008318 <_dtoa_r+0xa0>
 8008356:	ed9d 0b06 	vldr	d0, [sp, #24]
 800835a:	aa16      	add	r2, sp, #88	@ 0x58
 800835c:	a917      	add	r1, sp, #92	@ 0x5c
 800835e:	4648      	mov	r0, r9
 8008360:	f001 f996 	bl	8009690 <__d2b>
 8008364:	ea5f 5418 	movs.w	r4, r8, lsr #20
 8008368:	9d16      	ldr	r5, [sp, #88]	@ 0x58
 800836a:	9001      	str	r0, [sp, #4]
 800836c:	d079      	beq.n	8008462 <_dtoa_r+0x1ea>
 800836e:	9b07      	ldr	r3, [sp, #28]
 8008370:	f8cd a050 	str.w	sl, [sp, #80]	@ 0x50
 8008374:	f3c3 0313 	ubfx	r3, r3, #0, #20
 8008378:	e9dd 0106 	ldrd	r0, r1, [sp, #24]
 800837c:	f043 537f 	orr.w	r3, r3, #1069547520	@ 0x3fc00000
 8008380:	f443 1340 	orr.w	r3, r3, #3145728	@ 0x300000
 8008384:	f2a4 34ff 	subw	r4, r4, #1023	@ 0x3ff
 8008388:	4619      	mov	r1, r3
 800838a:	2200      	movs	r2, #0
 800838c:	4b77      	ldr	r3, [pc, #476]	@ (800856c <_dtoa_r+0x2f4>)
 800838e:	f7f7 ff83 	bl	8000298 <__aeabi_dsub>
 8008392:	a369      	add	r3, pc, #420	@ (adr r3, 8008538 <_dtoa_r+0x2c0>)
 8008394:	e9d3 2300 	ldrd	r2, r3, [r3]
 8008398:	f7f8 f936 	bl	8000608 <__aeabi_dmul>
 800839c:	a368      	add	r3, pc, #416	@ (adr r3, 8008540 <_dtoa_r+0x2c8>)
 800839e:	e9d3 2300 	ldrd	r2, r3, [r3]
 80083a2:	f7f7 ff7b 	bl	800029c <__adddf3>
 80083a6:	4606      	mov	r6, r0
 80083a8:	4620      	mov	r0, r4
 80083aa:	460f      	mov	r7, r1
 80083ac:	f7f8 f8c2 	bl	8000534 <__aeabi_i2d>
 80083b0:	a365      	add	r3, pc, #404	@ (adr r3, 8008548 <_dtoa_r+0x2d0>)
 80083b2:	e9d3 2300 	ldrd	r2, r3, [r3]
 80083b6:	f7f8 f927 	bl	8000608 <__aeabi_dmul>
 80083ba:	4602      	mov	r2, r0
 80083bc:	460b      	mov	r3, r1
 80083be:	4630      	mov	r0, r6
 80083c0:	4639      	mov	r1, r7
 80083c2:	f7f7 ff6b 	bl	800029c <__adddf3>
 80083c6:	4606      	mov	r6, r0
 80083c8:	460f      	mov	r7, r1
 80083ca:	f7f8 fbcd 	bl	8000b68 <__aeabi_d2iz>
 80083ce:	2200      	movs	r2, #0
 80083d0:	4680      	mov	r8, r0
 80083d2:	2300      	movs	r3, #0
 80083d4:	4630      	mov	r0, r6
 80083d6:	4639      	mov	r1, r7
 80083d8:	f7f8 fb88 	bl	8000aec <__aeabi_dcmplt>
 80083dc:	b148      	cbz	r0, 80083f2 <_dtoa_r+0x17a>
 80083de:	4640      	mov	r0, r8
 80083e0:	f7f8 f8a8 	bl	8000534 <__aeabi_i2d>
 80083e4:	4632      	mov	r2, r6
 80083e6:	463b      	mov	r3, r7
 80083e8:	f7f8 fb76 	bl	8000ad8 <__aeabi_dcmpeq>
 80083ec:	b908      	cbnz	r0, 80083f2 <_dtoa_r+0x17a>
 80083ee:	f108 38ff 	add.w	r8, r8, #4294967295
 80083f2:	f1b8 0f16 	cmp.w	r8, #22
 80083f6:	d851      	bhi.n	800849c <_dtoa_r+0x224>
 80083f8:	4b5d      	ldr	r3, [pc, #372]	@ (8008570 <_dtoa_r+0x2f8>)
 80083fa:	eb03 03c8 	add.w	r3, r3, r8, lsl #3
 80083fe:	e9d3 2300 	ldrd	r2, r3, [r3]
 8008402:	e9dd 0106 	ldrd	r0, r1, [sp, #24]
 8008406:	f7f8 fb71 	bl	8000aec <__aeabi_dcmplt>
 800840a:	2800      	cmp	r0, #0
 800840c:	d048      	beq.n	80084a0 <_dtoa_r+0x228>
 800840e:	f108 38ff 	add.w	r8, r8, #4294967295
 8008412:	2300      	movs	r3, #0
 8008414:	9312      	str	r3, [sp, #72]	@ 0x48
 8008416:	1b2d      	subs	r5, r5, r4
 8008418:	1e6b      	subs	r3, r5, #1
 800841a:	9308      	str	r3, [sp, #32]
 800841c:	bf43      	ittte	mi
 800841e:	2300      	movmi	r3, #0
 8008420:	f1c5 0701 	rsbmi	r7, r5, #1
 8008424:	9308      	strmi	r3, [sp, #32]
 8008426:	2700      	movpl	r7, #0
 8008428:	f1b8 0f00 	cmp.w	r8, #0
 800842c:	db3a      	blt.n	80084a4 <_dtoa_r+0x22c>
 800842e:	9b08      	ldr	r3, [sp, #32]
 8008430:	f8cd 8034 	str.w	r8, [sp, #52]	@ 0x34
 8008434:	4443      	add	r3, r8
 8008436:	9308      	str	r3, [sp, #32]
 8008438:	2300      	movs	r3, #0
 800843a:	9309      	str	r3, [sp, #36]	@ 0x24
 800843c:	9b0a      	ldr	r3, [sp, #40]	@ 0x28
 800843e:	2b09      	cmp	r3, #9
 8008440:	d862      	bhi.n	8008508 <_dtoa_r+0x290>
 8008442:	2b05      	cmp	r3, #5
 8008444:	bfc4      	itt	gt
 8008446:	3b04      	subgt	r3, #4
 8008448:	930a      	strgt	r3, [sp, #40]	@ 0x28
 800844a:	9b0a      	ldr	r3, [sp, #40]	@ 0x28
 800844c:	f1a3 0302 	sub.w	r3, r3, #2
 8008450:	bfcc      	ite	gt
 8008452:	2400      	movgt	r4, #0
 8008454:	2401      	movle	r4, #1
 8008456:	2b03      	cmp	r3, #3
 8008458:	d862      	bhi.n	8008520 <_dtoa_r+0x2a8>
 800845a:	e8df f003 	tbb	[pc, r3]
 800845e:	5351      	.short	0x5351
 8008460:	2b36      	.short	0x2b36
 8008462:	9c17      	ldr	r4, [sp, #92]	@ 0x5c
 8008464:	442c      	add	r4, r5
 8008466:	f204 4332 	addw	r3, r4, #1074	@ 0x432
 800846a:	2b20      	cmp	r3, #32
 800846c:	bfc1      	itttt	gt
 800846e:	f1c3 0340 	rsbgt	r3, r3, #64	@ 0x40
 8008472:	fa08 f803 	lslgt.w	r8, r8, r3
 8008476:	f204 4312 	addwgt	r3, r4, #1042	@ 0x412
 800847a:	fa26 f303 	lsrgt.w	r3, r6, r3
 800847e:	bfd6      	itet	le
 8008480:	f1c3 0320 	rsble	r3, r3, #32
 8008484:	ea48 0003 	orrgt.w	r0, r8, r3
 8008488:	fa06 f003 	lslle.w	r0, r6, r3
 800848c:	f7f8 f842 	bl	8000514 <__aeabi_ui2d>
 8008490:	2201      	movs	r2, #1
 8008492:	f1a1 73f8 	sub.w	r3, r1, #32505856	@ 0x1f00000
 8008496:	3c01      	subs	r4, #1
 8008498:	9214      	str	r2, [sp, #80]	@ 0x50
 800849a:	e775      	b.n	8008388 <_dtoa_r+0x110>
 800849c:	2301      	movs	r3, #1
 800849e:	e7b9      	b.n	8008414 <_dtoa_r+0x19c>
 80084a0:	9012      	str	r0, [sp, #72]	@ 0x48
 80084a2:	e7b8      	b.n	8008416 <_dtoa_r+0x19e>
 80084a4:	f1c8 0300 	rsb	r3, r8, #0
 80084a8:	9309      	str	r3, [sp, #36]	@ 0x24
 80084aa:	2300      	movs	r3, #0
 80084ac:	eba7 0708 	sub.w	r7, r7, r8
 80084b0:	930d      	str	r3, [sp, #52]	@ 0x34
 80084b2:	e7c3      	b.n	800843c <_dtoa_r+0x1c4>
 80084b4:	2301      	movs	r3, #1
 80084b6:	930b      	str	r3, [sp, #44]	@ 0x2c
 80084b8:	9b0c      	ldr	r3, [sp, #48]	@ 0x30
 80084ba:	4443      	add	r3, r8
 80084bc:	9305      	str	r3, [sp, #20]
 80084be:	3301      	adds	r3, #1
 80084c0:	2b01      	cmp	r3, #1
 80084c2:	9304      	str	r3, [sp, #16]
 80084c4:	bfb8      	it	lt
 80084c6:	2301      	movlt	r3, #1
 80084c8:	e006      	b.n	80084d8 <_dtoa_r+0x260>
 80084ca:	2301      	movs	r3, #1
 80084cc:	930b      	str	r3, [sp, #44]	@ 0x2c
 80084ce:	9b0c      	ldr	r3, [sp, #48]	@ 0x30
 80084d0:	2b00      	cmp	r3, #0
 80084d2:	dd28      	ble.n	8008526 <_dtoa_r+0x2ae>
 80084d4:	e9cd 3304 	strd	r3, r3, [sp, #16]
 80084d8:	f8d9 001c 	ldr.w	r0, [r9, #28]
 80084dc:	2100      	movs	r1, #0
 80084de:	2204      	movs	r2, #4
 80084e0:	f102 0514 	add.w	r5, r2, #20
 80084e4:	429d      	cmp	r5, r3
 80084e6:	d923      	bls.n	8008530 <_dtoa_r+0x2b8>
 80084e8:	6041      	str	r1, [r0, #4]
 80084ea:	4648      	mov	r0, r9
 80084ec:	f000 fda0 	bl	8009030 <_Balloc>
 80084f0:	9000      	str	r0, [sp, #0]
 80084f2:	2800      	cmp	r0, #0
 80084f4:	d140      	bne.n	8008578 <_dtoa_r+0x300>
 80084f6:	4b1f      	ldr	r3, [pc, #124]	@ (8008574 <_dtoa_r+0x2fc>)
 80084f8:	4602      	mov	r2, r0
 80084fa:	f240 11af 	movw	r1, #431	@ 0x1af
 80084fe:	e6d2      	b.n	80082a6 <_dtoa_r+0x2e>
 8008500:	2300      	movs	r3, #0
 8008502:	e7e3      	b.n	80084cc <_dtoa_r+0x254>
 8008504:	2300      	movs	r3, #0
 8008506:	e7d6      	b.n	80084b6 <_dtoa_r+0x23e>
 8008508:	2401      	movs	r4, #1
 800850a:	2300      	movs	r3, #0
 800850c:	e9cd 340a 	strd	r3, r4, [sp, #40]	@ 0x28
 8008510:	f04f 33ff 	mov.w	r3, #4294967295
 8008514:	e9cd 3304 	strd	r3, r3, [sp, #16]
 8008518:	2200      	movs	r2, #0
 800851a:	2312      	movs	r3, #18
 800851c:	920c      	str	r2, [sp, #48]	@ 0x30
 800851e:	e7db      	b.n	80084d8 <_dtoa_r+0x260>
 8008520:	2301      	movs	r3, #1
 8008522:	930b      	str	r3, [sp, #44]	@ 0x2c
 8008524:	e7f4      	b.n	8008510 <_dtoa_r+0x298>
 8008526:	2301      	movs	r3, #1
 8008528:	e9cd 3304 	strd	r3, r3, [sp, #16]
 800852c:	461a      	mov	r2, r3
 800852e:	e7f5      	b.n	800851c <_dtoa_r+0x2a4>
 8008530:	3101      	adds	r1, #1
 8008532:	0052      	lsls	r2, r2, #1
 8008534:	e7d4      	b.n	80084e0 <_dtoa_r+0x268>
 8008536:	bf00      	nop
 8008538:	636f4361 	.word	0x636f4361
 800853c:	3fd287a7 	.word	0x3fd287a7
 8008540:	8b60c8b3 	.word	0x8b60c8b3
 8008544:	3fc68a28 	.word	0x3fc68a28
 8008548:	509f79fb 	.word	0x509f79fb
 800854c:	3fd34413 	.word	0x3fd34413
 8008550:	0801e3e5 	.word	0x0801e3e5
 8008554:	0801e3fc 	.word	0x0801e3fc
 8008558:	7ff00000 	.word	0x7ff00000
 800855c:	0801e3e1 	.word	0x0801e3e1
 8008560:	0801e3d8 	.word	0x0801e3d8
 8008564:	0801e3b5 	.word	0x0801e3b5
 8008568:	0801e3b4 	.word	0x0801e3b4
 800856c:	3ff80000 	.word	0x3ff80000
 8008570:	0801e550 	.word	0x0801e550
 8008574:	0801e454 	.word	0x0801e454
 8008578:	f8d9 301c 	ldr.w	r3, [r9, #28]
 800857c:	9a00      	ldr	r2, [sp, #0]
 800857e:	601a      	str	r2, [r3, #0]
 8008580:	9b04      	ldr	r3, [sp, #16]
 8008582:	2b0e      	cmp	r3, #14
 8008584:	f200 80a1 	bhi.w	80086ca <_dtoa_r+0x452>
 8008588:	2c00      	cmp	r4, #0
 800858a:	f000 809e 	beq.w	80086ca <_dtoa_r+0x452>
 800858e:	f1b8 0f00 	cmp.w	r8, #0
 8008592:	dd36      	ble.n	8008602 <_dtoa_r+0x38a>
 8008594:	4b9e      	ldr	r3, [pc, #632]	@ (8008810 <_dtoa_r+0x598>)
 8008596:	f008 020f 	and.w	r2, r8, #15
 800859a:	eb03 03c2 	add.w	r3, r3, r2, lsl #3
 800859e:	f418 7f80 	tst.w	r8, #256	@ 0x100
 80085a2:	e9d3 ab00 	ldrd	sl, fp, [r3]
 80085a6:	ea4f 1528 	mov.w	r5, r8, asr #4
 80085aa:	d016      	beq.n	80085da <_dtoa_r+0x362>
 80085ac:	4b99      	ldr	r3, [pc, #612]	@ (8008814 <_dtoa_r+0x59c>)
 80085ae:	e9dd 0106 	ldrd	r0, r1, [sp, #24]
 80085b2:	e9d3 2308 	ldrd	r2, r3, [r3, #32]
 80085b6:	f7f8 f951 	bl	800085c <__aeabi_ddiv>
 80085ba:	e9cd 0102 	strd	r0, r1, [sp, #8]
 80085be:	f005 050f 	and.w	r5, r5, #15
 80085c2:	2403      	movs	r4, #3
 80085c4:	4e93      	ldr	r6, [pc, #588]	@ (8008814 <_dtoa_r+0x59c>)
 80085c6:	b975      	cbnz	r5, 80085e6 <_dtoa_r+0x36e>
 80085c8:	e9dd 0102 	ldrd	r0, r1, [sp, #8]
 80085cc:	4652      	mov	r2, sl
 80085ce:	465b      	mov	r3, fp
 80085d0:	f7f8 f944 	bl	800085c <__aeabi_ddiv>
 80085d4:	4682      	mov	sl, r0
 80085d6:	468b      	mov	fp, r1
 80085d8:	e02d      	b.n	8008636 <_dtoa_r+0x3be>
 80085da:	ed9d 7b06 	vldr	d7, [sp, #24]
 80085de:	2402      	movs	r4, #2
 80085e0:	ed8d 7b02 	vstr	d7, [sp, #8]
 80085e4:	e7ee      	b.n	80085c4 <_dtoa_r+0x34c>
 80085e6:	07e9      	lsls	r1, r5, #31
 80085e8:	d508      	bpl.n	80085fc <_dtoa_r+0x384>
 80085ea:	4650      	mov	r0, sl
 80085ec:	4659      	mov	r1, fp
 80085ee:	e9d6 2300 	ldrd	r2, r3, [r6]
 80085f2:	f7f8 f809 	bl	8000608 <__aeabi_dmul>
 80085f6:	3401      	adds	r4, #1
 80085f8:	4682      	mov	sl, r0
 80085fa:	468b      	mov	fp, r1
 80085fc:	106d      	asrs	r5, r5, #1
 80085fe:	3608      	adds	r6, #8
 8008600:	e7e1      	b.n	80085c6 <_dtoa_r+0x34e>
 8008602:	f000 80ad 	beq.w	8008760 <_dtoa_r+0x4e8>
 8008606:	f1c8 0500 	rsb	r5, r8, #0
 800860a:	4b81      	ldr	r3, [pc, #516]	@ (8008810 <_dtoa_r+0x598>)
 800860c:	4e81      	ldr	r6, [pc, #516]	@ (8008814 <_dtoa_r+0x59c>)
 800860e:	f005 020f 	and.w	r2, r5, #15
 8008612:	eb03 03c2 	add.w	r3, r3, r2, lsl #3
 8008616:	e9d3 2300 	ldrd	r2, r3, [r3]
 800861a:	e9dd 0106 	ldrd	r0, r1, [sp, #24]
 800861e:	f7f7 fff3 	bl	8000608 <__aeabi_dmul>
 8008622:	112d      	asrs	r5, r5, #4
 8008624:	4682      	mov	sl, r0
 8008626:	468b      	mov	fp, r1
 8008628:	2300      	movs	r3, #0
 800862a:	2402      	movs	r4, #2
 800862c:	2d00      	cmp	r5, #0
 800862e:	f040 808c 	bne.w	800874a <_dtoa_r+0x4d2>
 8008632:	2b00      	cmp	r3, #0
 8008634:	d1ce      	bne.n	80085d4 <_dtoa_r+0x35c>
 8008636:	9b12      	ldr	r3, [sp, #72]	@ 0x48
 8008638:	2b00      	cmp	r3, #0
 800863a:	f000 8095 	beq.w	8008768 <_dtoa_r+0x4f0>
 800863e:	4b76      	ldr	r3, [pc, #472]	@ (8008818 <_dtoa_r+0x5a0>)
 8008640:	2200      	movs	r2, #0
 8008642:	4650      	mov	r0, sl
 8008644:	4659      	mov	r1, fp
 8008646:	f7f8 fa51 	bl	8000aec <__aeabi_dcmplt>
 800864a:	2800      	cmp	r0, #0
 800864c:	f000 808c 	beq.w	8008768 <_dtoa_r+0x4f0>
 8008650:	9b04      	ldr	r3, [sp, #16]
 8008652:	2b00      	cmp	r3, #0
 8008654:	f000 8088 	beq.w	8008768 <_dtoa_r+0x4f0>
 8008658:	9b05      	ldr	r3, [sp, #20]
 800865a:	2b00      	cmp	r3, #0
 800865c:	dd35      	ble.n	80086ca <_dtoa_r+0x452>
 800865e:	f108 33ff 	add.w	r3, r8, #4294967295
 8008662:	9302      	str	r3, [sp, #8]
 8008664:	4650      	mov	r0, sl
 8008666:	4659      	mov	r1, fp
 8008668:	4b6c      	ldr	r3, [pc, #432]	@ (800881c <_dtoa_r+0x5a4>)
 800866a:	2200      	movs	r2, #0
 800866c:	f7f7 ffcc 	bl	8000608 <__aeabi_dmul>
 8008670:	9e05      	ldr	r6, [sp, #20]
 8008672:	4682      	mov	sl, r0
 8008674:	468b      	mov	fp, r1
 8008676:	3401      	adds	r4, #1
 8008678:	4620      	mov	r0, r4
 800867a:	f7f7 ff5b 	bl	8000534 <__aeabi_i2d>
 800867e:	4652      	mov	r2, sl
 8008680:	465b      	mov	r3, fp
 8008682:	f7f7 ffc1 	bl	8000608 <__aeabi_dmul>
 8008686:	4b66      	ldr	r3, [pc, #408]	@ (8008820 <_dtoa_r+0x5a8>)
 8008688:	2200      	movs	r2, #0
 800868a:	f7f7 fe07 	bl	800029c <__adddf3>
 800868e:	4604      	mov	r4, r0
 8008690:	f1a1 7550 	sub.w	r5, r1, #54525952	@ 0x3400000
 8008694:	e9cd 4510 	strd	r4, r5, [sp, #64]	@ 0x40
 8008698:	2e00      	cmp	r6, #0
 800869a:	d169      	bne.n	8008770 <_dtoa_r+0x4f8>
 800869c:	4b61      	ldr	r3, [pc, #388]	@ (8008824 <_dtoa_r+0x5ac>)
 800869e:	2200      	movs	r2, #0
 80086a0:	4650      	mov	r0, sl
 80086a2:	4659      	mov	r1, fp
 80086a4:	f7f7 fdf8 	bl	8000298 <__aeabi_dsub>
 80086a8:	4622      	mov	r2, r4
 80086aa:	462b      	mov	r3, r5
 80086ac:	4682      	mov	sl, r0
 80086ae:	468b      	mov	fp, r1
 80086b0:	f7f8 fa3a 	bl	8000b28 <__aeabi_dcmpgt>
 80086b4:	2800      	cmp	r0, #0
 80086b6:	f040 8294 	bne.w	8008be2 <_dtoa_r+0x96a>
 80086ba:	4622      	mov	r2, r4
 80086bc:	f105 4300 	add.w	r3, r5, #2147483648	@ 0x80000000
 80086c0:	4650      	mov	r0, sl
 80086c2:	4659      	mov	r1, fp
 80086c4:	f7f8 fa12 	bl	8000aec <__aeabi_dcmplt>
 80086c8:	bb20      	cbnz	r0, 8008714 <_dtoa_r+0x49c>
 80086ca:	9b17      	ldr	r3, [sp, #92]	@ 0x5c
 80086cc:	2b00      	cmp	r3, #0
 80086ce:	f2c0 8160 	blt.w	8008992 <_dtoa_r+0x71a>
 80086d2:	f1b8 0f0e 	cmp.w	r8, #14
 80086d6:	f300 815c 	bgt.w	8008992 <_dtoa_r+0x71a>
 80086da:	4b4d      	ldr	r3, [pc, #308]	@ (8008810 <_dtoa_r+0x598>)
 80086dc:	eb03 03c8 	add.w	r3, r3, r8, lsl #3
 80086e0:	e9d3 ab00 	ldrd	sl, fp, [r3]
 80086e4:	9b0c      	ldr	r3, [sp, #48]	@ 0x30
 80086e6:	2b00      	cmp	r3, #0
 80086e8:	f280 80ee 	bge.w	80088c8 <_dtoa_r+0x650>
 80086ec:	9b04      	ldr	r3, [sp, #16]
 80086ee:	2b00      	cmp	r3, #0
 80086f0:	f300 80ea 	bgt.w	80088c8 <_dtoa_r+0x650>
 80086f4:	d10e      	bne.n	8008714 <_dtoa_r+0x49c>
 80086f6:	4b4b      	ldr	r3, [pc, #300]	@ (8008824 <_dtoa_r+0x5ac>)
 80086f8:	2200      	movs	r2, #0
 80086fa:	4650      	mov	r0, sl
 80086fc:	4659      	mov	r1, fp
 80086fe:	f7f7 ff83 	bl	8000608 <__aeabi_dmul>
 8008702:	4602      	mov	r2, r0
 8008704:	460b      	mov	r3, r1
 8008706:	e9dd 0106 	ldrd	r0, r1, [sp, #24]
 800870a:	f7f8 f9f9 	bl	8000b00 <__aeabi_dcmple>
 800870e:	2800      	cmp	r0, #0
 8008710:	f000 826a 	beq.w	8008be8 <_dtoa_r+0x970>
 8008714:	2500      	movs	r5, #0
 8008716:	462c      	mov	r4, r5
 8008718:	9b0c      	ldr	r3, [sp, #48]	@ 0x30
 800871a:	9e00      	ldr	r6, [sp, #0]
 800871c:	43db      	mvns	r3, r3
 800871e:	9302      	str	r3, [sp, #8]
 8008720:	4627      	mov	r7, r4
 8008722:	2400      	movs	r4, #0
 8008724:	4629      	mov	r1, r5
 8008726:	4648      	mov	r0, r9
 8008728:	f000 fcc0 	bl	80090ac <_Bfree>
 800872c:	2f00      	cmp	r7, #0
 800872e:	f000 80c1 	beq.w	80088b4 <_dtoa_r+0x63c>
 8008732:	b12c      	cbz	r4, 8008740 <_dtoa_r+0x4c8>
 8008734:	42bc      	cmp	r4, r7
 8008736:	d003      	beq.n	8008740 <_dtoa_r+0x4c8>
 8008738:	4621      	mov	r1, r4
 800873a:	4648      	mov	r0, r9
 800873c:	f000 fcb6 	bl	80090ac <_Bfree>
 8008740:	4639      	mov	r1, r7
 8008742:	4648      	mov	r0, r9
 8008744:	f000 fcb2 	bl	80090ac <_Bfree>
 8008748:	e0b4      	b.n	80088b4 <_dtoa_r+0x63c>
 800874a:	07ea      	lsls	r2, r5, #31
 800874c:	d505      	bpl.n	800875a <_dtoa_r+0x4e2>
 800874e:	e9d6 2300 	ldrd	r2, r3, [r6]
 8008752:	f7f7 ff59 	bl	8000608 <__aeabi_dmul>
 8008756:	3401      	adds	r4, #1
 8008758:	2301      	movs	r3, #1
 800875a:	106d      	asrs	r5, r5, #1
 800875c:	3608      	adds	r6, #8
 800875e:	e765      	b.n	800862c <_dtoa_r+0x3b4>
 8008760:	e9dd ab06 	ldrd	sl, fp, [sp, #24]
 8008764:	2402      	movs	r4, #2
 8008766:	e766      	b.n	8008636 <_dtoa_r+0x3be>
 8008768:	9e04      	ldr	r6, [sp, #16]
 800876a:	f8cd 8008 	str.w	r8, [sp, #8]
 800876e:	e783      	b.n	8008678 <_dtoa_r+0x400>
 8008770:	4b27      	ldr	r3, [pc, #156]	@ (8008810 <_dtoa_r+0x598>)
 8008772:	eb03 03c6 	add.w	r3, r3, r6, lsl #3
 8008776:	e953 0102 	ldrd	r0, r1, [r3, #-8]
 800877a:	9b0b      	ldr	r3, [sp, #44]	@ 0x2c
 800877c:	2b00      	cmp	r3, #0
 800877e:	d055      	beq.n	800882c <_dtoa_r+0x5b4>
 8008780:	4602      	mov	r2, r0
 8008782:	460b      	mov	r3, r1
 8008784:	2000      	movs	r0, #0
 8008786:	4928      	ldr	r1, [pc, #160]	@ (8008828 <_dtoa_r+0x5b0>)
 8008788:	f7f8 f868 	bl	800085c <__aeabi_ddiv>
 800878c:	e9dd 2310 	ldrd	r2, r3, [sp, #64]	@ 0x40
 8008790:	f7f7 fd82 	bl	8000298 <__aeabi_dsub>
 8008794:	9b00      	ldr	r3, [sp, #0]
 8008796:	e9cd 0110 	strd	r0, r1, [sp, #64]	@ 0x40
 800879a:	199d      	adds	r5, r3, r6
 800879c:	461e      	mov	r6, r3
 800879e:	4659      	mov	r1, fp
 80087a0:	4650      	mov	r0, sl
 80087a2:	f7f8 f9e1 	bl	8000b68 <__aeabi_d2iz>
 80087a6:	4604      	mov	r4, r0
 80087a8:	f7f7 fec4 	bl	8000534 <__aeabi_i2d>
 80087ac:	4602      	mov	r2, r0
 80087ae:	460b      	mov	r3, r1
 80087b0:	4650      	mov	r0, sl
 80087b2:	4659      	mov	r1, fp
 80087b4:	f7f7 fd70 	bl	8000298 <__aeabi_dsub>
 80087b8:	3430      	adds	r4, #48	@ 0x30
 80087ba:	e9dd 2310 	ldrd	r2, r3, [sp, #64]	@ 0x40
 80087be:	f806 4b01 	strb.w	r4, [r6], #1
 80087c2:	4682      	mov	sl, r0
 80087c4:	468b      	mov	fp, r1
 80087c6:	f7f8 f991 	bl	8000aec <__aeabi_dcmplt>
 80087ca:	2800      	cmp	r0, #0
 80087cc:	d172      	bne.n	80088b4 <_dtoa_r+0x63c>
 80087ce:	4652      	mov	r2, sl
 80087d0:	465b      	mov	r3, fp
 80087d2:	4911      	ldr	r1, [pc, #68]	@ (8008818 <_dtoa_r+0x5a0>)
 80087d4:	2000      	movs	r0, #0
 80087d6:	f7f7 fd5f 	bl	8000298 <__aeabi_dsub>
 80087da:	e9dd 2310 	ldrd	r2, r3, [sp, #64]	@ 0x40
 80087de:	f7f8 f985 	bl	8000aec <__aeabi_dcmplt>
 80087e2:	2800      	cmp	r0, #0
 80087e4:	f040 80b6 	bne.w	8008954 <_dtoa_r+0x6dc>
 80087e8:	42ae      	cmp	r6, r5
 80087ea:	f43f af6e 	beq.w	80086ca <_dtoa_r+0x452>
 80087ee:	e9dd 0110 	ldrd	r0, r1, [sp, #64]	@ 0x40
 80087f2:	4b0a      	ldr	r3, [pc, #40]	@ (800881c <_dtoa_r+0x5a4>)
 80087f4:	2200      	movs	r2, #0
 80087f6:	f7f7 ff07 	bl	8000608 <__aeabi_dmul>
 80087fa:	4b08      	ldr	r3, [pc, #32]	@ (800881c <_dtoa_r+0x5a4>)
 80087fc:	e9cd 0110 	strd	r0, r1, [sp, #64]	@ 0x40
 8008800:	2200      	movs	r2, #0
 8008802:	4650      	mov	r0, sl
 8008804:	4659      	mov	r1, fp
 8008806:	f7f7 feff 	bl	8000608 <__aeabi_dmul>
 800880a:	4682      	mov	sl, r0
 800880c:	468b      	mov	fp, r1
 800880e:	e7c6      	b.n	800879e <_dtoa_r+0x526>
 8008810:	0801e550 	.word	0x0801e550
 8008814:	0801e528 	.word	0x0801e528
 8008818:	3ff00000 	.word	0x3ff00000
 800881c:	40240000 	.word	0x40240000
 8008820:	401c0000 	.word	0x401c0000
 8008824:	40140000 	.word	0x40140000
 8008828:	3fe00000 	.word	0x3fe00000
 800882c:	e9dd 2310 	ldrd	r2, r3, [sp, #64]	@ 0x40
 8008830:	f7f7 feea 	bl	8000608 <__aeabi_dmul>
 8008834:	9b00      	ldr	r3, [sp, #0]
 8008836:	9d00      	ldr	r5, [sp, #0]
 8008838:	e9cd 0110 	strd	r0, r1, [sp, #64]	@ 0x40
 800883c:	4433      	add	r3, r6
 800883e:	9315      	str	r3, [sp, #84]	@ 0x54
 8008840:	4659      	mov	r1, fp
 8008842:	4650      	mov	r0, sl
 8008844:	f7f8 f990 	bl	8000b68 <__aeabi_d2iz>
 8008848:	4604      	mov	r4, r0
 800884a:	f7f7 fe73 	bl	8000534 <__aeabi_i2d>
 800884e:	3430      	adds	r4, #48	@ 0x30
 8008850:	460b      	mov	r3, r1
 8008852:	4602      	mov	r2, r0
 8008854:	4659      	mov	r1, fp
 8008856:	4650      	mov	r0, sl
 8008858:	f7f7 fd1e 	bl	8000298 <__aeabi_dsub>
 800885c:	f805 4b01 	strb.w	r4, [r5], #1
 8008860:	9b15      	ldr	r3, [sp, #84]	@ 0x54
 8008862:	429d      	cmp	r5, r3
 8008864:	4682      	mov	sl, r0
 8008866:	468b      	mov	fp, r1
 8008868:	d127      	bne.n	80088ba <_dtoa_r+0x642>
 800886a:	9b00      	ldr	r3, [sp, #0]
 800886c:	2200      	movs	r2, #0
 800886e:	e9dd 0110 	ldrd	r0, r1, [sp, #64]	@ 0x40
 8008872:	441e      	add	r6, r3
 8008874:	4bb3      	ldr	r3, [pc, #716]	@ (8008b44 <_dtoa_r+0x8cc>)
 8008876:	f7f7 fd11 	bl	800029c <__adddf3>
 800887a:	4602      	mov	r2, r0
 800887c:	460b      	mov	r3, r1
 800887e:	4650      	mov	r0, sl
 8008880:	4659      	mov	r1, fp
 8008882:	f7f8 f951 	bl	8000b28 <__aeabi_dcmpgt>
 8008886:	2800      	cmp	r0, #0
 8008888:	d164      	bne.n	8008954 <_dtoa_r+0x6dc>
 800888a:	e9dd 2310 	ldrd	r2, r3, [sp, #64]	@ 0x40
 800888e:	49ad      	ldr	r1, [pc, #692]	@ (8008b44 <_dtoa_r+0x8cc>)
 8008890:	2000      	movs	r0, #0
 8008892:	f7f7 fd01 	bl	8000298 <__aeabi_dsub>
 8008896:	4602      	mov	r2, r0
 8008898:	460b      	mov	r3, r1
 800889a:	4650      	mov	r0, sl
 800889c:	4659      	mov	r1, fp
 800889e:	f7f8 f925 	bl	8000aec <__aeabi_dcmplt>
 80088a2:	2800      	cmp	r0, #0
 80088a4:	f43f af11 	beq.w	80086ca <_dtoa_r+0x452>
 80088a8:	4633      	mov	r3, r6
 80088aa:	f816 2d01 	ldrb.w	r2, [r6, #-1]!
 80088ae:	2a30      	cmp	r2, #48	@ 0x30
 80088b0:	d0fa      	beq.n	80088a8 <_dtoa_r+0x630>
 80088b2:	461e      	mov	r6, r3
 80088b4:	f8dd 8008 	ldr.w	r8, [sp, #8]
 80088b8:	e03a      	b.n	8008930 <_dtoa_r+0x6b8>
 80088ba:	4ba3      	ldr	r3, [pc, #652]	@ (8008b48 <_dtoa_r+0x8d0>)
 80088bc:	2200      	movs	r2, #0
 80088be:	f7f7 fea3 	bl	8000608 <__aeabi_dmul>
 80088c2:	4682      	mov	sl, r0
 80088c4:	468b      	mov	fp, r1
 80088c6:	e7bb      	b.n	8008840 <_dtoa_r+0x5c8>
 80088c8:	9e00      	ldr	r6, [sp, #0]
 80088ca:	4652      	mov	r2, sl
 80088cc:	465b      	mov	r3, fp
 80088ce:	e9dd 0106 	ldrd	r0, r1, [sp, #24]
 80088d2:	f7f7 ffc3 	bl	800085c <__aeabi_ddiv>
 80088d6:	f7f8 f947 	bl	8000b68 <__aeabi_d2iz>
 80088da:	4607      	mov	r7, r0
 80088dc:	f7f7 fe2a 	bl	8000534 <__aeabi_i2d>
 80088e0:	4652      	mov	r2, sl
 80088e2:	465b      	mov	r3, fp
 80088e4:	f7f7 fe90 	bl	8000608 <__aeabi_dmul>
 80088e8:	4602      	mov	r2, r0
 80088ea:	460b      	mov	r3, r1
 80088ec:	e9dd 0106 	ldrd	r0, r1, [sp, #24]
 80088f0:	f7f7 fcd2 	bl	8000298 <__aeabi_dsub>
 80088f4:	f107 0c30 	add.w	ip, r7, #48	@ 0x30
 80088f8:	9c00      	ldr	r4, [sp, #0]
 80088fa:	f806 cb01 	strb.w	ip, [r6], #1
 80088fe:	eba6 0c04 	sub.w	ip, r6, r4
 8008902:	9c04      	ldr	r4, [sp, #16]
 8008904:	4564      	cmp	r4, ip
 8008906:	4602      	mov	r2, r0
 8008908:	460b      	mov	r3, r1
 800890a:	d133      	bne.n	8008974 <_dtoa_r+0x6fc>
 800890c:	f7f7 fcc6 	bl	800029c <__adddf3>
 8008910:	4652      	mov	r2, sl
 8008912:	465b      	mov	r3, fp
 8008914:	4604      	mov	r4, r0
 8008916:	460d      	mov	r5, r1
 8008918:	f7f8 f906 	bl	8000b28 <__aeabi_dcmpgt>
 800891c:	b9c0      	cbnz	r0, 8008950 <_dtoa_r+0x6d8>
 800891e:	4652      	mov	r2, sl
 8008920:	465b      	mov	r3, fp
 8008922:	4620      	mov	r0, r4
 8008924:	4629      	mov	r1, r5
 8008926:	f7f8 f8d7 	bl	8000ad8 <__aeabi_dcmpeq>
 800892a:	b108      	cbz	r0, 8008930 <_dtoa_r+0x6b8>
 800892c:	07fb      	lsls	r3, r7, #31
 800892e:	d40f      	bmi.n	8008950 <_dtoa_r+0x6d8>
 8008930:	9901      	ldr	r1, [sp, #4]
 8008932:	4648      	mov	r0, r9
 8008934:	f000 fbba 	bl	80090ac <_Bfree>
 8008938:	2300      	movs	r3, #0
 800893a:	9a13      	ldr	r2, [sp, #76]	@ 0x4c
 800893c:	7033      	strb	r3, [r6, #0]
 800893e:	f108 0301 	add.w	r3, r8, #1
 8008942:	6013      	str	r3, [r2, #0]
 8008944:	9b23      	ldr	r3, [sp, #140]	@ 0x8c
 8008946:	2b00      	cmp	r3, #0
 8008948:	f43f ace6 	beq.w	8008318 <_dtoa_r+0xa0>
 800894c:	601e      	str	r6, [r3, #0]
 800894e:	e4e3      	b.n	8008318 <_dtoa_r+0xa0>
 8008950:	f8cd 8008 	str.w	r8, [sp, #8]
 8008954:	4633      	mov	r3, r6
 8008956:	461e      	mov	r6, r3
 8008958:	f813 2d01 	ldrb.w	r2, [r3, #-1]!
 800895c:	2a39      	cmp	r2, #57	@ 0x39
 800895e:	d106      	bne.n	800896e <_dtoa_r+0x6f6>
 8008960:	9a00      	ldr	r2, [sp, #0]
 8008962:	429a      	cmp	r2, r3
 8008964:	d1f7      	bne.n	8008956 <_dtoa_r+0x6de>
 8008966:	9a02      	ldr	r2, [sp, #8]
 8008968:	3201      	adds	r2, #1
 800896a:	9202      	str	r2, [sp, #8]
 800896c:	2230      	movs	r2, #48	@ 0x30
 800896e:	3201      	adds	r2, #1
 8008970:	701a      	strb	r2, [r3, #0]
 8008972:	e79f      	b.n	80088b4 <_dtoa_r+0x63c>
 8008974:	4b74      	ldr	r3, [pc, #464]	@ (8008b48 <_dtoa_r+0x8d0>)
 8008976:	2200      	movs	r2, #0
 8008978:	f7f7 fe46 	bl	8000608 <__aeabi_dmul>
 800897c:	4602      	mov	r2, r0
 800897e:	460b      	mov	r3, r1
 8008980:	e9cd 2306 	strd	r2, r3, [sp, #24]
 8008984:	2200      	movs	r2, #0
 8008986:	2300      	movs	r3, #0
 8008988:	f7f8 f8a6 	bl	8000ad8 <__aeabi_dcmpeq>
 800898c:	2800      	cmp	r0, #0
 800898e:	d09c      	beq.n	80088ca <_dtoa_r+0x652>
 8008990:	e7ce      	b.n	8008930 <_dtoa_r+0x6b8>
 8008992:	9a0b      	ldr	r2, [sp, #44]	@ 0x2c
 8008994:	2a00      	cmp	r2, #0
 8008996:	f000 80e3 	beq.w	8008b60 <_dtoa_r+0x8e8>
 800899a:	9a0a      	ldr	r2, [sp, #40]	@ 0x28
 800899c:	2a01      	cmp	r2, #1
 800899e:	f300 80c2 	bgt.w	8008b26 <_dtoa_r+0x8ae>
 80089a2:	9a14      	ldr	r2, [sp, #80]	@ 0x50
 80089a4:	2a00      	cmp	r2, #0
 80089a6:	f000 80ba 	beq.w	8008b1e <_dtoa_r+0x8a6>
 80089aa:	f203 4333 	addw	r3, r3, #1075	@ 0x433
 80089ae:	9d09      	ldr	r5, [sp, #36]	@ 0x24
 80089b0:	463e      	mov	r6, r7
 80089b2:	9a08      	ldr	r2, [sp, #32]
 80089b4:	2101      	movs	r1, #1
 80089b6:	441a      	add	r2, r3
 80089b8:	4648      	mov	r0, r9
 80089ba:	441f      	add	r7, r3
 80089bc:	9208      	str	r2, [sp, #32]
 80089be:	f000 fc29 	bl	8009214 <__i2b>
 80089c2:	4604      	mov	r4, r0
 80089c4:	b156      	cbz	r6, 80089dc <_dtoa_r+0x764>
 80089c6:	9b08      	ldr	r3, [sp, #32]
 80089c8:	2b00      	cmp	r3, #0
 80089ca:	dd07      	ble.n	80089dc <_dtoa_r+0x764>
 80089cc:	42b3      	cmp	r3, r6
 80089ce:	9a08      	ldr	r2, [sp, #32]
 80089d0:	bfa8      	it	ge
 80089d2:	4633      	movge	r3, r6
 80089d4:	1aff      	subs	r7, r7, r3
 80089d6:	1af6      	subs	r6, r6, r3
 80089d8:	1ad3      	subs	r3, r2, r3
 80089da:	9308      	str	r3, [sp, #32]
 80089dc:	9b09      	ldr	r3, [sp, #36]	@ 0x24
 80089de:	b30b      	cbz	r3, 8008a24 <_dtoa_r+0x7ac>
 80089e0:	9b0b      	ldr	r3, [sp, #44]	@ 0x2c
 80089e2:	2b00      	cmp	r3, #0
 80089e4:	f000 80c3 	beq.w	8008b6e <_dtoa_r+0x8f6>
 80089e8:	2d00      	cmp	r5, #0
 80089ea:	f000 80bd 	beq.w	8008b68 <_dtoa_r+0x8f0>
 80089ee:	4621      	mov	r1, r4
 80089f0:	462a      	mov	r2, r5
 80089f2:	4648      	mov	r0, r9
 80089f4:	f000 fcce 	bl	8009394 <__pow5mult>
 80089f8:	9a01      	ldr	r2, [sp, #4]
 80089fa:	4601      	mov	r1, r0
 80089fc:	4604      	mov	r4, r0
 80089fe:	4648      	mov	r0, r9
 8008a00:	f000 fc1e 	bl	8009240 <__multiply>
 8008a04:	9901      	ldr	r1, [sp, #4]
 8008a06:	4682      	mov	sl, r0
 8008a08:	4648      	mov	r0, r9
 8008a0a:	f000 fb4f 	bl	80090ac <_Bfree>
 8008a0e:	9b09      	ldr	r3, [sp, #36]	@ 0x24
 8008a10:	1b5b      	subs	r3, r3, r5
 8008a12:	9309      	str	r3, [sp, #36]	@ 0x24
 8008a14:	f000 80ae 	beq.w	8008b74 <_dtoa_r+0x8fc>
 8008a18:	9a09      	ldr	r2, [sp, #36]	@ 0x24
 8008a1a:	4651      	mov	r1, sl
 8008a1c:	4648      	mov	r0, r9
 8008a1e:	f000 fcb9 	bl	8009394 <__pow5mult>
 8008a22:	9001      	str	r0, [sp, #4]
 8008a24:	2101      	movs	r1, #1
 8008a26:	4648      	mov	r0, r9
 8008a28:	f000 fbf4 	bl	8009214 <__i2b>
 8008a2c:	9b0d      	ldr	r3, [sp, #52]	@ 0x34
 8008a2e:	4605      	mov	r5, r0
 8008a30:	2b00      	cmp	r3, #0
 8008a32:	f000 81d7 	beq.w	8008de4 <_dtoa_r+0xb6c>
 8008a36:	461a      	mov	r2, r3
 8008a38:	4601      	mov	r1, r0
 8008a3a:	4648      	mov	r0, r9
 8008a3c:	f000 fcaa 	bl	8009394 <__pow5mult>
 8008a40:	9b0a      	ldr	r3, [sp, #40]	@ 0x28
 8008a42:	2b01      	cmp	r3, #1
 8008a44:	4605      	mov	r5, r0
 8008a46:	f300 809d 	bgt.w	8008b84 <_dtoa_r+0x90c>
 8008a4a:	9b0e      	ldr	r3, [sp, #56]	@ 0x38
 8008a4c:	2b00      	cmp	r3, #0
 8008a4e:	f040 8094 	bne.w	8008b7a <_dtoa_r+0x902>
 8008a52:	9b0f      	ldr	r3, [sp, #60]	@ 0x3c
 8008a54:	f3c3 0313 	ubfx	r3, r3, #0, #20
 8008a58:	2b00      	cmp	r3, #0
 8008a5a:	f040 808e 	bne.w	8008b7a <_dtoa_r+0x902>
 8008a5e:	9b0f      	ldr	r3, [sp, #60]	@ 0x3c
 8008a60:	f023 4300 	bic.w	r3, r3, #2147483648	@ 0x80000000
 8008a64:	0d1b      	lsrs	r3, r3, #20
 8008a66:	051b      	lsls	r3, r3, #20
 8008a68:	2b00      	cmp	r3, #0
 8008a6a:	f000 8089 	beq.w	8008b80 <_dtoa_r+0x908>
 8008a6e:	9b08      	ldr	r3, [sp, #32]
 8008a70:	3301      	adds	r3, #1
 8008a72:	3701      	adds	r7, #1
 8008a74:	9308      	str	r3, [sp, #32]
 8008a76:	f04f 0a01 	mov.w	sl, #1
 8008a7a:	9b0d      	ldr	r3, [sp, #52]	@ 0x34
 8008a7c:	2b00      	cmp	r3, #0
 8008a7e:	f000 81b7 	beq.w	8008df0 <_dtoa_r+0xb78>
 8008a82:	692b      	ldr	r3, [r5, #16]
 8008a84:	eb05 0383 	add.w	r3, r5, r3, lsl #2
 8008a88:	6918      	ldr	r0, [r3, #16]
 8008a8a:	f000 fb77 	bl	800917c <__hi0bits>
 8008a8e:	f1c0 0020 	rsb	r0, r0, #32
 8008a92:	9b08      	ldr	r3, [sp, #32]
 8008a94:	4418      	add	r0, r3
 8008a96:	f010 001f 	ands.w	r0, r0, #31
 8008a9a:	d07e      	beq.n	8008b9a <_dtoa_r+0x922>
 8008a9c:	f1c0 0320 	rsb	r3, r0, #32
 8008aa0:	2b04      	cmp	r3, #4
 8008aa2:	dd72      	ble.n	8008b8a <_dtoa_r+0x912>
 8008aa4:	9b08      	ldr	r3, [sp, #32]
 8008aa6:	f1c0 001c 	rsb	r0, r0, #28
 8008aaa:	4403      	add	r3, r0
 8008aac:	4407      	add	r7, r0
 8008aae:	4406      	add	r6, r0
 8008ab0:	9308      	str	r3, [sp, #32]
 8008ab2:	2f00      	cmp	r7, #0
 8008ab4:	dd05      	ble.n	8008ac2 <_dtoa_r+0x84a>
 8008ab6:	9901      	ldr	r1, [sp, #4]
 8008ab8:	463a      	mov	r2, r7
 8008aba:	4648      	mov	r0, r9
 8008abc:	f000 fcc6 	bl	800944c <__lshift>
 8008ac0:	9001      	str	r0, [sp, #4]
 8008ac2:	9b08      	ldr	r3, [sp, #32]
 8008ac4:	2b00      	cmp	r3, #0
 8008ac6:	dd05      	ble.n	8008ad4 <_dtoa_r+0x85c>
 8008ac8:	4629      	mov	r1, r5
 8008aca:	461a      	mov	r2, r3
 8008acc:	4648      	mov	r0, r9
 8008ace:	f000 fcbd 	bl	800944c <__lshift>
 8008ad2:	4605      	mov	r5, r0
 8008ad4:	9b12      	ldr	r3, [sp, #72]	@ 0x48
 8008ad6:	2b00      	cmp	r3, #0
 8008ad8:	d061      	beq.n	8008b9e <_dtoa_r+0x926>
 8008ada:	9801      	ldr	r0, [sp, #4]
 8008adc:	4629      	mov	r1, r5
 8008ade:	f000 fd23 	bl	8009528 <__mcmp>
 8008ae2:	2800      	cmp	r0, #0
 8008ae4:	da5b      	bge.n	8008b9e <_dtoa_r+0x926>
 8008ae6:	f108 33ff 	add.w	r3, r8, #4294967295
 8008aea:	9302      	str	r3, [sp, #8]
 8008aec:	9901      	ldr	r1, [sp, #4]
 8008aee:	2300      	movs	r3, #0
 8008af0:	220a      	movs	r2, #10
 8008af2:	4648      	mov	r0, r9
 8008af4:	f000 fafc 	bl	80090f0 <__multadd>
 8008af8:	9b0b      	ldr	r3, [sp, #44]	@ 0x2c
 8008afa:	9001      	str	r0, [sp, #4]
 8008afc:	2b00      	cmp	r3, #0
 8008afe:	f000 8179 	beq.w	8008df4 <_dtoa_r+0xb7c>
 8008b02:	2300      	movs	r3, #0
 8008b04:	4621      	mov	r1, r4
 8008b06:	220a      	movs	r2, #10
 8008b08:	4648      	mov	r0, r9
 8008b0a:	f000 faf1 	bl	80090f0 <__multadd>
 8008b0e:	9b05      	ldr	r3, [sp, #20]
 8008b10:	2b00      	cmp	r3, #0
 8008b12:	4604      	mov	r4, r0
 8008b14:	dc72      	bgt.n	8008bfc <_dtoa_r+0x984>
 8008b16:	9b0a      	ldr	r3, [sp, #40]	@ 0x28
 8008b18:	2b02      	cmp	r3, #2
 8008b1a:	dc49      	bgt.n	8008bb0 <_dtoa_r+0x938>
 8008b1c:	e06e      	b.n	8008bfc <_dtoa_r+0x984>
 8008b1e:	9b16      	ldr	r3, [sp, #88]	@ 0x58
 8008b20:	f1c3 0336 	rsb	r3, r3, #54	@ 0x36
 8008b24:	e743      	b.n	80089ae <_dtoa_r+0x736>
 8008b26:	9b04      	ldr	r3, [sp, #16]
 8008b28:	1e5d      	subs	r5, r3, #1
 8008b2a:	9b09      	ldr	r3, [sp, #36]	@ 0x24
 8008b2c:	42ab      	cmp	r3, r5
 8008b2e:	db0d      	blt.n	8008b4c <_dtoa_r+0x8d4>
 8008b30:	1b5d      	subs	r5, r3, r5
 8008b32:	9b04      	ldr	r3, [sp, #16]
 8008b34:	2b00      	cmp	r3, #0
 8008b36:	f6bf af3b 	bge.w	80089b0 <_dtoa_r+0x738>
 8008b3a:	9b04      	ldr	r3, [sp, #16]
 8008b3c:	1afe      	subs	r6, r7, r3
 8008b3e:	2300      	movs	r3, #0
 8008b40:	e737      	b.n	80089b2 <_dtoa_r+0x73a>
 8008b42:	bf00      	nop
 8008b44:	3fe00000 	.word	0x3fe00000
 8008b48:	40240000 	.word	0x40240000
 8008b4c:	9b09      	ldr	r3, [sp, #36]	@ 0x24
 8008b4e:	9a0d      	ldr	r2, [sp, #52]	@ 0x34
 8008b50:	9509      	str	r5, [sp, #36]	@ 0x24
 8008b52:	1aeb      	subs	r3, r5, r3
 8008b54:	441a      	add	r2, r3
 8008b56:	920d      	str	r2, [sp, #52]	@ 0x34
 8008b58:	9b04      	ldr	r3, [sp, #16]
 8008b5a:	463e      	mov	r6, r7
 8008b5c:	2500      	movs	r5, #0
 8008b5e:	e728      	b.n	80089b2 <_dtoa_r+0x73a>
 8008b60:	9d09      	ldr	r5, [sp, #36]	@ 0x24
 8008b62:	9c0b      	ldr	r4, [sp, #44]	@ 0x2c
 8008b64:	463e      	mov	r6, r7
 8008b66:	e72d      	b.n	80089c4 <_dtoa_r+0x74c>
 8008b68:	f8dd a004 	ldr.w	sl, [sp, #4]
 8008b6c:	e754      	b.n	8008a18 <_dtoa_r+0x7a0>
 8008b6e:	9a09      	ldr	r2, [sp, #36]	@ 0x24
 8008b70:	9901      	ldr	r1, [sp, #4]
 8008b72:	e753      	b.n	8008a1c <_dtoa_r+0x7a4>
 8008b74:	f8cd a004 	str.w	sl, [sp, #4]
 8008b78:	e754      	b.n	8008a24 <_dtoa_r+0x7ac>
 8008b7a:	f04f 0a00 	mov.w	sl, #0
 8008b7e:	e77c      	b.n	8008a7a <_dtoa_r+0x802>
 8008b80:	469a      	mov	sl, r3
 8008b82:	e77a      	b.n	8008a7a <_dtoa_r+0x802>
 8008b84:	f04f 0a00 	mov.w	sl, #0
 8008b88:	e77b      	b.n	8008a82 <_dtoa_r+0x80a>
 8008b8a:	d092      	beq.n	8008ab2 <_dtoa_r+0x83a>
 8008b8c:	9a08      	ldr	r2, [sp, #32]
 8008b8e:	331c      	adds	r3, #28
 8008b90:	441a      	add	r2, r3
 8008b92:	441f      	add	r7, r3
 8008b94:	441e      	add	r6, r3
 8008b96:	9208      	str	r2, [sp, #32]
 8008b98:	e78b      	b.n	8008ab2 <_dtoa_r+0x83a>
 8008b9a:	4603      	mov	r3, r0
 8008b9c:	e7f6      	b.n	8008b8c <_dtoa_r+0x914>
 8008b9e:	9b04      	ldr	r3, [sp, #16]
 8008ba0:	f8cd 8008 	str.w	r8, [sp, #8]
 8008ba4:	2b00      	cmp	r3, #0
 8008ba6:	dc23      	bgt.n	8008bf0 <_dtoa_r+0x978>
 8008ba8:	9305      	str	r3, [sp, #20]
 8008baa:	9b0a      	ldr	r3, [sp, #40]	@ 0x28
 8008bac:	2b02      	cmp	r3, #2
 8008bae:	dd21      	ble.n	8008bf4 <_dtoa_r+0x97c>
 8008bb0:	9b05      	ldr	r3, [sp, #20]
 8008bb2:	2b00      	cmp	r3, #0
 8008bb4:	f47f adb0 	bne.w	8008718 <_dtoa_r+0x4a0>
 8008bb8:	4629      	mov	r1, r5
 8008bba:	2205      	movs	r2, #5
 8008bbc:	4648      	mov	r0, r9
 8008bbe:	f000 fa97 	bl	80090f0 <__multadd>
 8008bc2:	4601      	mov	r1, r0
 8008bc4:	4605      	mov	r5, r0
 8008bc6:	9801      	ldr	r0, [sp, #4]
 8008bc8:	f000 fcae 	bl	8009528 <__mcmp>
 8008bcc:	2800      	cmp	r0, #0
 8008bce:	f77f ada3 	ble.w	8008718 <_dtoa_r+0x4a0>
 8008bd2:	9e00      	ldr	r6, [sp, #0]
 8008bd4:	2331      	movs	r3, #49	@ 0x31
 8008bd6:	f806 3b01 	strb.w	r3, [r6], #1
 8008bda:	9b02      	ldr	r3, [sp, #8]
 8008bdc:	3301      	adds	r3, #1
 8008bde:	9302      	str	r3, [sp, #8]
 8008be0:	e59e      	b.n	8008720 <_dtoa_r+0x4a8>
 8008be2:	4635      	mov	r5, r6
 8008be4:	462c      	mov	r4, r5
 8008be6:	e7f4      	b.n	8008bd2 <_dtoa_r+0x95a>
 8008be8:	9d04      	ldr	r5, [sp, #16]
 8008bea:	f8cd 8008 	str.w	r8, [sp, #8]
 8008bee:	e7f9      	b.n	8008be4 <_dtoa_r+0x96c>
 8008bf0:	9b04      	ldr	r3, [sp, #16]
 8008bf2:	9305      	str	r3, [sp, #20]
 8008bf4:	9b0b      	ldr	r3, [sp, #44]	@ 0x2c
 8008bf6:	2b00      	cmp	r3, #0
 8008bf8:	f000 8100 	beq.w	8008dfc <_dtoa_r+0xb84>
 8008bfc:	2e00      	cmp	r6, #0
 8008bfe:	dd05      	ble.n	8008c0c <_dtoa_r+0x994>
 8008c00:	4621      	mov	r1, r4
 8008c02:	4632      	mov	r2, r6
 8008c04:	4648      	mov	r0, r9
 8008c06:	f000 fc21 	bl	800944c <__lshift>
 8008c0a:	4604      	mov	r4, r0
 8008c0c:	f1ba 0f00 	cmp.w	sl, #0
 8008c10:	d05a      	beq.n	8008cc8 <_dtoa_r+0xa50>
 8008c12:	6861      	ldr	r1, [r4, #4]
 8008c14:	4648      	mov	r0, r9
 8008c16:	f000 fa0b 	bl	8009030 <_Balloc>
 8008c1a:	4606      	mov	r6, r0
 8008c1c:	b928      	cbnz	r0, 8008c2a <_dtoa_r+0x9b2>
 8008c1e:	4b82      	ldr	r3, [pc, #520]	@ (8008e28 <_dtoa_r+0xbb0>)
 8008c20:	4602      	mov	r2, r0
 8008c22:	f240 21ef 	movw	r1, #751	@ 0x2ef
 8008c26:	f7ff bb3e 	b.w	80082a6 <_dtoa_r+0x2e>
 8008c2a:	6922      	ldr	r2, [r4, #16]
 8008c2c:	3202      	adds	r2, #2
 8008c2e:	0092      	lsls	r2, r2, #2
 8008c30:	f104 010c 	add.w	r1, r4, #12
 8008c34:	300c      	adds	r0, #12
 8008c36:	f7ff fa88 	bl	800814a <memcpy>
 8008c3a:	2201      	movs	r2, #1
 8008c3c:	4631      	mov	r1, r6
 8008c3e:	4648      	mov	r0, r9
 8008c40:	f000 fc04 	bl	800944c <__lshift>
 8008c44:	4607      	mov	r7, r0
 8008c46:	9b00      	ldr	r3, [sp, #0]
 8008c48:	9a00      	ldr	r2, [sp, #0]
 8008c4a:	f103 0b01 	add.w	fp, r3, #1
 8008c4e:	9b05      	ldr	r3, [sp, #20]
 8008c50:	4413      	add	r3, r2
 8008c52:	9306      	str	r3, [sp, #24]
 8008c54:	9b0e      	ldr	r3, [sp, #56]	@ 0x38
 8008c56:	f003 0301 	and.w	r3, r3, #1
 8008c5a:	9308      	str	r3, [sp, #32]
 8008c5c:	f10b 33ff 	add.w	r3, fp, #4294967295
 8008c60:	4629      	mov	r1, r5
 8008c62:	9801      	ldr	r0, [sp, #4]
 8008c64:	9304      	str	r3, [sp, #16]
 8008c66:	f7ff fa7e 	bl	8008166 <quorem>
 8008c6a:	4621      	mov	r1, r4
 8008c6c:	9005      	str	r0, [sp, #20]
 8008c6e:	f100 0a30 	add.w	sl, r0, #48	@ 0x30
 8008c72:	9801      	ldr	r0, [sp, #4]
 8008c74:	f000 fc58 	bl	8009528 <__mcmp>
 8008c78:	463a      	mov	r2, r7
 8008c7a:	4680      	mov	r8, r0
 8008c7c:	4629      	mov	r1, r5
 8008c7e:	4648      	mov	r0, r9
 8008c80:	f000 fc6e 	bl	8009560 <__mdiff>
 8008c84:	68c2      	ldr	r2, [r0, #12]
 8008c86:	4606      	mov	r6, r0
 8008c88:	bb02      	cbnz	r2, 8008ccc <_dtoa_r+0xa54>
 8008c8a:	4601      	mov	r1, r0
 8008c8c:	9801      	ldr	r0, [sp, #4]
 8008c8e:	f000 fc4b 	bl	8009528 <__mcmp>
 8008c92:	4602      	mov	r2, r0
 8008c94:	4631      	mov	r1, r6
 8008c96:	4648      	mov	r0, r9
 8008c98:	9209      	str	r2, [sp, #36]	@ 0x24
 8008c9a:	f000 fa07 	bl	80090ac <_Bfree>
 8008c9e:	e9dd 2309 	ldrd	r2, r3, [sp, #36]	@ 0x24
 8008ca2:	ea42 0103 	orr.w	r1, r2, r3
 8008ca6:	9b08      	ldr	r3, [sp, #32]
 8008ca8:	4319      	orrs	r1, r3
 8008caa:	465e      	mov	r6, fp
 8008cac:	d110      	bne.n	8008cd0 <_dtoa_r+0xa58>
 8008cae:	f1ba 0f39 	cmp.w	sl, #57	@ 0x39
 8008cb2:	d02b      	beq.n	8008d0c <_dtoa_r+0xa94>
 8008cb4:	f1b8 0f00 	cmp.w	r8, #0
 8008cb8:	dd02      	ble.n	8008cc0 <_dtoa_r+0xa48>
 8008cba:	9b05      	ldr	r3, [sp, #20]
 8008cbc:	f103 0a31 	add.w	sl, r3, #49	@ 0x31
 8008cc0:	9b04      	ldr	r3, [sp, #16]
 8008cc2:	f883 a000 	strb.w	sl, [r3]
 8008cc6:	e52d      	b.n	8008724 <_dtoa_r+0x4ac>
 8008cc8:	4627      	mov	r7, r4
 8008cca:	e7bc      	b.n	8008c46 <_dtoa_r+0x9ce>
 8008ccc:	2201      	movs	r2, #1
 8008cce:	e7e1      	b.n	8008c94 <_dtoa_r+0xa1c>
 8008cd0:	f1b8 0f00 	cmp.w	r8, #0
 8008cd4:	db06      	blt.n	8008ce4 <_dtoa_r+0xa6c>
 8008cd6:	9b0a      	ldr	r3, [sp, #40]	@ 0x28
 8008cd8:	ea48 0803 	orr.w	r8, r8, r3
 8008cdc:	9b08      	ldr	r3, [sp, #32]
 8008cde:	ea58 0803 	orrs.w	r8, r8, r3
 8008ce2:	d120      	bne.n	8008d26 <_dtoa_r+0xaae>
 8008ce4:	2a00      	cmp	r2, #0
 8008ce6:	ddeb      	ble.n	8008cc0 <_dtoa_r+0xa48>
 8008ce8:	9901      	ldr	r1, [sp, #4]
 8008cea:	2201      	movs	r2, #1
 8008cec:	4648      	mov	r0, r9
 8008cee:	f000 fbad 	bl	800944c <__lshift>
 8008cf2:	4629      	mov	r1, r5
 8008cf4:	9001      	str	r0, [sp, #4]
 8008cf6:	f000 fc17 	bl	8009528 <__mcmp>
 8008cfa:	2800      	cmp	r0, #0
 8008cfc:	dc03      	bgt.n	8008d06 <_dtoa_r+0xa8e>
 8008cfe:	d1df      	bne.n	8008cc0 <_dtoa_r+0xa48>
 8008d00:	f01a 0f01 	tst.w	sl, #1
 8008d04:	d0dc      	beq.n	8008cc0 <_dtoa_r+0xa48>
 8008d06:	f1ba 0f39 	cmp.w	sl, #57	@ 0x39
 8008d0a:	d1d6      	bne.n	8008cba <_dtoa_r+0xa42>
 8008d0c:	9a04      	ldr	r2, [sp, #16]
 8008d0e:	2339      	movs	r3, #57	@ 0x39
 8008d10:	7013      	strb	r3, [r2, #0]
 8008d12:	4633      	mov	r3, r6
 8008d14:	461e      	mov	r6, r3
 8008d16:	3b01      	subs	r3, #1
 8008d18:	f816 2c01 	ldrb.w	r2, [r6, #-1]
 8008d1c:	2a39      	cmp	r2, #57	@ 0x39
 8008d1e:	d052      	beq.n	8008dc6 <_dtoa_r+0xb4e>
 8008d20:	3201      	adds	r2, #1
 8008d22:	701a      	strb	r2, [r3, #0]
 8008d24:	e4fe      	b.n	8008724 <_dtoa_r+0x4ac>
 8008d26:	2a00      	cmp	r2, #0
 8008d28:	dd07      	ble.n	8008d3a <_dtoa_r+0xac2>
 8008d2a:	f1ba 0f39 	cmp.w	sl, #57	@ 0x39
 8008d2e:	d0ed      	beq.n	8008d0c <_dtoa_r+0xa94>
 8008d30:	9a04      	ldr	r2, [sp, #16]
 8008d32:	f10a 0301 	add.w	r3, sl, #1
 8008d36:	7013      	strb	r3, [r2, #0]
 8008d38:	e4f4      	b.n	8008724 <_dtoa_r+0x4ac>
 8008d3a:	9b06      	ldr	r3, [sp, #24]
 8008d3c:	f80b ac01 	strb.w	sl, [fp, #-1]
 8008d40:	455b      	cmp	r3, fp
 8008d42:	d02a      	beq.n	8008d9a <_dtoa_r+0xb22>
 8008d44:	9901      	ldr	r1, [sp, #4]
 8008d46:	2300      	movs	r3, #0
 8008d48:	220a      	movs	r2, #10
 8008d4a:	4648      	mov	r0, r9
 8008d4c:	f000 f9d0 	bl	80090f0 <__multadd>
 8008d50:	42bc      	cmp	r4, r7
 8008d52:	9001      	str	r0, [sp, #4]
 8008d54:	f04f 0300 	mov.w	r3, #0
 8008d58:	f04f 020a 	mov.w	r2, #10
 8008d5c:	4621      	mov	r1, r4
 8008d5e:	4648      	mov	r0, r9
 8008d60:	d106      	bne.n	8008d70 <_dtoa_r+0xaf8>
 8008d62:	f000 f9c5 	bl	80090f0 <__multadd>
 8008d66:	4604      	mov	r4, r0
 8008d68:	4607      	mov	r7, r0
 8008d6a:	f10b 0b01 	add.w	fp, fp, #1
 8008d6e:	e775      	b.n	8008c5c <_dtoa_r+0x9e4>
 8008d70:	f000 f9be 	bl	80090f0 <__multadd>
 8008d74:	4639      	mov	r1, r7
 8008d76:	4604      	mov	r4, r0
 8008d78:	2300      	movs	r3, #0
 8008d7a:	220a      	movs	r2, #10
 8008d7c:	4648      	mov	r0, r9
 8008d7e:	f000 f9b7 	bl	80090f0 <__multadd>
 8008d82:	4607      	mov	r7, r0
 8008d84:	e7f1      	b.n	8008d6a <_dtoa_r+0xaf2>
 8008d86:	9b05      	ldr	r3, [sp, #20]
 8008d88:	1e5e      	subs	r6, r3, #1
 8008d8a:	2b00      	cmp	r3, #0
 8008d8c:	9b00      	ldr	r3, [sp, #0]
 8008d8e:	bfd8      	it	le
 8008d90:	2600      	movle	r6, #0
 8008d92:	1c5a      	adds	r2, r3, #1
 8008d94:	4627      	mov	r7, r4
 8008d96:	4416      	add	r6, r2
 8008d98:	2400      	movs	r4, #0
 8008d9a:	9901      	ldr	r1, [sp, #4]
 8008d9c:	2201      	movs	r2, #1
 8008d9e:	4648      	mov	r0, r9
 8008da0:	f000 fb54 	bl	800944c <__lshift>
 8008da4:	4629      	mov	r1, r5
 8008da6:	9001      	str	r0, [sp, #4]
 8008da8:	f000 fbbe 	bl	8009528 <__mcmp>
 8008dac:	2800      	cmp	r0, #0
 8008dae:	dcb0      	bgt.n	8008d12 <_dtoa_r+0xa9a>
 8008db0:	d102      	bne.n	8008db8 <_dtoa_r+0xb40>
 8008db2:	f01a 0f01 	tst.w	sl, #1
 8008db6:	d1ac      	bne.n	8008d12 <_dtoa_r+0xa9a>
 8008db8:	4633      	mov	r3, r6
 8008dba:	461e      	mov	r6, r3
 8008dbc:	f813 2d01 	ldrb.w	r2, [r3, #-1]!
 8008dc0:	2a30      	cmp	r2, #48	@ 0x30
 8008dc2:	d0fa      	beq.n	8008dba <_dtoa_r+0xb42>
 8008dc4:	e4ae      	b.n	8008724 <_dtoa_r+0x4ac>
 8008dc6:	9a00      	ldr	r2, [sp, #0]
 8008dc8:	429a      	cmp	r2, r3
 8008dca:	d1a3      	bne.n	8008d14 <_dtoa_r+0xa9c>
 8008dcc:	9b02      	ldr	r3, [sp, #8]
 8008dce:	3301      	adds	r3, #1
 8008dd0:	9302      	str	r3, [sp, #8]
 8008dd2:	2331      	movs	r3, #49	@ 0x31
 8008dd4:	e7af      	b.n	8008d36 <_dtoa_r+0xabe>
 8008dd6:	9b23      	ldr	r3, [sp, #140]	@ 0x8c
 8008dd8:	2b00      	cmp	r3, #0
 8008dda:	f47f aa98 	bne.w	800830e <_dtoa_r+0x96>
 8008dde:	4b13      	ldr	r3, [pc, #76]	@ (8008e2c <_dtoa_r+0xbb4>)
 8008de0:	f7ff bab7 	b.w	8008352 <_dtoa_r+0xda>
 8008de4:	9b0a      	ldr	r3, [sp, #40]	@ 0x28
 8008de6:	2b01      	cmp	r3, #1
 8008de8:	f77f ae2f 	ble.w	8008a4a <_dtoa_r+0x7d2>
 8008dec:	f8dd a034 	ldr.w	sl, [sp, #52]	@ 0x34
 8008df0:	2001      	movs	r0, #1
 8008df2:	e64e      	b.n	8008a92 <_dtoa_r+0x81a>
 8008df4:	9b05      	ldr	r3, [sp, #20]
 8008df6:	2b00      	cmp	r3, #0
 8008df8:	f77f aed7 	ble.w	8008baa <_dtoa_r+0x932>
 8008dfc:	9e00      	ldr	r6, [sp, #0]
 8008dfe:	9801      	ldr	r0, [sp, #4]
 8008e00:	4629      	mov	r1, r5
 8008e02:	f7ff f9b0 	bl	8008166 <quorem>
 8008e06:	f100 0a30 	add.w	sl, r0, #48	@ 0x30
 8008e0a:	9b00      	ldr	r3, [sp, #0]
 8008e0c:	f806 ab01 	strb.w	sl, [r6], #1
 8008e10:	1af2      	subs	r2, r6, r3
 8008e12:	9b05      	ldr	r3, [sp, #20]
 8008e14:	4293      	cmp	r3, r2
 8008e16:	ddb6      	ble.n	8008d86 <_dtoa_r+0xb0e>
 8008e18:	9901      	ldr	r1, [sp, #4]
 8008e1a:	2300      	movs	r3, #0
 8008e1c:	220a      	movs	r2, #10
 8008e1e:	4648      	mov	r0, r9
 8008e20:	f000 f966 	bl	80090f0 <__multadd>
 8008e24:	9001      	str	r0, [sp, #4]
 8008e26:	e7ea      	b.n	8008dfe <_dtoa_r+0xb86>
 8008e28:	0801e454 	.word	0x0801e454
 8008e2c:	0801e3d8 	.word	0x0801e3d8

08008e30 <_free_r>:
 8008e30:	b538      	push	{r3, r4, r5, lr}
 8008e32:	4605      	mov	r5, r0
 8008e34:	2900      	cmp	r1, #0
 8008e36:	d041      	beq.n	8008ebc <_free_r+0x8c>
 8008e38:	f851 3c04 	ldr.w	r3, [r1, #-4]
 8008e3c:	1f0c      	subs	r4, r1, #4
 8008e3e:	2b00      	cmp	r3, #0
 8008e40:	bfb8      	it	lt
 8008e42:	18e4      	addlt	r4, r4, r3
 8008e44:	f000 f8e8 	bl	8009018 <__malloc_lock>
 8008e48:	4a1d      	ldr	r2, [pc, #116]	@ (8008ec0 <_free_r+0x90>)
 8008e4a:	6813      	ldr	r3, [r2, #0]
 8008e4c:	b933      	cbnz	r3, 8008e5c <_free_r+0x2c>
 8008e4e:	6063      	str	r3, [r4, #4]
 8008e50:	6014      	str	r4, [r2, #0]
 8008e52:	4628      	mov	r0, r5
 8008e54:	e8bd 4038 	ldmia.w	sp!, {r3, r4, r5, lr}
 8008e58:	f000 b8e4 	b.w	8009024 <__malloc_unlock>
 8008e5c:	42a3      	cmp	r3, r4
 8008e5e:	d908      	bls.n	8008e72 <_free_r+0x42>
 8008e60:	6820      	ldr	r0, [r4, #0]
 8008e62:	1821      	adds	r1, r4, r0
 8008e64:	428b      	cmp	r3, r1
 8008e66:	bf01      	itttt	eq
 8008e68:	6819      	ldreq	r1, [r3, #0]
 8008e6a:	685b      	ldreq	r3, [r3, #4]
 8008e6c:	1809      	addeq	r1, r1, r0
 8008e6e:	6021      	streq	r1, [r4, #0]
 8008e70:	e7ed      	b.n	8008e4e <_free_r+0x1e>
 8008e72:	461a      	mov	r2, r3
 8008e74:	685b      	ldr	r3, [r3, #4]
 8008e76:	b10b      	cbz	r3, 8008e7c <_free_r+0x4c>
 8008e78:	42a3      	cmp	r3, r4
 8008e7a:	d9fa      	bls.n	8008e72 <_free_r+0x42>
 8008e7c:	6811      	ldr	r1, [r2, #0]
 8008e7e:	1850      	adds	r0, r2, r1
 8008e80:	42a0      	cmp	r0, r4
 8008e82:	d10b      	bne.n	8008e9c <_free_r+0x6c>
 8008e84:	6820      	ldr	r0, [r4, #0]
 8008e86:	4401      	add	r1, r0
 8008e88:	1850      	adds	r0, r2, r1
 8008e8a:	4283      	cmp	r3, r0
 8008e8c:	6011      	str	r1, [r2, #0]
 8008e8e:	d1e0      	bne.n	8008e52 <_free_r+0x22>
 8008e90:	6818      	ldr	r0, [r3, #0]
 8008e92:	685b      	ldr	r3, [r3, #4]
 8008e94:	6053      	str	r3, [r2, #4]
 8008e96:	4408      	add	r0, r1
 8008e98:	6010      	str	r0, [r2, #0]
 8008e9a:	e7da      	b.n	8008e52 <_free_r+0x22>
 8008e9c:	d902      	bls.n	8008ea4 <_free_r+0x74>
 8008e9e:	230c      	movs	r3, #12
 8008ea0:	602b      	str	r3, [r5, #0]
 8008ea2:	e7d6      	b.n	8008e52 <_free_r+0x22>
 8008ea4:	6820      	ldr	r0, [r4, #0]
 8008ea6:	1821      	adds	r1, r4, r0
 8008ea8:	428b      	cmp	r3, r1
 8008eaa:	bf04      	itt	eq
 8008eac:	6819      	ldreq	r1, [r3, #0]
 8008eae:	685b      	ldreq	r3, [r3, #4]
 8008eb0:	6063      	str	r3, [r4, #4]
 8008eb2:	bf04      	itt	eq
 8008eb4:	1809      	addeq	r1, r1, r0
 8008eb6:	6021      	streq	r1, [r4, #0]
 8008eb8:	6054      	str	r4, [r2, #4]
 8008eba:	e7ca      	b.n	8008e52 <_free_r+0x22>
 8008ebc:	bd38      	pop	{r3, r4, r5, pc}
 8008ebe:	bf00      	nop
 8008ec0:	2000d468 	.word	0x2000d468

08008ec4 <malloc>:
 8008ec4:	4b02      	ldr	r3, [pc, #8]	@ (8008ed0 <malloc+0xc>)
 8008ec6:	4601      	mov	r1, r0
 8008ec8:	6818      	ldr	r0, [r3, #0]
 8008eca:	f000 b825 	b.w	8008f18 <_malloc_r>
 8008ece:	bf00      	nop
 8008ed0:	2000201c 	.word	0x2000201c

08008ed4 <sbrk_aligned>:
 8008ed4:	b570      	push	{r4, r5, r6, lr}
 8008ed6:	4e0f      	ldr	r6, [pc, #60]	@ (8008f14 <sbrk_aligned+0x40>)
 8008ed8:	460c      	mov	r4, r1
 8008eda:	6831      	ldr	r1, [r6, #0]
 8008edc:	4605      	mov	r5, r0
 8008ede:	b911      	cbnz	r1, 8008ee6 <sbrk_aligned+0x12>
 8008ee0:	f001 f81a 	bl	8009f18 <_sbrk_r>
 8008ee4:	6030      	str	r0, [r6, #0]
 8008ee6:	4621      	mov	r1, r4
 8008ee8:	4628      	mov	r0, r5
 8008eea:	f001 f815 	bl	8009f18 <_sbrk_r>
 8008eee:	1c43      	adds	r3, r0, #1
 8008ef0:	d103      	bne.n	8008efa <sbrk_aligned+0x26>
 8008ef2:	f04f 34ff 	mov.w	r4, #4294967295
 8008ef6:	4620      	mov	r0, r4
 8008ef8:	bd70      	pop	{r4, r5, r6, pc}
 8008efa:	1cc4      	adds	r4, r0, #3
 8008efc:	f024 0403 	bic.w	r4, r4, #3
 8008f00:	42a0      	cmp	r0, r4
 8008f02:	d0f8      	beq.n	8008ef6 <sbrk_aligned+0x22>
 8008f04:	1a21      	subs	r1, r4, r0
 8008f06:	4628      	mov	r0, r5
 8008f08:	f001 f806 	bl	8009f18 <_sbrk_r>
 8008f0c:	3001      	adds	r0, #1
 8008f0e:	d1f2      	bne.n	8008ef6 <sbrk_aligned+0x22>
 8008f10:	e7ef      	b.n	8008ef2 <sbrk_aligned+0x1e>
 8008f12:	bf00      	nop
 8008f14:	2000d464 	.word	0x2000d464

08008f18 <_malloc_r>:
 8008f18:	e92d 43f8 	stmdb	sp!, {r3, r4, r5, r6, r7, r8, r9, lr}
 8008f1c:	1ccd      	adds	r5, r1, #3
 8008f1e:	f025 0503 	bic.w	r5, r5, #3
 8008f22:	3508      	adds	r5, #8
 8008f24:	2d0c      	cmp	r5, #12
 8008f26:	bf38      	it	cc
 8008f28:	250c      	movcc	r5, #12
 8008f2a:	2d00      	cmp	r5, #0
 8008f2c:	4606      	mov	r6, r0
 8008f2e:	db01      	blt.n	8008f34 <_malloc_r+0x1c>
 8008f30:	42a9      	cmp	r1, r5
 8008f32:	d904      	bls.n	8008f3e <_malloc_r+0x26>
 8008f34:	230c      	movs	r3, #12
 8008f36:	6033      	str	r3, [r6, #0]
 8008f38:	2000      	movs	r0, #0
 8008f3a:	e8bd 83f8 	ldmia.w	sp!, {r3, r4, r5, r6, r7, r8, r9, pc}
 8008f3e:	f8df 80d4 	ldr.w	r8, [pc, #212]	@ 8009014 <_malloc_r+0xfc>
 8008f42:	f000 f869 	bl	8009018 <__malloc_lock>
 8008f46:	f8d8 3000 	ldr.w	r3, [r8]
 8008f4a:	461c      	mov	r4, r3
 8008f4c:	bb44      	cbnz	r4, 8008fa0 <_malloc_r+0x88>
 8008f4e:	4629      	mov	r1, r5
 8008f50:	4630      	mov	r0, r6
 8008f52:	f7ff ffbf 	bl	8008ed4 <sbrk_aligned>
 8008f56:	1c43      	adds	r3, r0, #1
 8008f58:	4604      	mov	r4, r0
 8008f5a:	d158      	bne.n	800900e <_malloc_r+0xf6>
 8008f5c:	f8d8 4000 	ldr.w	r4, [r8]
 8008f60:	4627      	mov	r7, r4
 8008f62:	2f00      	cmp	r7, #0
 8008f64:	d143      	bne.n	8008fee <_malloc_r+0xd6>
 8008f66:	2c00      	cmp	r4, #0
 8008f68:	d04b      	beq.n	8009002 <_malloc_r+0xea>
 8008f6a:	6823      	ldr	r3, [r4, #0]
 8008f6c:	4639      	mov	r1, r7
 8008f6e:	4630      	mov	r0, r6
 8008f70:	eb04 0903 	add.w	r9, r4, r3
 8008f74:	f000 ffd0 	bl	8009f18 <_sbrk_r>
 8008f78:	4581      	cmp	r9, r0
 8008f7a:	d142      	bne.n	8009002 <_malloc_r+0xea>
 8008f7c:	6821      	ldr	r1, [r4, #0]
 8008f7e:	1a6d      	subs	r5, r5, r1
 8008f80:	4629      	mov	r1, r5
 8008f82:	4630      	mov	r0, r6
 8008f84:	f7ff ffa6 	bl	8008ed4 <sbrk_aligned>
 8008f88:	3001      	adds	r0, #1
 8008f8a:	d03a      	beq.n	8009002 <_malloc_r+0xea>
 8008f8c:	6823      	ldr	r3, [r4, #0]
 8008f8e:	442b      	add	r3, r5
 8008f90:	6023      	str	r3, [r4, #0]
 8008f92:	f8d8 3000 	ldr.w	r3, [r8]
 8008f96:	685a      	ldr	r2, [r3, #4]
 8008f98:	bb62      	cbnz	r2, 8008ff4 <_malloc_r+0xdc>
 8008f9a:	f8c8 7000 	str.w	r7, [r8]
 8008f9e:	e00f      	b.n	8008fc0 <_malloc_r+0xa8>
 8008fa0:	6822      	ldr	r2, [r4, #0]
 8008fa2:	1b52      	subs	r2, r2, r5
 8008fa4:	d420      	bmi.n	8008fe8 <_malloc_r+0xd0>
 8008fa6:	2a0b      	cmp	r2, #11
 8008fa8:	d917      	bls.n	8008fda <_malloc_r+0xc2>
 8008faa:	1961      	adds	r1, r4, r5
 8008fac:	42a3      	cmp	r3, r4
 8008fae:	6025      	str	r5, [r4, #0]
 8008fb0:	bf18      	it	ne
 8008fb2:	6059      	strne	r1, [r3, #4]
 8008fb4:	6863      	ldr	r3, [r4, #4]
 8008fb6:	bf08      	it	eq
 8008fb8:	f8c8 1000 	streq.w	r1, [r8]
 8008fbc:	5162      	str	r2, [r4, r5]
 8008fbe:	604b      	str	r3, [r1, #4]
 8008fc0:	4630      	mov	r0, r6
 8008fc2:	f000 f82f 	bl	8009024 <__malloc_unlock>
 8008fc6:	f104 000b 	add.w	r0, r4, #11
 8008fca:	1d23      	adds	r3, r4, #4
 8008fcc:	f020 0007 	bic.w	r0, r0, #7
 8008fd0:	1ac2      	subs	r2, r0, r3
 8008fd2:	bf1c      	itt	ne
 8008fd4:	1a1b      	subne	r3, r3, r0
 8008fd6:	50a3      	strne	r3, [r4, r2]
 8008fd8:	e7af      	b.n	8008f3a <_malloc_r+0x22>
 8008fda:	6862      	ldr	r2, [r4, #4]
 8008fdc:	42a3      	cmp	r3, r4
 8008fde:	bf0c      	ite	eq
 8008fe0:	f8c8 2000 	streq.w	r2, [r8]
 8008fe4:	605a      	strne	r2, [r3, #4]
 8008fe6:	e7eb      	b.n	8008fc0 <_malloc_r+0xa8>
 8008fe8:	4623      	mov	r3, r4
 8008fea:	6864      	ldr	r4, [r4, #4]
 8008fec:	e7ae      	b.n	8008f4c <_malloc_r+0x34>
 8008fee:	463c      	mov	r4, r7
 8008ff0:	687f      	ldr	r7, [r7, #4]
 8008ff2:	e7b6      	b.n	8008f62 <_malloc_r+0x4a>
 8008ff4:	461a      	mov	r2, r3
 8008ff6:	685b      	ldr	r3, [r3, #4]
 8008ff8:	42a3      	cmp	r3, r4
 8008ffa:	d1fb      	bne.n	8008ff4 <_malloc_r+0xdc>
 8008ffc:	2300      	movs	r3, #0
 8008ffe:	6053      	str	r3, [r2, #4]
 8009000:	e7de      	b.n	8008fc0 <_malloc_r+0xa8>
 8009002:	230c      	movs	r3, #12
 8009004:	6033      	str	r3, [r6, #0]
 8009006:	4630      	mov	r0, r6
 8009008:	f000 f80c 	bl	8009024 <__malloc_unlock>
 800900c:	e794      	b.n	8008f38 <_malloc_r+0x20>
 800900e:	6005      	str	r5, [r0, #0]
 8009010:	e7d6      	b.n	8008fc0 <_malloc_r+0xa8>
 8009012:	bf00      	nop
 8009014:	2000d468 	.word	0x2000d468

08009018 <__malloc_lock>:
 8009018:	4801      	ldr	r0, [pc, #4]	@ (8009020 <__malloc_lock+0x8>)
 800901a:	f7ff b894 	b.w	8008146 <__retarget_lock_acquire_recursive>
 800901e:	bf00      	nop
 8009020:	2000d460 	.word	0x2000d460

08009024 <__malloc_unlock>:
 8009024:	4801      	ldr	r0, [pc, #4]	@ (800902c <__malloc_unlock+0x8>)
 8009026:	f7ff b88f 	b.w	8008148 <__retarget_lock_release_recursive>
 800902a:	bf00      	nop
 800902c:	2000d460 	.word	0x2000d460

08009030 <_Balloc>:
 8009030:	b570      	push	{r4, r5, r6, lr}
 8009032:	69c4      	ldr	r4, [r0, #28]
 8009034:	4605      	mov	r5, r0
 8009036:	460e      	mov	r6, r1
 8009038:	b984      	cbnz	r4, 800905c <_Balloc+0x2c>
 800903a:	2010      	movs	r0, #16
 800903c:	f7ff ff42 	bl	8008ec4 <malloc>
 8009040:	4604      	mov	r4, r0
 8009042:	61e8      	str	r0, [r5, #28]
 8009044:	b928      	cbnz	r0, 8009052 <_Balloc+0x22>
 8009046:	4602      	mov	r2, r0
 8009048:	4b16      	ldr	r3, [pc, #88]	@ (80090a4 <_Balloc+0x74>)
 800904a:	4817      	ldr	r0, [pc, #92]	@ (80090a8 <_Balloc+0x78>)
 800904c:	216b      	movs	r1, #107	@ 0x6b
 800904e:	f000 ff73 	bl	8009f38 <__assert_func>
 8009052:	2300      	movs	r3, #0
 8009054:	e9c0 3301 	strd	r3, r3, [r0, #4]
 8009058:	6003      	str	r3, [r0, #0]
 800905a:	60c3      	str	r3, [r0, #12]
 800905c:	68e3      	ldr	r3, [r4, #12]
 800905e:	b953      	cbnz	r3, 8009076 <_Balloc+0x46>
 8009060:	2221      	movs	r2, #33	@ 0x21
 8009062:	2104      	movs	r1, #4
 8009064:	4628      	mov	r0, r5
 8009066:	f000 ff85 	bl	8009f74 <_calloc_r>
 800906a:	69eb      	ldr	r3, [r5, #28]
 800906c:	60e0      	str	r0, [r4, #12]
 800906e:	68db      	ldr	r3, [r3, #12]
 8009070:	b90b      	cbnz	r3, 8009076 <_Balloc+0x46>
 8009072:	2000      	movs	r0, #0
 8009074:	bd70      	pop	{r4, r5, r6, pc}
 8009076:	f853 0026 	ldr.w	r0, [r3, r6, lsl #2]
 800907a:	b130      	cbz	r0, 800908a <_Balloc+0x5a>
 800907c:	6802      	ldr	r2, [r0, #0]
 800907e:	f843 2026 	str.w	r2, [r3, r6, lsl #2]
 8009082:	2300      	movs	r3, #0
 8009084:	e9c0 3303 	strd	r3, r3, [r0, #12]
 8009088:	e7f4      	b.n	8009074 <_Balloc+0x44>
 800908a:	2101      	movs	r1, #1
 800908c:	fa01 f406 	lsl.w	r4, r1, r6
 8009090:	1d62      	adds	r2, r4, #5
 8009092:	0092      	lsls	r2, r2, #2
 8009094:	4628      	mov	r0, r5
 8009096:	f000 ff6d 	bl	8009f74 <_calloc_r>
 800909a:	2800      	cmp	r0, #0
 800909c:	d0e9      	beq.n	8009072 <_Balloc+0x42>
 800909e:	e9c0 6401 	strd	r6, r4, [r0, #4]
 80090a2:	e7ee      	b.n	8009082 <_Balloc+0x52>
 80090a4:	0801e3e5 	.word	0x0801e3e5
 80090a8:	0801e465 	.word	0x0801e465

080090ac <_Bfree>:
 80090ac:	b570      	push	{r4, r5, r6, lr}
 80090ae:	69c6      	ldr	r6, [r0, #28]
 80090b0:	4605      	mov	r5, r0
 80090b2:	460c      	mov	r4, r1
 80090b4:	b976      	cbnz	r6, 80090d4 <_Bfree+0x28>
 80090b6:	2010      	movs	r0, #16
 80090b8:	f7ff ff04 	bl	8008ec4 <malloc>
 80090bc:	4602      	mov	r2, r0
 80090be:	61e8      	str	r0, [r5, #28]
 80090c0:	b920      	cbnz	r0, 80090cc <_Bfree+0x20>
 80090c2:	4b09      	ldr	r3, [pc, #36]	@ (80090e8 <_Bfree+0x3c>)
 80090c4:	4809      	ldr	r0, [pc, #36]	@ (80090ec <_Bfree+0x40>)
 80090c6:	218f      	movs	r1, #143	@ 0x8f
 80090c8:	f000 ff36 	bl	8009f38 <__assert_func>
 80090cc:	e9c0 6601 	strd	r6, r6, [r0, #4]
 80090d0:	6006      	str	r6, [r0, #0]
 80090d2:	60c6      	str	r6, [r0, #12]
 80090d4:	b13c      	cbz	r4, 80090e6 <_Bfree+0x3a>
 80090d6:	69eb      	ldr	r3, [r5, #28]
 80090d8:	6862      	ldr	r2, [r4, #4]
 80090da:	68db      	ldr	r3, [r3, #12]
 80090dc:	f853 1022 	ldr.w	r1, [r3, r2, lsl #2]
 80090e0:	6021      	str	r1, [r4, #0]
 80090e2:	f843 4022 	str.w	r4, [r3, r2, lsl #2]
 80090e6:	bd70      	pop	{r4, r5, r6, pc}
 80090e8:	0801e3e5 	.word	0x0801e3e5
 80090ec:	0801e465 	.word	0x0801e465

080090f0 <__multadd>:
 80090f0:	e92d 41f0 	stmdb	sp!, {r4, r5, r6, r7, r8, lr}
 80090f4:	690d      	ldr	r5, [r1, #16]
 80090f6:	4607      	mov	r7, r0
 80090f8:	460c      	mov	r4, r1
 80090fa:	461e      	mov	r6, r3
 80090fc:	f101 0c14 	add.w	ip, r1, #20
 8009100:	2000      	movs	r0, #0
 8009102:	f8dc 3000 	ldr.w	r3, [ip]
 8009106:	b299      	uxth	r1, r3
 8009108:	fb02 6101 	mla	r1, r2, r1, r6
 800910c:	0c1e      	lsrs	r6, r3, #16
 800910e:	0c0b      	lsrs	r3, r1, #16
 8009110:	fb02 3306 	mla	r3, r2, r6, r3
 8009114:	b289      	uxth	r1, r1
 8009116:	3001      	adds	r0, #1
 8009118:	eb01 4103 	add.w	r1, r1, r3, lsl #16
 800911c:	4285      	cmp	r5, r0
 800911e:	f84c 1b04 	str.w	r1, [ip], #4
 8009122:	ea4f 4613 	mov.w	r6, r3, lsr #16
 8009126:	dcec      	bgt.n	8009102 <__multadd+0x12>
 8009128:	b30e      	cbz	r6, 800916e <__multadd+0x7e>
 800912a:	68a3      	ldr	r3, [r4, #8]
 800912c:	42ab      	cmp	r3, r5
 800912e:	dc19      	bgt.n	8009164 <__multadd+0x74>
 8009130:	6861      	ldr	r1, [r4, #4]
 8009132:	4638      	mov	r0, r7
 8009134:	3101      	adds	r1, #1
 8009136:	f7ff ff7b 	bl	8009030 <_Balloc>
 800913a:	4680      	mov	r8, r0
 800913c:	b928      	cbnz	r0, 800914a <__multadd+0x5a>
 800913e:	4602      	mov	r2, r0
 8009140:	4b0c      	ldr	r3, [pc, #48]	@ (8009174 <__multadd+0x84>)
 8009142:	480d      	ldr	r0, [pc, #52]	@ (8009178 <__multadd+0x88>)
 8009144:	21ba      	movs	r1, #186	@ 0xba
 8009146:	f000 fef7 	bl	8009f38 <__assert_func>
 800914a:	6922      	ldr	r2, [r4, #16]
 800914c:	3202      	adds	r2, #2
 800914e:	f104 010c 	add.w	r1, r4, #12
 8009152:	0092      	lsls	r2, r2, #2
 8009154:	300c      	adds	r0, #12
 8009156:	f7fe fff8 	bl	800814a <memcpy>
 800915a:	4621      	mov	r1, r4
 800915c:	4638      	mov	r0, r7
 800915e:	f7ff ffa5 	bl	80090ac <_Bfree>
 8009162:	4644      	mov	r4, r8
 8009164:	eb04 0385 	add.w	r3, r4, r5, lsl #2
 8009168:	3501      	adds	r5, #1
 800916a:	615e      	str	r6, [r3, #20]
 800916c:	6125      	str	r5, [r4, #16]
 800916e:	4620      	mov	r0, r4
 8009170:	e8bd 81f0 	ldmia.w	sp!, {r4, r5, r6, r7, r8, pc}
 8009174:	0801e454 	.word	0x0801e454
 8009178:	0801e465 	.word	0x0801e465

0800917c <__hi0bits>:
 800917c:	f5b0 3f80 	cmp.w	r0, #65536	@ 0x10000
 8009180:	4603      	mov	r3, r0
 8009182:	bf36      	itet	cc
 8009184:	0403      	lslcc	r3, r0, #16
 8009186:	2000      	movcs	r0, #0
 8009188:	2010      	movcc	r0, #16
 800918a:	f1b3 7f80 	cmp.w	r3, #16777216	@ 0x1000000
 800918e:	bf3c      	itt	cc
 8009190:	021b      	lslcc	r3, r3, #8
 8009192:	3008      	addcc	r0, #8
 8009194:	f1b3 5f80 	cmp.w	r3, #268435456	@ 0x10000000
 8009198:	bf3c      	itt	cc
 800919a:	011b      	lslcc	r3, r3, #4
 800919c:	3004      	addcc	r0, #4
 800919e:	f1b3 4f80 	cmp.w	r3, #1073741824	@ 0x40000000
 80091a2:	bf3c      	itt	cc
 80091a4:	009b      	lslcc	r3, r3, #2
 80091a6:	3002      	addcc	r0, #2
 80091a8:	2b00      	cmp	r3, #0
 80091aa:	db05      	blt.n	80091b8 <__hi0bits+0x3c>
 80091ac:	f013 4f80 	tst.w	r3, #1073741824	@ 0x40000000
 80091b0:	f100 0001 	add.w	r0, r0, #1
 80091b4:	bf08      	it	eq
 80091b6:	2020      	moveq	r0, #32
 80091b8:	4770      	bx	lr

080091ba <__lo0bits>:
 80091ba:	6803      	ldr	r3, [r0, #0]
 80091bc:	4602      	mov	r2, r0
 80091be:	f013 0007 	ands.w	r0, r3, #7
 80091c2:	d00b      	beq.n	80091dc <__lo0bits+0x22>
 80091c4:	07d9      	lsls	r1, r3, #31
 80091c6:	d421      	bmi.n	800920c <__lo0bits+0x52>
 80091c8:	0798      	lsls	r0, r3, #30
 80091ca:	bf49      	itett	mi
 80091cc:	085b      	lsrmi	r3, r3, #1
 80091ce:	089b      	lsrpl	r3, r3, #2
 80091d0:	2001      	movmi	r0, #1
 80091d2:	6013      	strmi	r3, [r2, #0]
 80091d4:	bf5c      	itt	pl
 80091d6:	6013      	strpl	r3, [r2, #0]
 80091d8:	2002      	movpl	r0, #2
 80091da:	4770      	bx	lr
 80091dc:	b299      	uxth	r1, r3
 80091de:	b909      	cbnz	r1, 80091e4 <__lo0bits+0x2a>
 80091e0:	0c1b      	lsrs	r3, r3, #16
 80091e2:	2010      	movs	r0, #16
 80091e4:	b2d9      	uxtb	r1, r3
 80091e6:	b909      	cbnz	r1, 80091ec <__lo0bits+0x32>
 80091e8:	3008      	adds	r0, #8
 80091ea:	0a1b      	lsrs	r3, r3, #8
 80091ec:	0719      	lsls	r1, r3, #28
 80091ee:	bf04      	itt	eq
 80091f0:	091b      	lsreq	r3, r3, #4
 80091f2:	3004      	addeq	r0, #4
 80091f4:	0799      	lsls	r1, r3, #30
 80091f6:	bf04      	itt	eq
 80091f8:	089b      	lsreq	r3, r3, #2
 80091fa:	3002      	addeq	r0, #2
 80091fc:	07d9      	lsls	r1, r3, #31
 80091fe:	d403      	bmi.n	8009208 <__lo0bits+0x4e>
 8009200:	085b      	lsrs	r3, r3, #1
 8009202:	f100 0001 	add.w	r0, r0, #1
 8009206:	d003      	beq.n	8009210 <__lo0bits+0x56>
 8009208:	6013      	str	r3, [r2, #0]
 800920a:	4770      	bx	lr
 800920c:	2000      	movs	r0, #0
 800920e:	4770      	bx	lr
 8009210:	2020      	movs	r0, #32
 8009212:	4770      	bx	lr

08009214 <__i2b>:
 8009214:	b510      	push	{r4, lr}
 8009216:	460c      	mov	r4, r1
 8009218:	2101      	movs	r1, #1
 800921a:	f7ff ff09 	bl	8009030 <_Balloc>
 800921e:	4602      	mov	r2, r0
 8009220:	b928      	cbnz	r0, 800922e <__i2b+0x1a>
 8009222:	4b05      	ldr	r3, [pc, #20]	@ (8009238 <__i2b+0x24>)
 8009224:	4805      	ldr	r0, [pc, #20]	@ (800923c <__i2b+0x28>)
 8009226:	f240 1145 	movw	r1, #325	@ 0x145
 800922a:	f000 fe85 	bl	8009f38 <__assert_func>
 800922e:	2301      	movs	r3, #1
 8009230:	6144      	str	r4, [r0, #20]
 8009232:	6103      	str	r3, [r0, #16]
 8009234:	bd10      	pop	{r4, pc}
 8009236:	bf00      	nop
 8009238:	0801e454 	.word	0x0801e454
 800923c:	0801e465 	.word	0x0801e465

08009240 <__multiply>:
 8009240:	e92d 4ff0 	stmdb	sp!, {r4, r5, r6, r7, r8, r9, sl, fp, lr}
 8009244:	f8d1 9010 	ldr.w	r9, [r1, #16]
 8009248:	f8d2 a010 	ldr.w	sl, [r2, #16]
 800924c:	45d1      	cmp	r9, sl
 800924e:	b085      	sub	sp, #20
 8009250:	4688      	mov	r8, r1
 8009252:	4614      	mov	r4, r2
 8009254:	db04      	blt.n	8009260 <__multiply+0x20>
 8009256:	4653      	mov	r3, sl
 8009258:	460c      	mov	r4, r1
 800925a:	46ca      	mov	sl, r9
 800925c:	4690      	mov	r8, r2
 800925e:	4699      	mov	r9, r3
 8009260:	68a3      	ldr	r3, [r4, #8]
 8009262:	6861      	ldr	r1, [r4, #4]
 8009264:	eb0a 0609 	add.w	r6, sl, r9
 8009268:	42b3      	cmp	r3, r6
 800926a:	bfb8      	it	lt
 800926c:	3101      	addlt	r1, #1
 800926e:	f7ff fedf 	bl	8009030 <_Balloc>
 8009272:	b930      	cbnz	r0, 8009282 <__multiply+0x42>
 8009274:	4602      	mov	r2, r0
 8009276:	4b45      	ldr	r3, [pc, #276]	@ (800938c <__multiply+0x14c>)
 8009278:	4845      	ldr	r0, [pc, #276]	@ (8009390 <__multiply+0x150>)
 800927a:	f44f 71b1 	mov.w	r1, #354	@ 0x162
 800927e:	f000 fe5b 	bl	8009f38 <__assert_func>
 8009282:	f100 0514 	add.w	r5, r0, #20
 8009286:	eb05 0786 	add.w	r7, r5, r6, lsl #2
 800928a:	462b      	mov	r3, r5
 800928c:	2200      	movs	r2, #0
 800928e:	42bb      	cmp	r3, r7
 8009290:	d31f      	bcc.n	80092d2 <__multiply+0x92>
 8009292:	f104 0c14 	add.w	ip, r4, #20
 8009296:	f108 0114 	add.w	r1, r8, #20
 800929a:	eb0c 038a 	add.w	r3, ip, sl, lsl #2
 800929e:	eb01 0289 	add.w	r2, r1, r9, lsl #2
 80092a2:	9202      	str	r2, [sp, #8]
 80092a4:	1b1a      	subs	r2, r3, r4
 80092a6:	3a15      	subs	r2, #21
 80092a8:	f022 0203 	bic.w	r2, r2, #3
 80092ac:	3415      	adds	r4, #21
 80092ae:	429c      	cmp	r4, r3
 80092b0:	bf88      	it	hi
 80092b2:	2200      	movhi	r2, #0
 80092b4:	9201      	str	r2, [sp, #4]
 80092b6:	9a02      	ldr	r2, [sp, #8]
 80092b8:	9103      	str	r1, [sp, #12]
 80092ba:	428a      	cmp	r2, r1
 80092bc:	d80c      	bhi.n	80092d8 <__multiply+0x98>
 80092be:	2e00      	cmp	r6, #0
 80092c0:	dd03      	ble.n	80092ca <__multiply+0x8a>
 80092c2:	f857 3d04 	ldr.w	r3, [r7, #-4]!
 80092c6:	2b00      	cmp	r3, #0
 80092c8:	d05d      	beq.n	8009386 <__multiply+0x146>
 80092ca:	6106      	str	r6, [r0, #16]
 80092cc:	b005      	add	sp, #20
 80092ce:	e8bd 8ff0 	ldmia.w	sp!, {r4, r5, r6, r7, r8, r9, sl, fp, pc}
 80092d2:	f843 2b04 	str.w	r2, [r3], #4
 80092d6:	e7da      	b.n	800928e <__multiply+0x4e>
 80092d8:	f8b1 a000 	ldrh.w	sl, [r1]
 80092dc:	f1ba 0f00 	cmp.w	sl, #0
 80092e0:	d024      	beq.n	800932c <__multiply+0xec>
 80092e2:	46e0      	mov	r8, ip
 80092e4:	46a9      	mov	r9, r5
 80092e6:	f04f 0e00 	mov.w	lr, #0
 80092ea:	f858 2b04 	ldr.w	r2, [r8], #4
 80092ee:	f8d9 4000 	ldr.w	r4, [r9]
 80092f2:	fa1f fb82 	uxth.w	fp, r2
 80092f6:	b2a4      	uxth	r4, r4
 80092f8:	fb0a 440b 	mla	r4, sl, fp, r4
 80092fc:	ea4f 4b12 	mov.w	fp, r2, lsr #16
 8009300:	f8d9 2000 	ldr.w	r2, [r9]
 8009304:	4474      	add	r4, lr
 8009306:	ea4f 4e12 	mov.w	lr, r2, lsr #16
 800930a:	fb0a e20b 	mla	r2, sl, fp, lr
 800930e:	eb02 4214 	add.w	r2, r2, r4, lsr #16
 8009312:	b2a4      	uxth	r4, r4
 8009314:	ea44 4402 	orr.w	r4, r4, r2, lsl #16
 8009318:	4543      	cmp	r3, r8
 800931a:	f849 4b04 	str.w	r4, [r9], #4
 800931e:	ea4f 4e12 	mov.w	lr, r2, lsr #16
 8009322:	d8e2      	bhi.n	80092ea <__multiply+0xaa>
 8009324:	9a01      	ldr	r2, [sp, #4]
 8009326:	18aa      	adds	r2, r5, r2
 8009328:	f8c2 e004 	str.w	lr, [r2, #4]
 800932c:	9a03      	ldr	r2, [sp, #12]
 800932e:	f8b2 8002 	ldrh.w	r8, [r2, #2]
 8009332:	3104      	adds	r1, #4
 8009334:	f1b8 0f00 	cmp.w	r8, #0
 8009338:	d023      	beq.n	8009382 <__multiply+0x142>
 800933a:	682a      	ldr	r2, [r5, #0]
 800933c:	46e6      	mov	lr, ip
 800933e:	4691      	mov	r9, r2
 8009340:	46aa      	mov	sl, r5
 8009342:	f04f 0b00 	mov.w	fp, #0
 8009346:	f8be 4000 	ldrh.w	r4, [lr]
 800934a:	fb08 b404 	mla	r4, r8, r4, fp
 800934e:	eb04 4419 	add.w	r4, r4, r9, lsr #16
 8009352:	b292      	uxth	r2, r2
 8009354:	ea42 4204 	orr.w	r2, r2, r4, lsl #16
 8009358:	f84a 2b04 	str.w	r2, [sl], #4
 800935c:	f85e 2b04 	ldr.w	r2, [lr], #4
 8009360:	f8da 9000 	ldr.w	r9, [sl]
 8009364:	ea4f 4b12 	mov.w	fp, r2, lsr #16
 8009368:	fa1f f289 	uxth.w	r2, r9
 800936c:	fb08 220b 	mla	r2, r8, fp, r2
 8009370:	eb02 4214 	add.w	r2, r2, r4, lsr #16
 8009374:	4573      	cmp	r3, lr
 8009376:	ea4f 4b12 	mov.w	fp, r2, lsr #16
 800937a:	d8e4      	bhi.n	8009346 <__multiply+0x106>
 800937c:	9c01      	ldr	r4, [sp, #4]
 800937e:	192c      	adds	r4, r5, r4
 8009380:	6062      	str	r2, [r4, #4]
 8009382:	3504      	adds	r5, #4
 8009384:	e797      	b.n	80092b6 <__multiply+0x76>
 8009386:	3e01      	subs	r6, #1
 8009388:	e799      	b.n	80092be <__multiply+0x7e>
 800938a:	bf00      	nop
 800938c:	0801e454 	.word	0x0801e454
 8009390:	0801e465 	.word	0x0801e465

08009394 <__pow5mult>:
 8009394:	e92d 43f8 	stmdb	sp!, {r3, r4, r5, r6, r7, r8, r9, lr}
 8009398:	4617      	mov	r7, r2
 800939a:	f012 0203 	ands.w	r2, r2, #3
 800939e:	4680      	mov	r8, r0
 80093a0:	460d      	mov	r5, r1
 80093a2:	d007      	beq.n	80093b4 <__pow5mult+0x20>
 80093a4:	4c26      	ldr	r4, [pc, #152]	@ (8009440 <__pow5mult+0xac>)
 80093a6:	3a01      	subs	r2, #1
 80093a8:	2300      	movs	r3, #0
 80093aa:	f854 2022 	ldr.w	r2, [r4, r2, lsl #2]
 80093ae:	f7ff fe9f 	bl	80090f0 <__multadd>
 80093b2:	4605      	mov	r5, r0
 80093b4:	10bf      	asrs	r7, r7, #2
 80093b6:	d03f      	beq.n	8009438 <__pow5mult+0xa4>
 80093b8:	f8d8 401c 	ldr.w	r4, [r8, #28]
 80093bc:	b994      	cbnz	r4, 80093e4 <__pow5mult+0x50>
 80093be:	2010      	movs	r0, #16
 80093c0:	f7ff fd80 	bl	8008ec4 <malloc>
 80093c4:	4604      	mov	r4, r0
 80093c6:	f8c8 001c 	str.w	r0, [r8, #28]
 80093ca:	b930      	cbnz	r0, 80093da <__pow5mult+0x46>
 80093cc:	4602      	mov	r2, r0
 80093ce:	4b1d      	ldr	r3, [pc, #116]	@ (8009444 <__pow5mult+0xb0>)
 80093d0:	481d      	ldr	r0, [pc, #116]	@ (8009448 <__pow5mult+0xb4>)
 80093d2:	f240 11b3 	movw	r1, #435	@ 0x1b3
 80093d6:	f000 fdaf 	bl	8009f38 <__assert_func>
 80093da:	2300      	movs	r3, #0
 80093dc:	e9c0 3301 	strd	r3, r3, [r0, #4]
 80093e0:	6003      	str	r3, [r0, #0]
 80093e2:	60c3      	str	r3, [r0, #12]
 80093e4:	68a6      	ldr	r6, [r4, #8]
 80093e6:	b946      	cbnz	r6, 80093fa <__pow5mult+0x66>
 80093e8:	f240 2171 	movw	r1, #625	@ 0x271
 80093ec:	4640      	mov	r0, r8
 80093ee:	f7ff ff11 	bl	8009214 <__i2b>
 80093f2:	2300      	movs	r3, #0
 80093f4:	60a0      	str	r0, [r4, #8]
 80093f6:	4606      	mov	r6, r0
 80093f8:	6003      	str	r3, [r0, #0]
 80093fa:	462c      	mov	r4, r5
 80093fc:	f04f 0900 	mov.w	r9, #0
 8009400:	f007 0301 	and.w	r3, r7, #1
 8009404:	107f      	asrs	r7, r7, #1
 8009406:	b153      	cbz	r3, 800941e <__pow5mult+0x8a>
 8009408:	4629      	mov	r1, r5
 800940a:	4632      	mov	r2, r6
 800940c:	4640      	mov	r0, r8
 800940e:	f7ff ff17 	bl	8009240 <__multiply>
 8009412:	4621      	mov	r1, r4
 8009414:	4605      	mov	r5, r0
 8009416:	4640      	mov	r0, r8
 8009418:	f7ff fe48 	bl	80090ac <_Bfree>
 800941c:	b167      	cbz	r7, 8009438 <__pow5mult+0xa4>
 800941e:	6830      	ldr	r0, [r6, #0]
 8009420:	b938      	cbnz	r0, 8009432 <__pow5mult+0x9e>
 8009422:	4632      	mov	r2, r6
 8009424:	4631      	mov	r1, r6
 8009426:	4640      	mov	r0, r8
 8009428:	f7ff ff0a 	bl	8009240 <__multiply>
 800942c:	6030      	str	r0, [r6, #0]
 800942e:	f8c0 9000 	str.w	r9, [r0]
 8009432:	4606      	mov	r6, r0
 8009434:	462c      	mov	r4, r5
 8009436:	e7e3      	b.n	8009400 <__pow5mult+0x6c>
 8009438:	4628      	mov	r0, r5
 800943a:	e8bd 83f8 	ldmia.w	sp!, {r3, r4, r5, r6, r7, r8, r9, pc}
 800943e:	bf00      	nop
 8009440:	0801e518 	.word	0x0801e518
 8009444:	0801e3e5 	.word	0x0801e3e5
 8009448:	0801e465 	.word	0x0801e465

0800944c <__lshift>:
 800944c:	e92d 4ff8 	stmdb	sp!, {r3, r4, r5, r6, r7, r8, r9, sl, fp, lr}
 8009450:	460c      	mov	r4, r1
 8009452:	6849      	ldr	r1, [r1, #4]
 8009454:	6923      	ldr	r3, [r4, #16]
 8009456:	eb03 1862 	add.w	r8, r3, r2, asr #5
 800945a:	68a3      	ldr	r3, [r4, #8]
 800945c:	4607      	mov	r7, r0
 800945e:	4615      	mov	r5, r2
 8009460:	ea4f 1a62 	mov.w	sl, r2, asr #5
 8009464:	f108 0901 	add.w	r9, r8, #1
 8009468:	454b      	cmp	r3, r9
 800946a:	db0b      	blt.n	8009484 <__lshift+0x38>
 800946c:	4638      	mov	r0, r7
 800946e:	f7ff fddf 	bl	8009030 <_Balloc>
 8009472:	4606      	mov	r6, r0
 8009474:	b948      	cbnz	r0, 800948a <__lshift+0x3e>
 8009476:	4602      	mov	r2, r0
 8009478:	4b29      	ldr	r3, [pc, #164]	@ (8009520 <__lshift+0xd4>)
 800947a:	482a      	ldr	r0, [pc, #168]	@ (8009524 <__lshift+0xd8>)
 800947c:	f44f 71ef 	mov.w	r1, #478	@ 0x1de
 8009480:	f000 fd5a 	bl	8009f38 <__assert_func>
 8009484:	3101      	adds	r1, #1
 8009486:	005b      	lsls	r3, r3, #1
 8009488:	e7ee      	b.n	8009468 <__lshift+0x1c>
 800948a:	2300      	movs	r3, #0
 800948c:	f100 0c14 	add.w	ip, r0, #20
 8009490:	f100 0210 	add.w	r2, r0, #16
 8009494:	4619      	mov	r1, r3
 8009496:	4553      	cmp	r3, sl
 8009498:	db35      	blt.n	8009506 <__lshift+0xba>
 800949a:	6922      	ldr	r2, [r4, #16]
 800949c:	ea2a 7aea 	bic.w	sl, sl, sl, asr #31
 80094a0:	eb0c 0c8a 	add.w	ip, ip, sl, lsl #2
 80094a4:	f104 0314 	add.w	r3, r4, #20
 80094a8:	f015 0e1f 	ands.w	lr, r5, #31
 80094ac:	4661      	mov	r1, ip
 80094ae:	eb03 0282 	add.w	r2, r3, r2, lsl #2
 80094b2:	d02c      	beq.n	800950e <__lshift+0xc2>
 80094b4:	f1ce 0a20 	rsb	sl, lr, #32
 80094b8:	2500      	movs	r5, #0
 80094ba:	6818      	ldr	r0, [r3, #0]
 80094bc:	468b      	mov	fp, r1
 80094be:	fa00 f00e 	lsl.w	r0, r0, lr
 80094c2:	4328      	orrs	r0, r5
 80094c4:	f8cb 0000 	str.w	r0, [fp]
 80094c8:	f853 5b04 	ldr.w	r5, [r3], #4
 80094cc:	429a      	cmp	r2, r3
 80094ce:	f101 0104 	add.w	r1, r1, #4
 80094d2:	fa25 f50a 	lsr.w	r5, r5, sl
 80094d6:	d8f0      	bhi.n	80094ba <__lshift+0x6e>
 80094d8:	1b13      	subs	r3, r2, r4
 80094da:	3b15      	subs	r3, #21
 80094dc:	f023 0303 	bic.w	r3, r3, #3
 80094e0:	f104 0115 	add.w	r1, r4, #21
 80094e4:	428a      	cmp	r2, r1
 80094e6:	bf38      	it	cc
 80094e8:	2300      	movcc	r3, #0
 80094ea:	449c      	add	ip, r3
 80094ec:	f8cc 5004 	str.w	r5, [ip, #4]
 80094f0:	b905      	cbnz	r5, 80094f4 <__lshift+0xa8>
 80094f2:	46c1      	mov	r9, r8
 80094f4:	4638      	mov	r0, r7
 80094f6:	f8c6 9010 	str.w	r9, [r6, #16]
 80094fa:	4621      	mov	r1, r4
 80094fc:	f7ff fdd6 	bl	80090ac <_Bfree>
 8009500:	4630      	mov	r0, r6
 8009502:	e8bd 8ff8 	ldmia.w	sp!, {r3, r4, r5, r6, r7, r8, r9, sl, fp, pc}
 8009506:	f842 1f04 	str.w	r1, [r2, #4]!
 800950a:	3301      	adds	r3, #1
 800950c:	e7c3      	b.n	8009496 <__lshift+0x4a>
 800950e:	f853 5b04 	ldr.w	r5, [r3], #4
 8009512:	600d      	str	r5, [r1, #0]
 8009514:	429a      	cmp	r2, r3
 8009516:	f101 0104 	add.w	r1, r1, #4
 800951a:	d8f8      	bhi.n	800950e <__lshift+0xc2>
 800951c:	e7e9      	b.n	80094f2 <__lshift+0xa6>
 800951e:	bf00      	nop
 8009520:	0801e454 	.word	0x0801e454
 8009524:	0801e465 	.word	0x0801e465

08009528 <__mcmp>:
 8009528:	690a      	ldr	r2, [r1, #16]
 800952a:	4603      	mov	r3, r0
 800952c:	6900      	ldr	r0, [r0, #16]
 800952e:	1a80      	subs	r0, r0, r2
 8009530:	b530      	push	{r4, r5, lr}
 8009532:	d10e      	bne.n	8009552 <__mcmp+0x2a>
 8009534:	3314      	adds	r3, #20
 8009536:	3114      	adds	r1, #20
 8009538:	eb03 0482 	add.w	r4, r3, r2, lsl #2
 800953c:	eb01 0182 	add.w	r1, r1, r2, lsl #2
 8009540:	f854 5d04 	ldr.w	r5, [r4, #-4]!
 8009544:	f851 2d04 	ldr.w	r2, [r1, #-4]!
 8009548:	4295      	cmp	r5, r2
 800954a:	d003      	beq.n	8009554 <__mcmp+0x2c>
 800954c:	d205      	bcs.n	800955a <__mcmp+0x32>
 800954e:	f04f 30ff 	mov.w	r0, #4294967295
 8009552:	bd30      	pop	{r4, r5, pc}
 8009554:	42a3      	cmp	r3, r4
 8009556:	d3f3      	bcc.n	8009540 <__mcmp+0x18>
 8009558:	e7fb      	b.n	8009552 <__mcmp+0x2a>
 800955a:	2001      	movs	r0, #1
 800955c:	e7f9      	b.n	8009552 <__mcmp+0x2a>
	...

08009560 <__mdiff>:
 8009560:	e92d 4ff7 	stmdb	sp!, {r0, r1, r2, r4, r5, r6, r7, r8, r9, sl, fp, lr}
 8009564:	468a      	mov	sl, r1
 8009566:	4606      	mov	r6, r0
 8009568:	4611      	mov	r1, r2
 800956a:	4650      	mov	r0, sl
 800956c:	4614      	mov	r4, r2
 800956e:	f7ff ffdb 	bl	8009528 <__mcmp>
 8009572:	1e05      	subs	r5, r0, #0
 8009574:	d112      	bne.n	800959c <__mdiff+0x3c>
 8009576:	4629      	mov	r1, r5
 8009578:	4630      	mov	r0, r6
 800957a:	f7ff fd59 	bl	8009030 <_Balloc>
 800957e:	4602      	mov	r2, r0
 8009580:	b928      	cbnz	r0, 800958e <__mdiff+0x2e>
 8009582:	4b41      	ldr	r3, [pc, #260]	@ (8009688 <__mdiff+0x128>)
 8009584:	f240 2137 	movw	r1, #567	@ 0x237
 8009588:	4840      	ldr	r0, [pc, #256]	@ (800968c <__mdiff+0x12c>)
 800958a:	f000 fcd5 	bl	8009f38 <__assert_func>
 800958e:	2301      	movs	r3, #1
 8009590:	e9c0 3504 	strd	r3, r5, [r0, #16]
 8009594:	4610      	mov	r0, r2
 8009596:	b003      	add	sp, #12
 8009598:	e8bd 8ff0 	ldmia.w	sp!, {r4, r5, r6, r7, r8, r9, sl, fp, pc}
 800959c:	bfbc      	itt	lt
 800959e:	4653      	movlt	r3, sl
 80095a0:	46a2      	movlt	sl, r4
 80095a2:	4630      	mov	r0, r6
 80095a4:	f8da 1004 	ldr.w	r1, [sl, #4]
 80095a8:	bfba      	itte	lt
 80095aa:	461c      	movlt	r4, r3
 80095ac:	2501      	movlt	r5, #1
 80095ae:	2500      	movge	r5, #0
 80095b0:	f7ff fd3e 	bl	8009030 <_Balloc>
 80095b4:	4602      	mov	r2, r0
 80095b6:	b918      	cbnz	r0, 80095c0 <__mdiff+0x60>
 80095b8:	4b33      	ldr	r3, [pc, #204]	@ (8009688 <__mdiff+0x128>)
 80095ba:	f240 2145 	movw	r1, #581	@ 0x245
 80095be:	e7e3      	b.n	8009588 <__mdiff+0x28>
 80095c0:	f8da 7010 	ldr.w	r7, [sl, #16]
 80095c4:	6926      	ldr	r6, [r4, #16]
 80095c6:	60c5      	str	r5, [r0, #12]
 80095c8:	f10a 0914 	add.w	r9, sl, #20
 80095cc:	f104 0e14 	add.w	lr, r4, #20
 80095d0:	f100 0514 	add.w	r5, r0, #20
 80095d4:	f10a 0310 	add.w	r3, sl, #16
 80095d8:	eb09 0887 	add.w	r8, r9, r7, lsl #2
 80095dc:	eb0e 0686 	add.w	r6, lr, r6, lsl #2
 80095e0:	9301      	str	r3, [sp, #4]
 80095e2:	46ab      	mov	fp, r5
 80095e4:	f04f 0c00 	mov.w	ip, #0
 80095e8:	9b01      	ldr	r3, [sp, #4]
 80095ea:	f85e 0b04 	ldr.w	r0, [lr], #4
 80095ee:	f853 af04 	ldr.w	sl, [r3, #4]!
 80095f2:	9301      	str	r3, [sp, #4]
 80095f4:	fa1f f38a 	uxth.w	r3, sl
 80095f8:	4619      	mov	r1, r3
 80095fa:	b283      	uxth	r3, r0
 80095fc:	1acb      	subs	r3, r1, r3
 80095fe:	0c00      	lsrs	r0, r0, #16
 8009600:	4463      	add	r3, ip
 8009602:	ebc0 401a 	rsb	r0, r0, sl, lsr #16
 8009606:	eb00 4023 	add.w	r0, r0, r3, asr #16
 800960a:	b29b      	uxth	r3, r3
 800960c:	ea43 4300 	orr.w	r3, r3, r0, lsl #16
 8009610:	4576      	cmp	r6, lr
 8009612:	f84b 3b04 	str.w	r3, [fp], #4
 8009616:	ea4f 4c20 	mov.w	ip, r0, asr #16
 800961a:	d8e5      	bhi.n	80095e8 <__mdiff+0x88>
 800961c:	1b33      	subs	r3, r6, r4
 800961e:	3b15      	subs	r3, #21
 8009620:	3415      	adds	r4, #21
 8009622:	f023 0303 	bic.w	r3, r3, #3
 8009626:	42a6      	cmp	r6, r4
 8009628:	bf38      	it	cc
 800962a:	2300      	movcc	r3, #0
 800962c:	18e8      	adds	r0, r5, r3
 800962e:	444b      	add	r3, r9
 8009630:	1d1c      	adds	r4, r3, #4
 8009632:	3004      	adds	r0, #4
 8009634:	4626      	mov	r6, r4
 8009636:	eba5 0509 	sub.w	r5, r5, r9
 800963a:	4546      	cmp	r6, r8
 800963c:	eb06 0e05 	add.w	lr, r6, r5
 8009640:	d30e      	bcc.n	8009660 <__mdiff+0x100>
 8009642:	f108 0103 	add.w	r1, r8, #3
 8009646:	1b09      	subs	r1, r1, r4
 8009648:	f021 0103 	bic.w	r1, r1, #3
 800964c:	3301      	adds	r3, #1
 800964e:	4598      	cmp	r8, r3
 8009650:	bf38      	it	cc
 8009652:	2100      	movcc	r1, #0
 8009654:	4401      	add	r1, r0
 8009656:	f851 3d04 	ldr.w	r3, [r1, #-4]!
 800965a:	b19b      	cbz	r3, 8009684 <__mdiff+0x124>
 800965c:	6117      	str	r7, [r2, #16]
 800965e:	e799      	b.n	8009594 <__mdiff+0x34>
 8009660:	f856 1b04 	ldr.w	r1, [r6], #4
 8009664:	46e2      	mov	sl, ip
 8009666:	ea4f 4911 	mov.w	r9, r1, lsr #16
 800966a:	fa1c fc81 	uxtah	ip, ip, r1
 800966e:	4451      	add	r1, sl
 8009670:	eb09 492c 	add.w	r9, r9, ip, asr #16
 8009674:	b289      	uxth	r1, r1
 8009676:	ea41 4109 	orr.w	r1, r1, r9, lsl #16
 800967a:	ea4f 4c29 	mov.w	ip, r9, asr #16
 800967e:	f8ce 1000 	str.w	r1, [lr]
 8009682:	e7da      	b.n	800963a <__mdiff+0xda>
 8009684:	3f01      	subs	r7, #1
 8009686:	e7e6      	b.n	8009656 <__mdiff+0xf6>
 8009688:	0801e454 	.word	0x0801e454
 800968c:	0801e465 	.word	0x0801e465

08009690 <__d2b>:
 8009690:	e92d 43f7 	stmdb	sp!, {r0, r1, r2, r4, r5, r6, r7, r8, r9, lr}
 8009694:	460f      	mov	r7, r1
 8009696:	2101      	movs	r1, #1
 8009698:	ec59 8b10 	vmov	r8, r9, d0
 800969c:	4616      	mov	r6, r2
 800969e:	f7ff fcc7 	bl	8009030 <_Balloc>
 80096a2:	4604      	mov	r4, r0
 80096a4:	b930      	cbnz	r0, 80096b4 <__d2b+0x24>
 80096a6:	4602      	mov	r2, r0
 80096a8:	4b23      	ldr	r3, [pc, #140]	@ (8009738 <__d2b+0xa8>)
 80096aa:	4824      	ldr	r0, [pc, #144]	@ (800973c <__d2b+0xac>)
 80096ac:	f240 310f 	movw	r1, #783	@ 0x30f
 80096b0:	f000 fc42 	bl	8009f38 <__assert_func>
 80096b4:	f3c9 550a 	ubfx	r5, r9, #20, #11
 80096b8:	f3c9 0313 	ubfx	r3, r9, #0, #20
 80096bc:	b10d      	cbz	r5, 80096c2 <__d2b+0x32>
 80096be:	f443 1380 	orr.w	r3, r3, #1048576	@ 0x100000
 80096c2:	9301      	str	r3, [sp, #4]
 80096c4:	f1b8 0300 	subs.w	r3, r8, #0
 80096c8:	d023      	beq.n	8009712 <__d2b+0x82>
 80096ca:	4668      	mov	r0, sp
 80096cc:	9300      	str	r3, [sp, #0]
 80096ce:	f7ff fd74 	bl	80091ba <__lo0bits>
 80096d2:	9900      	ldr	r1, [sp, #0]
 80096d4:	b1d8      	cbz	r0, 800970e <__d2b+0x7e>
 80096d6:	9a01      	ldr	r2, [sp, #4]
 80096d8:	f1c0 0320 	rsb	r3, r0, #32
 80096dc:	fa02 f303 	lsl.w	r3, r2, r3
 80096e0:	430b      	orrs	r3, r1
 80096e2:	40c2      	lsrs	r2, r0
 80096e4:	6163      	str	r3, [r4, #20]
 80096e6:	9201      	str	r2, [sp, #4]
 80096e8:	9b01      	ldr	r3, [sp, #4]
 80096ea:	61a3      	str	r3, [r4, #24]
 80096ec:	2b00      	cmp	r3, #0
 80096ee:	bf0c      	ite	eq
 80096f0:	2201      	moveq	r2, #1
 80096f2:	2202      	movne	r2, #2
 80096f4:	6122      	str	r2, [r4, #16]
 80096f6:	b1a5      	cbz	r5, 8009722 <__d2b+0x92>
 80096f8:	f2a5 4533 	subw	r5, r5, #1075	@ 0x433
 80096fc:	4405      	add	r5, r0
 80096fe:	603d      	str	r5, [r7, #0]
 8009700:	f1c0 0035 	rsb	r0, r0, #53	@ 0x35
 8009704:	6030      	str	r0, [r6, #0]
 8009706:	4620      	mov	r0, r4
 8009708:	b003      	add	sp, #12
 800970a:	e8bd 83f0 	ldmia.w	sp!, {r4, r5, r6, r7, r8, r9, pc}
 800970e:	6161      	str	r1, [r4, #20]
 8009710:	e7ea      	b.n	80096e8 <__d2b+0x58>
 8009712:	a801      	add	r0, sp, #4
 8009714:	f7ff fd51 	bl	80091ba <__lo0bits>
 8009718:	9b01      	ldr	r3, [sp, #4]
 800971a:	6163      	str	r3, [r4, #20]
 800971c:	3020      	adds	r0, #32
 800971e:	2201      	movs	r2, #1
 8009720:	e7e8      	b.n	80096f4 <__d2b+0x64>
 8009722:	eb04 0382 	add.w	r3, r4, r2, lsl #2
 8009726:	f2a0 4032 	subw	r0, r0, #1074	@ 0x432
 800972a:	6038      	str	r0, [r7, #0]
 800972c:	6918      	ldr	r0, [r3, #16]
 800972e:	f7ff fd25 	bl	800917c <__hi0bits>
 8009732:	ebc0 1042 	rsb	r0, r0, r2, lsl #5
 8009736:	e7e5      	b.n	8009704 <__d2b+0x74>
 8009738:	0801e454 	.word	0x0801e454
 800973c:	0801e465 	.word	0x0801e465

08009740 <__ssputs_r>:
 8009740:	e92d 47f0 	stmdb	sp!, {r4, r5, r6, r7, r8, r9, sl, lr}
 8009744:	688e      	ldr	r6, [r1, #8]
 8009746:	461f      	mov	r7, r3
 8009748:	42be      	cmp	r6, r7
 800974a:	4682      	mov	sl, r0
 800974c:	460c      	mov	r4, r1
 800974e:	4690      	mov	r8, r2
 8009750:	4633      	mov	r3, r6
 8009752:	d853      	bhi.n	80097fc <__ssputs_r+0xbc>
 8009754:	f9b1 000c 	ldrsh.w	r0, [r1, #12]
 8009758:	f410 6f90 	tst.w	r0, #1152	@ 0x480
 800975c:	d02b      	beq.n	80097b6 <__ssputs_r+0x76>
 800975e:	6965      	ldr	r5, [r4, #20]
 8009760:	6823      	ldr	r3, [r4, #0]
 8009762:	6909      	ldr	r1, [r1, #16]
 8009764:	eb05 0545 	add.w	r5, r5, r5, lsl #1
 8009768:	eba3 0901 	sub.w	r9, r3, r1
 800976c:	eb05 75d5 	add.w	r5, r5, r5, lsr #31
 8009770:	1c7b      	adds	r3, r7, #1
 8009772:	106d      	asrs	r5, r5, #1
 8009774:	444b      	add	r3, r9
 8009776:	42ab      	cmp	r3, r5
 8009778:	462a      	mov	r2, r5
 800977a:	bf84      	itt	hi
 800977c:	461d      	movhi	r5, r3
 800977e:	462a      	movhi	r2, r5
 8009780:	0543      	lsls	r3, r0, #21
 8009782:	d527      	bpl.n	80097d4 <__ssputs_r+0x94>
 8009784:	4611      	mov	r1, r2
 8009786:	4650      	mov	r0, sl
 8009788:	f7ff fbc6 	bl	8008f18 <_malloc_r>
 800978c:	4606      	mov	r6, r0
 800978e:	b358      	cbz	r0, 80097e8 <__ssputs_r+0xa8>
 8009790:	6921      	ldr	r1, [r4, #16]
 8009792:	464a      	mov	r2, r9
 8009794:	f7fe fcd9 	bl	800814a <memcpy>
 8009798:	89a3      	ldrh	r3, [r4, #12]
 800979a:	f423 6390 	bic.w	r3, r3, #1152	@ 0x480
 800979e:	f043 0380 	orr.w	r3, r3, #128	@ 0x80
 80097a2:	81a3      	strh	r3, [r4, #12]
 80097a4:	6126      	str	r6, [r4, #16]
 80097a6:	6165      	str	r5, [r4, #20]
 80097a8:	444e      	add	r6, r9
 80097aa:	eba5 0509 	sub.w	r5, r5, r9
 80097ae:	6026      	str	r6, [r4, #0]
 80097b0:	60a5      	str	r5, [r4, #8]
 80097b2:	463e      	mov	r6, r7
 80097b4:	463b      	mov	r3, r7
 80097b6:	461f      	mov	r7, r3
 80097b8:	6820      	ldr	r0, [r4, #0]
 80097ba:	463a      	mov	r2, r7
 80097bc:	4641      	mov	r1, r8
 80097be:	f000 fb91 	bl	8009ee4 <memmove>
 80097c2:	68a3      	ldr	r3, [r4, #8]
 80097c4:	1b9b      	subs	r3, r3, r6
 80097c6:	60a3      	str	r3, [r4, #8]
 80097c8:	6823      	ldr	r3, [r4, #0]
 80097ca:	443b      	add	r3, r7
 80097cc:	6023      	str	r3, [r4, #0]
 80097ce:	2000      	movs	r0, #0
 80097d0:	e8bd 87f0 	ldmia.w	sp!, {r4, r5, r6, r7, r8, r9, sl, pc}
 80097d4:	4650      	mov	r0, sl
 80097d6:	f000 fbf3 	bl	8009fc0 <_realloc_r>
 80097da:	4606      	mov	r6, r0
 80097dc:	2800      	cmp	r0, #0
 80097de:	d1e1      	bne.n	80097a4 <__ssputs_r+0x64>
 80097e0:	6921      	ldr	r1, [r4, #16]
 80097e2:	4650      	mov	r0, sl
 80097e4:	f7ff fb24 	bl	8008e30 <_free_r>
 80097e8:	230c      	movs	r3, #12
 80097ea:	f8ca 3000 	str.w	r3, [sl]
 80097ee:	89a3      	ldrh	r3, [r4, #12]
 80097f0:	f043 0340 	orr.w	r3, r3, #64	@ 0x40
 80097f4:	81a3      	strh	r3, [r4, #12]
 80097f6:	f04f 30ff 	mov.w	r0, #4294967295
 80097fa:	e7e9      	b.n	80097d0 <__ssputs_r+0x90>
 80097fc:	463e      	mov	r6, r7
 80097fe:	e7db      	b.n	80097b8 <__ssputs_r+0x78>

08009800 <_svfiprintf_r>:
 8009800:	e92d 47f0 	stmdb	sp!, {r4, r5, r6, r7, r8, r9, sl, lr}
 8009804:	461f      	mov	r7, r3
 8009806:	898b      	ldrh	r3, [r1, #12]
 8009808:	061b      	lsls	r3, r3, #24
 800980a:	b09c      	sub	sp, #112	@ 0x70
 800980c:	4606      	mov	r6, r0
 800980e:	460d      	mov	r5, r1
 8009810:	4614      	mov	r4, r2
 8009812:	d510      	bpl.n	8009836 <_svfiprintf_r+0x36>
 8009814:	690b      	ldr	r3, [r1, #16]
 8009816:	b973      	cbnz	r3, 8009836 <_svfiprintf_r+0x36>
 8009818:	2140      	movs	r1, #64	@ 0x40
 800981a:	f7ff fb7d 	bl	8008f18 <_malloc_r>
 800981e:	6028      	str	r0, [r5, #0]
 8009820:	6128      	str	r0, [r5, #16]
 8009822:	b930      	cbnz	r0, 8009832 <_svfiprintf_r+0x32>
 8009824:	230c      	movs	r3, #12
 8009826:	6033      	str	r3, [r6, #0]
 8009828:	f04f 30ff 	mov.w	r0, #4294967295
 800982c:	b01c      	add	sp, #112	@ 0x70
 800982e:	e8bd 87f0 	ldmia.w	sp!, {r4, r5, r6, r7, r8, r9, sl, pc}
 8009832:	2340      	movs	r3, #64	@ 0x40
 8009834:	616b      	str	r3, [r5, #20]
 8009836:	2300      	movs	r3, #0
 8009838:	9309      	str	r3, [sp, #36]	@ 0x24
 800983a:	2320      	movs	r3, #32
 800983c:	f88d 3029 	strb.w	r3, [sp, #41]	@ 0x29
 8009840:	9703      	str	r7, [sp, #12]
 8009842:	2330      	movs	r3, #48	@ 0x30
 8009844:	4f65      	ldr	r7, [pc, #404]	@ (80099dc <_svfiprintf_r+0x1dc>)
 8009846:	f88d 302a 	strb.w	r3, [sp, #42]	@ 0x2a
 800984a:	f04f 0801 	mov.w	r8, #1
 800984e:	4623      	mov	r3, r4
 8009850:	4699      	mov	r9, r3
 8009852:	f813 2b01 	ldrb.w	r2, [r3], #1
 8009856:	b10a      	cbz	r2, 800985c <_svfiprintf_r+0x5c>
 8009858:	2a25      	cmp	r2, #37	@ 0x25
 800985a:	d1f9      	bne.n	8009850 <_svfiprintf_r+0x50>
 800985c:	ebb9 0a04 	subs.w	sl, r9, r4
 8009860:	d00b      	beq.n	800987a <_svfiprintf_r+0x7a>
 8009862:	4653      	mov	r3, sl
 8009864:	4622      	mov	r2, r4
 8009866:	4629      	mov	r1, r5
 8009868:	4630      	mov	r0, r6
 800986a:	f7ff ff69 	bl	8009740 <__ssputs_r>
 800986e:	3001      	adds	r0, #1
 8009870:	f000 80a4 	beq.w	80099bc <_svfiprintf_r+0x1bc>
 8009874:	9a09      	ldr	r2, [sp, #36]	@ 0x24
 8009876:	4452      	add	r2, sl
 8009878:	9209      	str	r2, [sp, #36]	@ 0x24
 800987a:	f899 3000 	ldrb.w	r3, [r9]
 800987e:	2b00      	cmp	r3, #0
 8009880:	f000 809c 	beq.w	80099bc <_svfiprintf_r+0x1bc>
 8009884:	2300      	movs	r3, #0
 8009886:	f04f 32ff 	mov.w	r2, #4294967295
 800988a:	e9cd 2305 	strd	r2, r3, [sp, #20]
 800988e:	f109 0901 	add.w	r9, r9, #1
 8009892:	9304      	str	r3, [sp, #16]
 8009894:	9307      	str	r3, [sp, #28]
 8009896:	f88d 3053 	strb.w	r3, [sp, #83]	@ 0x53
 800989a:	931a      	str	r3, [sp, #104]	@ 0x68
 800989c:	464c      	mov	r4, r9
 800989e:	484f      	ldr	r0, [pc, #316]	@ (80099dc <_svfiprintf_r+0x1dc>)
 80098a0:	f814 1b01 	ldrb.w	r1, [r4], #1
 80098a4:	2205      	movs	r2, #5
 80098a6:	f7f6 fc9b 	bl	80001e0 <memchr>
 80098aa:	9b04      	ldr	r3, [sp, #16]
 80098ac:	b9d0      	cbnz	r0, 80098e4 <_svfiprintf_r+0xe4>
 80098ae:	06d8      	lsls	r0, r3, #27
 80098b0:	bf44      	itt	mi
 80098b2:	2220      	movmi	r2, #32
 80098b4:	f88d 2053 	strbmi.w	r2, [sp, #83]	@ 0x53
 80098b8:	0719      	lsls	r1, r3, #28
 80098ba:	bf44      	itt	mi
 80098bc:	222b      	movmi	r2, #43	@ 0x2b
 80098be:	f88d 2053 	strbmi.w	r2, [sp, #83]	@ 0x53
 80098c2:	f899 2000 	ldrb.w	r2, [r9]
 80098c6:	2a2a      	cmp	r2, #42	@ 0x2a
 80098c8:	d013      	beq.n	80098f2 <_svfiprintf_r+0xf2>
 80098ca:	9a07      	ldr	r2, [sp, #28]
 80098cc:	464c      	mov	r4, r9
 80098ce:	2000      	movs	r0, #0
 80098d0:	f04f 0c0a 	mov.w	ip, #10
 80098d4:	4621      	mov	r1, r4
 80098d6:	f811 3b01 	ldrb.w	r3, [r1], #1
 80098da:	3b30      	subs	r3, #48	@ 0x30
 80098dc:	2b09      	cmp	r3, #9
 80098de:	d949      	bls.n	8009974 <_svfiprintf_r+0x174>
 80098e0:	b968      	cbnz	r0, 80098fe <_svfiprintf_r+0xfe>
 80098e2:	e013      	b.n	800990c <_svfiprintf_r+0x10c>
 80098e4:	1bc0      	subs	r0, r0, r7
 80098e6:	fa08 f000 	lsl.w	r0, r8, r0
 80098ea:	4318      	orrs	r0, r3
 80098ec:	9004      	str	r0, [sp, #16]
 80098ee:	46a1      	mov	r9, r4
 80098f0:	e7d4      	b.n	800989c <_svfiprintf_r+0x9c>
 80098f2:	9a03      	ldr	r2, [sp, #12]
 80098f4:	1d11      	adds	r1, r2, #4
 80098f6:	6812      	ldr	r2, [r2, #0]
 80098f8:	9103      	str	r1, [sp, #12]
 80098fa:	2a00      	cmp	r2, #0
 80098fc:	db01      	blt.n	8009902 <_svfiprintf_r+0x102>
 80098fe:	9207      	str	r2, [sp, #28]
 8009900:	e004      	b.n	800990c <_svfiprintf_r+0x10c>
 8009902:	4252      	negs	r2, r2
 8009904:	f043 0302 	orr.w	r3, r3, #2
 8009908:	9207      	str	r2, [sp, #28]
 800990a:	9304      	str	r3, [sp, #16]
 800990c:	7823      	ldrb	r3, [r4, #0]
 800990e:	2b2e      	cmp	r3, #46	@ 0x2e
 8009910:	d10a      	bne.n	8009928 <_svfiprintf_r+0x128>
 8009912:	7863      	ldrb	r3, [r4, #1]
 8009914:	2b2a      	cmp	r3, #42	@ 0x2a
 8009916:	d132      	bne.n	800997e <_svfiprintf_r+0x17e>
 8009918:	9b03      	ldr	r3, [sp, #12]
 800991a:	1d1a      	adds	r2, r3, #4
 800991c:	681b      	ldr	r3, [r3, #0]
 800991e:	9203      	str	r2, [sp, #12]
 8009920:	ea43 73e3 	orr.w	r3, r3, r3, asr #31
 8009924:	3402      	adds	r4, #2
 8009926:	9305      	str	r3, [sp, #20]
 8009928:	f8df 90c0 	ldr.w	r9, [pc, #192]	@ 80099ec <_svfiprintf_r+0x1ec>
 800992c:	7821      	ldrb	r1, [r4, #0]
 800992e:	2203      	movs	r2, #3
 8009930:	4648      	mov	r0, r9
 8009932:	f7f6 fc55 	bl	80001e0 <memchr>
 8009936:	b138      	cbz	r0, 8009948 <_svfiprintf_r+0x148>
 8009938:	9b04      	ldr	r3, [sp, #16]
 800993a:	eba0 0009 	sub.w	r0, r0, r9
 800993e:	2240      	movs	r2, #64	@ 0x40
 8009940:	4082      	lsls	r2, r0
 8009942:	4313      	orrs	r3, r2
 8009944:	3401      	adds	r4, #1
 8009946:	9304      	str	r3, [sp, #16]
 8009948:	f814 1b01 	ldrb.w	r1, [r4], #1
 800994c:	4824      	ldr	r0, [pc, #144]	@ (80099e0 <_svfiprintf_r+0x1e0>)
 800994e:	f88d 1028 	strb.w	r1, [sp, #40]	@ 0x28
 8009952:	2206      	movs	r2, #6
 8009954:	f7f6 fc44 	bl	80001e0 <memchr>
 8009958:	2800      	cmp	r0, #0
 800995a:	d035      	beq.n	80099c8 <_svfiprintf_r+0x1c8>
 800995c:	4821      	ldr	r0, [pc, #132]	@ (80099e4 <_svfiprintf_r+0x1e4>)
 800995e:	bb18      	cbnz	r0, 80099a8 <_svfiprintf_r+0x1a8>
 8009960:	9b03      	ldr	r3, [sp, #12]
 8009962:	3307      	adds	r3, #7
 8009964:	f023 0307 	bic.w	r3, r3, #7
 8009968:	3308      	adds	r3, #8
 800996a:	9303      	str	r3, [sp, #12]
 800996c:	9b09      	ldr	r3, [sp, #36]	@ 0x24
 800996e:	4403      	add	r3, r0
 8009970:	9309      	str	r3, [sp, #36]	@ 0x24
 8009972:	e76c      	b.n	800984e <_svfiprintf_r+0x4e>
 8009974:	fb0c 3202 	mla	r2, ip, r2, r3
 8009978:	460c      	mov	r4, r1
 800997a:	2001      	movs	r0, #1
 800997c:	e7aa      	b.n	80098d4 <_svfiprintf_r+0xd4>
 800997e:	2300      	movs	r3, #0
 8009980:	3401      	adds	r4, #1
 8009982:	9305      	str	r3, [sp, #20]
 8009984:	4619      	mov	r1, r3
 8009986:	f04f 0c0a 	mov.w	ip, #10
 800998a:	4620      	mov	r0, r4
 800998c:	f810 2b01 	ldrb.w	r2, [r0], #1
 8009990:	3a30      	subs	r2, #48	@ 0x30
 8009992:	2a09      	cmp	r2, #9
 8009994:	d903      	bls.n	800999e <_svfiprintf_r+0x19e>
 8009996:	2b00      	cmp	r3, #0
 8009998:	d0c6      	beq.n	8009928 <_svfiprintf_r+0x128>
 800999a:	9105      	str	r1, [sp, #20]
 800999c:	e7c4      	b.n	8009928 <_svfiprintf_r+0x128>
 800999e:	fb0c 2101 	mla	r1, ip, r1, r2
 80099a2:	4604      	mov	r4, r0
 80099a4:	2301      	movs	r3, #1
 80099a6:	e7f0      	b.n	800998a <_svfiprintf_r+0x18a>
 80099a8:	ab03      	add	r3, sp, #12
 80099aa:	9300      	str	r3, [sp, #0]
 80099ac:	462a      	mov	r2, r5
 80099ae:	4b0e      	ldr	r3, [pc, #56]	@ (80099e8 <_svfiprintf_r+0x1e8>)
 80099b0:	a904      	add	r1, sp, #16
 80099b2:	4630      	mov	r0, r6
 80099b4:	f7fd fe3e 	bl	8007634 <_printf_float>
 80099b8:	1c42      	adds	r2, r0, #1
 80099ba:	d1d7      	bne.n	800996c <_svfiprintf_r+0x16c>
 80099bc:	89ab      	ldrh	r3, [r5, #12]
 80099be:	065b      	lsls	r3, r3, #25
 80099c0:	f53f af32 	bmi.w	8009828 <_svfiprintf_r+0x28>
 80099c4:	9809      	ldr	r0, [sp, #36]	@ 0x24
 80099c6:	e731      	b.n	800982c <_svfiprintf_r+0x2c>
 80099c8:	ab03      	add	r3, sp, #12
 80099ca:	9300      	str	r3, [sp, #0]
 80099cc:	462a      	mov	r2, r5
 80099ce:	4b06      	ldr	r3, [pc, #24]	@ (80099e8 <_svfiprintf_r+0x1e8>)
 80099d0:	a904      	add	r1, sp, #16
 80099d2:	4630      	mov	r0, r6
 80099d4:	f7fe f8c4 	bl	8007b60 <_printf_i>
 80099d8:	e7ee      	b.n	80099b8 <_svfiprintf_r+0x1b8>
 80099da:	bf00      	nop
 80099dc:	0801e4be 	.word	0x0801e4be
 80099e0:	0801e4c8 	.word	0x0801e4c8
 80099e4:	08007635 	.word	0x08007635
 80099e8:	08009741 	.word	0x08009741
 80099ec:	0801e4c4 	.word	0x0801e4c4

080099f0 <__sfputc_r>:
 80099f0:	6893      	ldr	r3, [r2, #8]
 80099f2:	3b01      	subs	r3, #1
 80099f4:	2b00      	cmp	r3, #0
 80099f6:	b410      	push	{r4}
 80099f8:	6093      	str	r3, [r2, #8]
 80099fa:	da08      	bge.n	8009a0e <__sfputc_r+0x1e>
 80099fc:	6994      	ldr	r4, [r2, #24]
 80099fe:	42a3      	cmp	r3, r4
 8009a00:	db01      	blt.n	8009a06 <__sfputc_r+0x16>
 8009a02:	290a      	cmp	r1, #10
 8009a04:	d103      	bne.n	8009a0e <__sfputc_r+0x1e>
 8009a06:	f85d 4b04 	ldr.w	r4, [sp], #4
 8009a0a:	f000 b9d9 	b.w	8009dc0 <__swbuf_r>
 8009a0e:	6813      	ldr	r3, [r2, #0]
 8009a10:	1c58      	adds	r0, r3, #1
 8009a12:	6010      	str	r0, [r2, #0]
 8009a14:	7019      	strb	r1, [r3, #0]
 8009a16:	4608      	mov	r0, r1
 8009a18:	f85d 4b04 	ldr.w	r4, [sp], #4
 8009a1c:	4770      	bx	lr

08009a1e <__sfputs_r>:
 8009a1e:	b5f8      	push	{r3, r4, r5, r6, r7, lr}
 8009a20:	4606      	mov	r6, r0
 8009a22:	460f      	mov	r7, r1
 8009a24:	4614      	mov	r4, r2
 8009a26:	18d5      	adds	r5, r2, r3
 8009a28:	42ac      	cmp	r4, r5
 8009a2a:	d101      	bne.n	8009a30 <__sfputs_r+0x12>
 8009a2c:	2000      	movs	r0, #0
 8009a2e:	e007      	b.n	8009a40 <__sfputs_r+0x22>
 8009a30:	f814 1b01 	ldrb.w	r1, [r4], #1
 8009a34:	463a      	mov	r2, r7
 8009a36:	4630      	mov	r0, r6
 8009a38:	f7ff ffda 	bl	80099f0 <__sfputc_r>
 8009a3c:	1c43      	adds	r3, r0, #1
 8009a3e:	d1f3      	bne.n	8009a28 <__sfputs_r+0xa>
 8009a40:	bdf8      	pop	{r3, r4, r5, r6, r7, pc}
	...

08009a44 <_vfiprintf_r>:
 8009a44:	e92d 47f0 	stmdb	sp!, {r4, r5, r6, r7, r8, r9, sl, lr}
 8009a48:	460d      	mov	r5, r1
 8009a4a:	b09c      	sub	sp, #112	@ 0x70
 8009a4c:	4614      	mov	r4, r2
 8009a4e:	461f      	mov	r7, r3
 8009a50:	4606      	mov	r6, r0
 8009a52:	b118      	cbz	r0, 8009a5c <_vfiprintf_r+0x18>
 8009a54:	6a03      	ldr	r3, [r0, #32]
 8009a56:	b90b      	cbnz	r3, 8009a5c <_vfiprintf_r+0x18>
 8009a58:	f7fe fa36 	bl	8007ec8 <__sinit>
 8009a5c:	6e6b      	ldr	r3, [r5, #100]	@ 0x64
 8009a5e:	07d9      	lsls	r1, r3, #31
 8009a60:	d405      	bmi.n	8009a6e <_vfiprintf_r+0x2a>
 8009a62:	89ab      	ldrh	r3, [r5, #12]
 8009a64:	059a      	lsls	r2, r3, #22
 8009a66:	d402      	bmi.n	8009a6e <_vfiprintf_r+0x2a>
 8009a68:	6da8      	ldr	r0, [r5, #88]	@ 0x58
 8009a6a:	f7fe fb6c 	bl	8008146 <__retarget_lock_acquire_recursive>
 8009a6e:	89ab      	ldrh	r3, [r5, #12]
 8009a70:	071b      	lsls	r3, r3, #28
 8009a72:	d501      	bpl.n	8009a78 <_vfiprintf_r+0x34>
 8009a74:	692b      	ldr	r3, [r5, #16]
 8009a76:	b99b      	cbnz	r3, 8009aa0 <_vfiprintf_r+0x5c>
 8009a78:	4629      	mov	r1, r5
 8009a7a:	4630      	mov	r0, r6
 8009a7c:	f000 f9de 	bl	8009e3c <__swsetup_r>
 8009a80:	b170      	cbz	r0, 8009aa0 <_vfiprintf_r+0x5c>
 8009a82:	6e6b      	ldr	r3, [r5, #100]	@ 0x64
 8009a84:	07dc      	lsls	r4, r3, #31
 8009a86:	d504      	bpl.n	8009a92 <_vfiprintf_r+0x4e>
 8009a88:	f04f 30ff 	mov.w	r0, #4294967295
 8009a8c:	b01c      	add	sp, #112	@ 0x70
 8009a8e:	e8bd 87f0 	ldmia.w	sp!, {r4, r5, r6, r7, r8, r9, sl, pc}
 8009a92:	89ab      	ldrh	r3, [r5, #12]
 8009a94:	0598      	lsls	r0, r3, #22
 8009a96:	d4f7      	bmi.n	8009a88 <_vfiprintf_r+0x44>
 8009a98:	6da8      	ldr	r0, [r5, #88]	@ 0x58
 8009a9a:	f7fe fb55 	bl	8008148 <__retarget_lock_release_recursive>
 8009a9e:	e7f3      	b.n	8009a88 <_vfiprintf_r+0x44>
 8009aa0:	2300      	movs	r3, #0
 8009aa2:	9309      	str	r3, [sp, #36]	@ 0x24
 8009aa4:	2320      	movs	r3, #32
 8009aa6:	f88d 3029 	strb.w	r3, [sp, #41]	@ 0x29
 8009aaa:	9703      	str	r7, [sp, #12]
 8009aac:	2330      	movs	r3, #48	@ 0x30
 8009aae:	4f6a      	ldr	r7, [pc, #424]	@ (8009c58 <_vfiprintf_r+0x214>)
 8009ab0:	f88d 302a 	strb.w	r3, [sp, #42]	@ 0x2a
 8009ab4:	f04f 0801 	mov.w	r8, #1
 8009ab8:	4623      	mov	r3, r4
 8009aba:	4699      	mov	r9, r3
 8009abc:	f813 2b01 	ldrb.w	r2, [r3], #1
 8009ac0:	b10a      	cbz	r2, 8009ac6 <_vfiprintf_r+0x82>
 8009ac2:	2a25      	cmp	r2, #37	@ 0x25
 8009ac4:	d1f9      	bne.n	8009aba <_vfiprintf_r+0x76>
 8009ac6:	ebb9 0a04 	subs.w	sl, r9, r4
 8009aca:	d00b      	beq.n	8009ae4 <_vfiprintf_r+0xa0>
 8009acc:	4653      	mov	r3, sl
 8009ace:	4622      	mov	r2, r4
 8009ad0:	4629      	mov	r1, r5
 8009ad2:	4630      	mov	r0, r6
 8009ad4:	f7ff ffa3 	bl	8009a1e <__sfputs_r>
 8009ad8:	3001      	adds	r0, #1
 8009ada:	f000 80a4 	beq.w	8009c26 <_vfiprintf_r+0x1e2>
 8009ade:	9a09      	ldr	r2, [sp, #36]	@ 0x24
 8009ae0:	4452      	add	r2, sl
 8009ae2:	9209      	str	r2, [sp, #36]	@ 0x24
 8009ae4:	f899 3000 	ldrb.w	r3, [r9]
 8009ae8:	2b00      	cmp	r3, #0
 8009aea:	f000 809c 	beq.w	8009c26 <_vfiprintf_r+0x1e2>
 8009aee:	2300      	movs	r3, #0
 8009af0:	f04f 32ff 	mov.w	r2, #4294967295
 8009af4:	e9cd 2305 	strd	r2, r3, [sp, #20]
 8009af8:	f109 0901 	add.w	r9, r9, #1
 8009afc:	9304      	str	r3, [sp, #16]
 8009afe:	9307      	str	r3, [sp, #28]
 8009b00:	f88d 3053 	strb.w	r3, [sp, #83]	@ 0x53
 8009b04:	931a      	str	r3, [sp, #104]	@ 0x68
 8009b06:	464c      	mov	r4, r9
 8009b08:	4853      	ldr	r0, [pc, #332]	@ (8009c58 <_vfiprintf_r+0x214>)
 8009b0a:	f814 1b01 	ldrb.w	r1, [r4], #1
 8009b0e:	2205      	movs	r2, #5
 8009b10:	f7f6 fb66 	bl	80001e0 <memchr>
 8009b14:	9b04      	ldr	r3, [sp, #16]
 8009b16:	b9d0      	cbnz	r0, 8009b4e <_vfiprintf_r+0x10a>
 8009b18:	06d9      	lsls	r1, r3, #27
 8009b1a:	bf44      	itt	mi
 8009b1c:	2220      	movmi	r2, #32
 8009b1e:	f88d 2053 	strbmi.w	r2, [sp, #83]	@ 0x53
 8009b22:	071a      	lsls	r2, r3, #28
 8009b24:	bf44      	itt	mi
 8009b26:	222b      	movmi	r2, #43	@ 0x2b
 8009b28:	f88d 2053 	strbmi.w	r2, [sp, #83]	@ 0x53
 8009b2c:	f899 2000 	ldrb.w	r2, [r9]
 8009b30:	2a2a      	cmp	r2, #42	@ 0x2a
 8009b32:	d013      	beq.n	8009b5c <_vfiprintf_r+0x118>
 8009b34:	9a07      	ldr	r2, [sp, #28]
 8009b36:	464c      	mov	r4, r9
 8009b38:	2000      	movs	r0, #0
 8009b3a:	f04f 0c0a 	mov.w	ip, #10
 8009b3e:	4621      	mov	r1, r4
 8009b40:	f811 3b01 	ldrb.w	r3, [r1], #1
 8009b44:	3b30      	subs	r3, #48	@ 0x30
 8009b46:	2b09      	cmp	r3, #9
 8009b48:	d949      	bls.n	8009bde <_vfiprintf_r+0x19a>
 8009b4a:	b968      	cbnz	r0, 8009b68 <_vfiprintf_r+0x124>
 8009b4c:	e013      	b.n	8009b76 <_vfiprintf_r+0x132>
 8009b4e:	1bc0      	subs	r0, r0, r7
 8009b50:	fa08 f000 	lsl.w	r0, r8, r0
 8009b54:	4318      	orrs	r0, r3
 8009b56:	9004      	str	r0, [sp, #16]
 8009b58:	46a1      	mov	r9, r4
 8009b5a:	e7d4      	b.n	8009b06 <_vfiprintf_r+0xc2>
 8009b5c:	9a03      	ldr	r2, [sp, #12]
 8009b5e:	1d11      	adds	r1, r2, #4
 8009b60:	6812      	ldr	r2, [r2, #0]
 8009b62:	9103      	str	r1, [sp, #12]
 8009b64:	2a00      	cmp	r2, #0
 8009b66:	db01      	blt.n	8009b6c <_vfiprintf_r+0x128>
 8009b68:	9207      	str	r2, [sp, #28]
 8009b6a:	e004      	b.n	8009b76 <_vfiprintf_r+0x132>
 8009b6c:	4252      	negs	r2, r2
 8009b6e:	f043 0302 	orr.w	r3, r3, #2
 8009b72:	9207      	str	r2, [sp, #28]
 8009b74:	9304      	str	r3, [sp, #16]
 8009b76:	7823      	ldrb	r3, [r4, #0]
 8009b78:	2b2e      	cmp	r3, #46	@ 0x2e
 8009b7a:	d10a      	bne.n	8009b92 <_vfiprintf_r+0x14e>
 8009b7c:	7863      	ldrb	r3, [r4, #1]
 8009b7e:	2b2a      	cmp	r3, #42	@ 0x2a
 8009b80:	d132      	bne.n	8009be8 <_vfiprintf_r+0x1a4>
 8009b82:	9b03      	ldr	r3, [sp, #12]
 8009b84:	1d1a      	adds	r2, r3, #4
 8009b86:	681b      	ldr	r3, [r3, #0]
 8009b88:	9203      	str	r2, [sp, #12]
 8009b8a:	ea43 73e3 	orr.w	r3, r3, r3, asr #31
 8009b8e:	3402      	adds	r4, #2
 8009b90:	9305      	str	r3, [sp, #20]
 8009b92:	f8df 90d4 	ldr.w	r9, [pc, #212]	@ 8009c68 <_vfiprintf_r+0x224>
 8009b96:	7821      	ldrb	r1, [r4, #0]
 8009b98:	2203      	movs	r2, #3
 8009b9a:	4648      	mov	r0, r9
 8009b9c:	f7f6 fb20 	bl	80001e0 <memchr>
 8009ba0:	b138      	cbz	r0, 8009bb2 <_vfiprintf_r+0x16e>
 8009ba2:	9b04      	ldr	r3, [sp, #16]
 8009ba4:	eba0 0009 	sub.w	r0, r0, r9
 8009ba8:	2240      	movs	r2, #64	@ 0x40
 8009baa:	4082      	lsls	r2, r0
 8009bac:	4313      	orrs	r3, r2
 8009bae:	3401      	adds	r4, #1
 8009bb0:	9304      	str	r3, [sp, #16]
 8009bb2:	f814 1b01 	ldrb.w	r1, [r4], #1
 8009bb6:	4829      	ldr	r0, [pc, #164]	@ (8009c5c <_vfiprintf_r+0x218>)
 8009bb8:	f88d 1028 	strb.w	r1, [sp, #40]	@ 0x28
 8009bbc:	2206      	movs	r2, #6
 8009bbe:	f7f6 fb0f 	bl	80001e0 <memchr>
 8009bc2:	2800      	cmp	r0, #0
 8009bc4:	d03e      	beq.n	8009c44 <_vfiprintf_r+0x200>
 8009bc6:	4826      	ldr	r0, [pc, #152]	@ (8009c60 <_vfiprintf_r+0x21c>)
 8009bc8:	bb18      	cbnz	r0, 8009c12 <_vfiprintf_r+0x1ce>
 8009bca:	9b03      	ldr	r3, [sp, #12]
 8009bcc:	3307      	adds	r3, #7
 8009bce:	f023 0307 	bic.w	r3, r3, #7
 8009bd2:	3308      	adds	r3, #8
 8009bd4:	9303      	str	r3, [sp, #12]
 8009bd6:	9b09      	ldr	r3, [sp, #36]	@ 0x24
 8009bd8:	4403      	add	r3, r0
 8009bda:	9309      	str	r3, [sp, #36]	@ 0x24
 8009bdc:	e76c      	b.n	8009ab8 <_vfiprintf_r+0x74>
 8009bde:	fb0c 3202 	mla	r2, ip, r2, r3
 8009be2:	460c      	mov	r4, r1
 8009be4:	2001      	movs	r0, #1
 8009be6:	e7aa      	b.n	8009b3e <_vfiprintf_r+0xfa>
 8009be8:	2300      	movs	r3, #0
 8009bea:	3401      	adds	r4, #1
 8009bec:	9305      	str	r3, [sp, #20]
 8009bee:	4619      	mov	r1, r3
 8009bf0:	f04f 0c0a 	mov.w	ip, #10
 8009bf4:	4620      	mov	r0, r4
 8009bf6:	f810 2b01 	ldrb.w	r2, [r0], #1
 8009bfa:	3a30      	subs	r2, #48	@ 0x30
 8009bfc:	2a09      	cmp	r2, #9
 8009bfe:	d903      	bls.n	8009c08 <_vfiprintf_r+0x1c4>
 8009c00:	2b00      	cmp	r3, #0
 8009c02:	d0c6      	beq.n	8009b92 <_vfiprintf_r+0x14e>
 8009c04:	9105      	str	r1, [sp, #20]
 8009c06:	e7c4      	b.n	8009b92 <_vfiprintf_r+0x14e>
 8009c08:	fb0c 2101 	mla	r1, ip, r1, r2
 8009c0c:	4604      	mov	r4, r0
 8009c0e:	2301      	movs	r3, #1
 8009c10:	e7f0      	b.n	8009bf4 <_vfiprintf_r+0x1b0>
 8009c12:	ab03      	add	r3, sp, #12
 8009c14:	9300      	str	r3, [sp, #0]
 8009c16:	462a      	mov	r2, r5
 8009c18:	4b12      	ldr	r3, [pc, #72]	@ (8009c64 <_vfiprintf_r+0x220>)
 8009c1a:	a904      	add	r1, sp, #16
 8009c1c:	4630      	mov	r0, r6
 8009c1e:	f7fd fd09 	bl	8007634 <_printf_float>
 8009c22:	1c43      	adds	r3, r0, #1
 8009c24:	d1d7      	bne.n	8009bd6 <_vfiprintf_r+0x192>
 8009c26:	6e6b      	ldr	r3, [r5, #100]	@ 0x64
 8009c28:	07d9      	lsls	r1, r3, #31
 8009c2a:	d405      	bmi.n	8009c38 <_vfiprintf_r+0x1f4>
 8009c2c:	89ab      	ldrh	r3, [r5, #12]
 8009c2e:	059a      	lsls	r2, r3, #22
 8009c30:	d402      	bmi.n	8009c38 <_vfiprintf_r+0x1f4>
 8009c32:	6da8      	ldr	r0, [r5, #88]	@ 0x58
 8009c34:	f7fe fa88 	bl	8008148 <__retarget_lock_release_recursive>
 8009c38:	89ab      	ldrh	r3, [r5, #12]
 8009c3a:	065b      	lsls	r3, r3, #25
 8009c3c:	f53f af24 	bmi.w	8009a88 <_vfiprintf_r+0x44>
 8009c40:	9809      	ldr	r0, [sp, #36]	@ 0x24
 8009c42:	e723      	b.n	8009a8c <_vfiprintf_r+0x48>
 8009c44:	ab03      	add	r3, sp, #12
 8009c46:	9300      	str	r3, [sp, #0]
 8009c48:	462a      	mov	r2, r5
 8009c4a:	4b06      	ldr	r3, [pc, #24]	@ (8009c64 <_vfiprintf_r+0x220>)
 8009c4c:	a904      	add	r1, sp, #16
 8009c4e:	4630      	mov	r0, r6
 8009c50:	f7fd ff86 	bl	8007b60 <_printf_i>
 8009c54:	e7e5      	b.n	8009c22 <_vfiprintf_r+0x1de>
 8009c56:	bf00      	nop
 8009c58:	0801e4be 	.word	0x0801e4be
 8009c5c:	0801e4c8 	.word	0x0801e4c8
 8009c60:	08007635 	.word	0x08007635
 8009c64:	08009a1f 	.word	0x08009a1f
 8009c68:	0801e4c4 	.word	0x0801e4c4

08009c6c <__sflush_r>:
 8009c6c:	f9b1 200c 	ldrsh.w	r2, [r1, #12]
 8009c70:	e92d 41f0 	stmdb	sp!, {r4, r5, r6, r7, r8, lr}
 8009c74:	0716      	lsls	r6, r2, #28
 8009c76:	4605      	mov	r5, r0
 8009c78:	460c      	mov	r4, r1
 8009c7a:	d451      	bmi.n	8009d20 <__sflush_r+0xb4>
 8009c7c:	684b      	ldr	r3, [r1, #4]
 8009c7e:	2b00      	cmp	r3, #0
 8009c80:	dc02      	bgt.n	8009c88 <__sflush_r+0x1c>
 8009c82:	6c0b      	ldr	r3, [r1, #64]	@ 0x40
 8009c84:	2b00      	cmp	r3, #0
 8009c86:	dd49      	ble.n	8009d1c <__sflush_r+0xb0>
 8009c88:	6ae6      	ldr	r6, [r4, #44]	@ 0x2c
 8009c8a:	2e00      	cmp	r6, #0
 8009c8c:	d046      	beq.n	8009d1c <__sflush_r+0xb0>
 8009c8e:	2300      	movs	r3, #0
 8009c90:	f412 5280 	ands.w	r2, r2, #4096	@ 0x1000
 8009c94:	682f      	ldr	r7, [r5, #0]
 8009c96:	602b      	str	r3, [r5, #0]
 8009c98:	d031      	beq.n	8009cfe <__sflush_r+0x92>
 8009c9a:	6d62      	ldr	r2, [r4, #84]	@ 0x54
 8009c9c:	89a3      	ldrh	r3, [r4, #12]
 8009c9e:	0759      	lsls	r1, r3, #29
 8009ca0:	d505      	bpl.n	8009cae <__sflush_r+0x42>
 8009ca2:	6863      	ldr	r3, [r4, #4]
 8009ca4:	1ad2      	subs	r2, r2, r3
 8009ca6:	6b63      	ldr	r3, [r4, #52]	@ 0x34
 8009ca8:	b10b      	cbz	r3, 8009cae <__sflush_r+0x42>
 8009caa:	6c23      	ldr	r3, [r4, #64]	@ 0x40
 8009cac:	1ad2      	subs	r2, r2, r3
 8009cae:	2300      	movs	r3, #0
 8009cb0:	6ae6      	ldr	r6, [r4, #44]	@ 0x2c
 8009cb2:	6a21      	ldr	r1, [r4, #32]
 8009cb4:	4628      	mov	r0, r5
 8009cb6:	47b0      	blx	r6
 8009cb8:	1c42      	adds	r2, r0, #1
 8009cba:	f9b4 300c 	ldrsh.w	r3, [r4, #12]
 8009cbe:	d106      	bne.n	8009cce <__sflush_r+0x62>
 8009cc0:	6829      	ldr	r1, [r5, #0]
 8009cc2:	291d      	cmp	r1, #29
 8009cc4:	d846      	bhi.n	8009d54 <__sflush_r+0xe8>
 8009cc6:	4a29      	ldr	r2, [pc, #164]	@ (8009d6c <__sflush_r+0x100>)
 8009cc8:	40ca      	lsrs	r2, r1
 8009cca:	07d6      	lsls	r6, r2, #31
 8009ccc:	d542      	bpl.n	8009d54 <__sflush_r+0xe8>
 8009cce:	2200      	movs	r2, #0
 8009cd0:	6062      	str	r2, [r4, #4]
 8009cd2:	04d9      	lsls	r1, r3, #19
 8009cd4:	6922      	ldr	r2, [r4, #16]
 8009cd6:	6022      	str	r2, [r4, #0]
 8009cd8:	d504      	bpl.n	8009ce4 <__sflush_r+0x78>
 8009cda:	1c42      	adds	r2, r0, #1
 8009cdc:	d101      	bne.n	8009ce2 <__sflush_r+0x76>
 8009cde:	682b      	ldr	r3, [r5, #0]
 8009ce0:	b903      	cbnz	r3, 8009ce4 <__sflush_r+0x78>
 8009ce2:	6560      	str	r0, [r4, #84]	@ 0x54
 8009ce4:	6b61      	ldr	r1, [r4, #52]	@ 0x34
 8009ce6:	602f      	str	r7, [r5, #0]
 8009ce8:	b1c1      	cbz	r1, 8009d1c <__sflush_r+0xb0>
 8009cea:	f104 0344 	add.w	r3, r4, #68	@ 0x44
 8009cee:	4299      	cmp	r1, r3
 8009cf0:	d002      	beq.n	8009cf8 <__sflush_r+0x8c>
 8009cf2:	4628      	mov	r0, r5
 8009cf4:	f7ff f89c 	bl	8008e30 <_free_r>
 8009cf8:	2300      	movs	r3, #0
 8009cfa:	6363      	str	r3, [r4, #52]	@ 0x34
 8009cfc:	e00e      	b.n	8009d1c <__sflush_r+0xb0>
 8009cfe:	6a21      	ldr	r1, [r4, #32]
 8009d00:	2301      	movs	r3, #1
 8009d02:	4628      	mov	r0, r5
 8009d04:	47b0      	blx	r6
 8009d06:	4602      	mov	r2, r0
 8009d08:	1c50      	adds	r0, r2, #1
 8009d0a:	d1c7      	bne.n	8009c9c <__sflush_r+0x30>
 8009d0c:	682b      	ldr	r3, [r5, #0]
 8009d0e:	2b00      	cmp	r3, #0
 8009d10:	d0c4      	beq.n	8009c9c <__sflush_r+0x30>
 8009d12:	2b1d      	cmp	r3, #29
 8009d14:	d001      	beq.n	8009d1a <__sflush_r+0xae>
 8009d16:	2b16      	cmp	r3, #22
 8009d18:	d11a      	bne.n	8009d50 <__sflush_r+0xe4>
 8009d1a:	602f      	str	r7, [r5, #0]
 8009d1c:	2000      	movs	r0, #0
 8009d1e:	e01e      	b.n	8009d5e <__sflush_r+0xf2>
 8009d20:	690f      	ldr	r7, [r1, #16]
 8009d22:	2f00      	cmp	r7, #0
 8009d24:	d0fa      	beq.n	8009d1c <__sflush_r+0xb0>
 8009d26:	0793      	lsls	r3, r2, #30
 8009d28:	680e      	ldr	r6, [r1, #0]
 8009d2a:	bf08      	it	eq
 8009d2c:	694b      	ldreq	r3, [r1, #20]
 8009d2e:	600f      	str	r7, [r1, #0]
 8009d30:	bf18      	it	ne
 8009d32:	2300      	movne	r3, #0
 8009d34:	eba6 0807 	sub.w	r8, r6, r7
 8009d38:	608b      	str	r3, [r1, #8]
 8009d3a:	f1b8 0f00 	cmp.w	r8, #0
 8009d3e:	dded      	ble.n	8009d1c <__sflush_r+0xb0>
 8009d40:	6a21      	ldr	r1, [r4, #32]
 8009d42:	6aa6      	ldr	r6, [r4, #40]	@ 0x28
 8009d44:	4643      	mov	r3, r8
 8009d46:	463a      	mov	r2, r7
 8009d48:	4628      	mov	r0, r5
 8009d4a:	47b0      	blx	r6
 8009d4c:	2800      	cmp	r0, #0
 8009d4e:	dc08      	bgt.n	8009d62 <__sflush_r+0xf6>
 8009d50:	f9b4 300c 	ldrsh.w	r3, [r4, #12]
 8009d54:	f043 0340 	orr.w	r3, r3, #64	@ 0x40
 8009d58:	81a3      	strh	r3, [r4, #12]
 8009d5a:	f04f 30ff 	mov.w	r0, #4294967295
 8009d5e:	e8bd 81f0 	ldmia.w	sp!, {r4, r5, r6, r7, r8, pc}
 8009d62:	4407      	add	r7, r0
 8009d64:	eba8 0800 	sub.w	r8, r8, r0
 8009d68:	e7e7      	b.n	8009d3a <__sflush_r+0xce>
 8009d6a:	bf00      	nop
 8009d6c:	20400001 	.word	0x20400001

08009d70 <_fflush_r>:
 8009d70:	b538      	push	{r3, r4, r5, lr}
 8009d72:	690b      	ldr	r3, [r1, #16]
 8009d74:	4605      	mov	r5, r0
 8009d76:	460c      	mov	r4, r1
 8009d78:	b913      	cbnz	r3, 8009d80 <_fflush_r+0x10>
 8009d7a:	2500      	movs	r5, #0
 8009d7c:	4628      	mov	r0, r5
 8009d7e:	bd38      	pop	{r3, r4, r5, pc}
 8009d80:	b118      	cbz	r0, 8009d8a <_fflush_r+0x1a>
 8009d82:	6a03      	ldr	r3, [r0, #32]
 8009d84:	b90b      	cbnz	r3, 8009d8a <_fflush_r+0x1a>
 8009d86:	f7fe f89f 	bl	8007ec8 <__sinit>
 8009d8a:	f9b4 300c 	ldrsh.w	r3, [r4, #12]
 8009d8e:	2b00      	cmp	r3, #0
 8009d90:	d0f3      	beq.n	8009d7a <_fflush_r+0xa>
 8009d92:	6e62      	ldr	r2, [r4, #100]	@ 0x64
 8009d94:	07d0      	lsls	r0, r2, #31
 8009d96:	d404      	bmi.n	8009da2 <_fflush_r+0x32>
 8009d98:	0599      	lsls	r1, r3, #22
 8009d9a:	d402      	bmi.n	8009da2 <_fflush_r+0x32>
 8009d9c:	6da0      	ldr	r0, [r4, #88]	@ 0x58
 8009d9e:	f7fe f9d2 	bl	8008146 <__retarget_lock_acquire_recursive>
 8009da2:	4628      	mov	r0, r5
 8009da4:	4621      	mov	r1, r4
 8009da6:	f7ff ff61 	bl	8009c6c <__sflush_r>
 8009daa:	6e63      	ldr	r3, [r4, #100]	@ 0x64
 8009dac:	07da      	lsls	r2, r3, #31
 8009dae:	4605      	mov	r5, r0
 8009db0:	d4e4      	bmi.n	8009d7c <_fflush_r+0xc>
 8009db2:	89a3      	ldrh	r3, [r4, #12]
 8009db4:	059b      	lsls	r3, r3, #22
 8009db6:	d4e1      	bmi.n	8009d7c <_fflush_r+0xc>
 8009db8:	6da0      	ldr	r0, [r4, #88]	@ 0x58
 8009dba:	f7fe f9c5 	bl	8008148 <__retarget_lock_release_recursive>
 8009dbe:	e7dd      	b.n	8009d7c <_fflush_r+0xc>

08009dc0 <__swbuf_r>:
 8009dc0:	b5f8      	push	{r3, r4, r5, r6, r7, lr}
 8009dc2:	460e      	mov	r6, r1
 8009dc4:	4614      	mov	r4, r2
 8009dc6:	4605      	mov	r5, r0
 8009dc8:	b118      	cbz	r0, 8009dd2 <__swbuf_r+0x12>
 8009dca:	6a03      	ldr	r3, [r0, #32]
 8009dcc:	b90b      	cbnz	r3, 8009dd2 <__swbuf_r+0x12>
 8009dce:	f7fe f87b 	bl	8007ec8 <__sinit>
 8009dd2:	69a3      	ldr	r3, [r4, #24]
 8009dd4:	60a3      	str	r3, [r4, #8]
 8009dd6:	89a3      	ldrh	r3, [r4, #12]
 8009dd8:	071a      	lsls	r2, r3, #28
 8009dda:	d501      	bpl.n	8009de0 <__swbuf_r+0x20>
 8009ddc:	6923      	ldr	r3, [r4, #16]
 8009dde:	b943      	cbnz	r3, 8009df2 <__swbuf_r+0x32>
 8009de0:	4621      	mov	r1, r4
 8009de2:	4628      	mov	r0, r5
 8009de4:	f000 f82a 	bl	8009e3c <__swsetup_r>
 8009de8:	b118      	cbz	r0, 8009df2 <__swbuf_r+0x32>
 8009dea:	f04f 37ff 	mov.w	r7, #4294967295
 8009dee:	4638      	mov	r0, r7
 8009df0:	bdf8      	pop	{r3, r4, r5, r6, r7, pc}
 8009df2:	6823      	ldr	r3, [r4, #0]
 8009df4:	6922      	ldr	r2, [r4, #16]
 8009df6:	1a98      	subs	r0, r3, r2
 8009df8:	6963      	ldr	r3, [r4, #20]
 8009dfa:	b2f6      	uxtb	r6, r6
 8009dfc:	4283      	cmp	r3, r0
 8009dfe:	4637      	mov	r7, r6
 8009e00:	dc05      	bgt.n	8009e0e <__swbuf_r+0x4e>
 8009e02:	4621      	mov	r1, r4
 8009e04:	4628      	mov	r0, r5
 8009e06:	f7ff ffb3 	bl	8009d70 <_fflush_r>
 8009e0a:	2800      	cmp	r0, #0
 8009e0c:	d1ed      	bne.n	8009dea <__swbuf_r+0x2a>
 8009e0e:	68a3      	ldr	r3, [r4, #8]
 8009e10:	3b01      	subs	r3, #1
 8009e12:	60a3      	str	r3, [r4, #8]
 8009e14:	6823      	ldr	r3, [r4, #0]
 8009e16:	1c5a      	adds	r2, r3, #1
 8009e18:	6022      	str	r2, [r4, #0]
 8009e1a:	701e      	strb	r6, [r3, #0]
 8009e1c:	6962      	ldr	r2, [r4, #20]
 8009e1e:	1c43      	adds	r3, r0, #1
 8009e20:	429a      	cmp	r2, r3
 8009e22:	d004      	beq.n	8009e2e <__swbuf_r+0x6e>
 8009e24:	89a3      	ldrh	r3, [r4, #12]
 8009e26:	07db      	lsls	r3, r3, #31
 8009e28:	d5e1      	bpl.n	8009dee <__swbuf_r+0x2e>
 8009e2a:	2e0a      	cmp	r6, #10
 8009e2c:	d1df      	bne.n	8009dee <__swbuf_r+0x2e>
 8009e2e:	4621      	mov	r1, r4
 8009e30:	4628      	mov	r0, r5
 8009e32:	f7ff ff9d 	bl	8009d70 <_fflush_r>
 8009e36:	2800      	cmp	r0, #0
 8009e38:	d0d9      	beq.n	8009dee <__swbuf_r+0x2e>
 8009e3a:	e7d6      	b.n	8009dea <__swbuf_r+0x2a>

08009e3c <__swsetup_r>:
 8009e3c:	b538      	push	{r3, r4, r5, lr}
 8009e3e:	4b28      	ldr	r3, [pc, #160]	@ (8009ee0 <__swsetup_r+0xa4>)
 8009e40:	4605      	mov	r5, r0
 8009e42:	6818      	ldr	r0, [r3, #0]
 8009e44:	460c      	mov	r4, r1
 8009e46:	b118      	cbz	r0, 8009e50 <__swsetup_r+0x14>
 8009e48:	6a03      	ldr	r3, [r0, #32]
 8009e4a:	b90b      	cbnz	r3, 8009e50 <__swsetup_r+0x14>
 8009e4c:	f7fe f83c 	bl	8007ec8 <__sinit>
 8009e50:	f9b4 300c 	ldrsh.w	r3, [r4, #12]
 8009e54:	071a      	lsls	r2, r3, #28
 8009e56:	d421      	bmi.n	8009e9c <__swsetup_r+0x60>
 8009e58:	06d8      	lsls	r0, r3, #27
 8009e5a:	d407      	bmi.n	8009e6c <__swsetup_r+0x30>
 8009e5c:	2209      	movs	r2, #9
 8009e5e:	602a      	str	r2, [r5, #0]
 8009e60:	f043 0340 	orr.w	r3, r3, #64	@ 0x40
 8009e64:	81a3      	strh	r3, [r4, #12]
 8009e66:	f04f 30ff 	mov.w	r0, #4294967295
 8009e6a:	e030      	b.n	8009ece <__swsetup_r+0x92>
 8009e6c:	0759      	lsls	r1, r3, #29
 8009e6e:	d512      	bpl.n	8009e96 <__swsetup_r+0x5a>
 8009e70:	6b61      	ldr	r1, [r4, #52]	@ 0x34
 8009e72:	b141      	cbz	r1, 8009e86 <__swsetup_r+0x4a>
 8009e74:	f104 0344 	add.w	r3, r4, #68	@ 0x44
 8009e78:	4299      	cmp	r1, r3
 8009e7a:	d002      	beq.n	8009e82 <__swsetup_r+0x46>
 8009e7c:	4628      	mov	r0, r5
 8009e7e:	f7fe ffd7 	bl	8008e30 <_free_r>
 8009e82:	2300      	movs	r3, #0
 8009e84:	6363      	str	r3, [r4, #52]	@ 0x34
 8009e86:	2200      	movs	r2, #0
 8009e88:	f9b4 300c 	ldrsh.w	r3, [r4, #12]
 8009e8c:	6062      	str	r2, [r4, #4]
 8009e8e:	6922      	ldr	r2, [r4, #16]
 8009e90:	6022      	str	r2, [r4, #0]
 8009e92:	f023 0324 	bic.w	r3, r3, #36	@ 0x24
 8009e96:	f043 0308 	orr.w	r3, r3, #8
 8009e9a:	81a3      	strh	r3, [r4, #12]
 8009e9c:	6922      	ldr	r2, [r4, #16]
 8009e9e:	b93a      	cbnz	r2, 8009eb0 <__swsetup_r+0x74>
 8009ea0:	059a      	lsls	r2, r3, #22
 8009ea2:	d501      	bpl.n	8009ea8 <__swsetup_r+0x6c>
 8009ea4:	0618      	lsls	r0, r3, #24
 8009ea6:	d503      	bpl.n	8009eb0 <__swsetup_r+0x74>
 8009ea8:	4621      	mov	r1, r4
 8009eaa:	4628      	mov	r0, r5
 8009eac:	f000 f8fa 	bl	800a0a4 <__smakebuf_r>
 8009eb0:	f9b4 300c 	ldrsh.w	r3, [r4, #12]
 8009eb4:	f013 0201 	ands.w	r2, r3, #1
 8009eb8:	d00a      	beq.n	8009ed0 <__swsetup_r+0x94>
 8009eba:	2200      	movs	r2, #0
 8009ebc:	60a2      	str	r2, [r4, #8]
 8009ebe:	6962      	ldr	r2, [r4, #20]
 8009ec0:	4252      	negs	r2, r2
 8009ec2:	61a2      	str	r2, [r4, #24]
 8009ec4:	6922      	ldr	r2, [r4, #16]
 8009ec6:	b942      	cbnz	r2, 8009eda <__swsetup_r+0x9e>
 8009ec8:	f013 0080 	ands.w	r0, r3, #128	@ 0x80
 8009ecc:	d1c8      	bne.n	8009e60 <__swsetup_r+0x24>
 8009ece:	bd38      	pop	{r3, r4, r5, pc}
 8009ed0:	0799      	lsls	r1, r3, #30
 8009ed2:	bf58      	it	pl
 8009ed4:	6962      	ldrpl	r2, [r4, #20]
 8009ed6:	60a2      	str	r2, [r4, #8]
 8009ed8:	e7f4      	b.n	8009ec4 <__swsetup_r+0x88>
 8009eda:	2000      	movs	r0, #0
 8009edc:	e7f7      	b.n	8009ece <__swsetup_r+0x92>
 8009ede:	bf00      	nop
 8009ee0:	2000201c 	.word	0x2000201c

08009ee4 <memmove>:
 8009ee4:	4288      	cmp	r0, r1
 8009ee6:	b510      	push	{r4, lr}
 8009ee8:	eb01 0402 	add.w	r4, r1, r2
 8009eec:	d902      	bls.n	8009ef4 <memmove+0x10>
 8009eee:	4284      	cmp	r4, r0
 8009ef0:	4623      	mov	r3, r4
 8009ef2:	d807      	bhi.n	8009f04 <memmove+0x20>
 8009ef4:	1e43      	subs	r3, r0, #1
 8009ef6:	42a1      	cmp	r1, r4
 8009ef8:	d007      	beq.n	8009f0a <memmove+0x26>
 8009efa:	f811 2b01 	ldrb.w	r2, [r1], #1
 8009efe:	f803 2f01 	strb.w	r2, [r3, #1]!
 8009f02:	e7f8      	b.n	8009ef6 <memmove+0x12>
 8009f04:	4402      	add	r2, r0
 8009f06:	4282      	cmp	r2, r0
 8009f08:	d100      	bne.n	8009f0c <memmove+0x28>
 8009f0a:	bd10      	pop	{r4, pc}
 8009f0c:	f813 1d01 	ldrb.w	r1, [r3, #-1]!
 8009f10:	f802 1d01 	strb.w	r1, [r2, #-1]!
 8009f14:	e7f7      	b.n	8009f06 <memmove+0x22>
	...

08009f18 <_sbrk_r>:
 8009f18:	b538      	push	{r3, r4, r5, lr}
 8009f1a:	4d06      	ldr	r5, [pc, #24]	@ (8009f34 <_sbrk_r+0x1c>)
 8009f1c:	2300      	movs	r3, #0
 8009f1e:	4604      	mov	r4, r0
 8009f20:	4608      	mov	r0, r1
 8009f22:	602b      	str	r3, [r5, #0]
 8009f24:	f7f7 fda4 	bl	8001a70 <_sbrk>
 8009f28:	1c43      	adds	r3, r0, #1
 8009f2a:	d102      	bne.n	8009f32 <_sbrk_r+0x1a>
 8009f2c:	682b      	ldr	r3, [r5, #0]
 8009f2e:	b103      	cbz	r3, 8009f32 <_sbrk_r+0x1a>
 8009f30:	6023      	str	r3, [r4, #0]
 8009f32:	bd38      	pop	{r3, r4, r5, pc}
 8009f34:	2000d45c 	.word	0x2000d45c

08009f38 <__assert_func>:
 8009f38:	b51f      	push	{r0, r1, r2, r3, r4, lr}
 8009f3a:	4614      	mov	r4, r2
 8009f3c:	461a      	mov	r2, r3
 8009f3e:	4b09      	ldr	r3, [pc, #36]	@ (8009f64 <__assert_func+0x2c>)
 8009f40:	681b      	ldr	r3, [r3, #0]
 8009f42:	4605      	mov	r5, r0
 8009f44:	68d8      	ldr	r0, [r3, #12]
 8009f46:	b14c      	cbz	r4, 8009f5c <__assert_func+0x24>
 8009f48:	4b07      	ldr	r3, [pc, #28]	@ (8009f68 <__assert_func+0x30>)
 8009f4a:	9100      	str	r1, [sp, #0]
 8009f4c:	e9cd 3401 	strd	r3, r4, [sp, #4]
 8009f50:	4906      	ldr	r1, [pc, #24]	@ (8009f6c <__assert_func+0x34>)
 8009f52:	462b      	mov	r3, r5
 8009f54:	f000 f870 	bl	800a038 <fiprintf>
 8009f58:	f000 f900 	bl	800a15c <abort>
 8009f5c:	4b04      	ldr	r3, [pc, #16]	@ (8009f70 <__assert_func+0x38>)
 8009f5e:	461c      	mov	r4, r3
 8009f60:	e7f3      	b.n	8009f4a <__assert_func+0x12>
 8009f62:	bf00      	nop
 8009f64:	2000201c 	.word	0x2000201c
 8009f68:	0801e4d9 	.word	0x0801e4d9
 8009f6c:	0801e4e6 	.word	0x0801e4e6
 8009f70:	0801e514 	.word	0x0801e514

08009f74 <_calloc_r>:
 8009f74:	b570      	push	{r4, r5, r6, lr}
 8009f76:	fba1 5402 	umull	r5, r4, r1, r2
 8009f7a:	b934      	cbnz	r4, 8009f8a <_calloc_r+0x16>
 8009f7c:	4629      	mov	r1, r5
 8009f7e:	f7fe ffcb 	bl	8008f18 <_malloc_r>
 8009f82:	4606      	mov	r6, r0
 8009f84:	b928      	cbnz	r0, 8009f92 <_calloc_r+0x1e>
 8009f86:	4630      	mov	r0, r6
 8009f88:	bd70      	pop	{r4, r5, r6, pc}
 8009f8a:	220c      	movs	r2, #12
 8009f8c:	6002      	str	r2, [r0, #0]
 8009f8e:	2600      	movs	r6, #0
 8009f90:	e7f9      	b.n	8009f86 <_calloc_r+0x12>
 8009f92:	462a      	mov	r2, r5
 8009f94:	4621      	mov	r1, r4
 8009f96:	f7fe f859 	bl	800804c <memset>
 8009f9a:	e7f4      	b.n	8009f86 <_calloc_r+0x12>

08009f9c <__ascii_mbtowc>:
 8009f9c:	b082      	sub	sp, #8
 8009f9e:	b901      	cbnz	r1, 8009fa2 <__ascii_mbtowc+0x6>
 8009fa0:	a901      	add	r1, sp, #4
 8009fa2:	b142      	cbz	r2, 8009fb6 <__ascii_mbtowc+0x1a>
 8009fa4:	b14b      	cbz	r3, 8009fba <__ascii_mbtowc+0x1e>
 8009fa6:	7813      	ldrb	r3, [r2, #0]
 8009fa8:	600b      	str	r3, [r1, #0]
 8009faa:	7812      	ldrb	r2, [r2, #0]
 8009fac:	1e10      	subs	r0, r2, #0
 8009fae:	bf18      	it	ne
 8009fb0:	2001      	movne	r0, #1
 8009fb2:	b002      	add	sp, #8
 8009fb4:	4770      	bx	lr
 8009fb6:	4610      	mov	r0, r2
 8009fb8:	e7fb      	b.n	8009fb2 <__ascii_mbtowc+0x16>
 8009fba:	f06f 0001 	mvn.w	r0, #1
 8009fbe:	e7f8      	b.n	8009fb2 <__ascii_mbtowc+0x16>

08009fc0 <_realloc_r>:
 8009fc0:	e92d 41f0 	stmdb	sp!, {r4, r5, r6, r7, r8, lr}
 8009fc4:	4607      	mov	r7, r0
 8009fc6:	4614      	mov	r4, r2
 8009fc8:	460d      	mov	r5, r1
 8009fca:	b921      	cbnz	r1, 8009fd6 <_realloc_r+0x16>
 8009fcc:	e8bd 41f0 	ldmia.w	sp!, {r4, r5, r6, r7, r8, lr}
 8009fd0:	4611      	mov	r1, r2
 8009fd2:	f7fe bfa1 	b.w	8008f18 <_malloc_r>
 8009fd6:	b92a      	cbnz	r2, 8009fe4 <_realloc_r+0x24>
 8009fd8:	f7fe ff2a 	bl	8008e30 <_free_r>
 8009fdc:	4625      	mov	r5, r4
 8009fde:	4628      	mov	r0, r5
 8009fe0:	e8bd 81f0 	ldmia.w	sp!, {r4, r5, r6, r7, r8, pc}
 8009fe4:	f000 f8c1 	bl	800a16a <_malloc_usable_size_r>
 8009fe8:	4284      	cmp	r4, r0
 8009fea:	4606      	mov	r6, r0
 8009fec:	d802      	bhi.n	8009ff4 <_realloc_r+0x34>
 8009fee:	ebb4 0f50 	cmp.w	r4, r0, lsr #1
 8009ff2:	d8f4      	bhi.n	8009fde <_realloc_r+0x1e>
 8009ff4:	4621      	mov	r1, r4
 8009ff6:	4638      	mov	r0, r7
 8009ff8:	f7fe ff8e 	bl	8008f18 <_malloc_r>
 8009ffc:	4680      	mov	r8, r0
 8009ffe:	b908      	cbnz	r0, 800a004 <_realloc_r+0x44>
 800a000:	4645      	mov	r5, r8
 800a002:	e7ec      	b.n	8009fde <_realloc_r+0x1e>
 800a004:	42b4      	cmp	r4, r6
 800a006:	4622      	mov	r2, r4
 800a008:	4629      	mov	r1, r5
 800a00a:	bf28      	it	cs
 800a00c:	4632      	movcs	r2, r6
 800a00e:	f7fe f89c 	bl	800814a <memcpy>
 800a012:	4629      	mov	r1, r5
 800a014:	4638      	mov	r0, r7
 800a016:	f7fe ff0b 	bl	8008e30 <_free_r>
 800a01a:	e7f1      	b.n	800a000 <_realloc_r+0x40>

0800a01c <__ascii_wctomb>:
 800a01c:	4603      	mov	r3, r0
 800a01e:	4608      	mov	r0, r1
 800a020:	b141      	cbz	r1, 800a034 <__ascii_wctomb+0x18>
 800a022:	2aff      	cmp	r2, #255	@ 0xff
 800a024:	d904      	bls.n	800a030 <__ascii_wctomb+0x14>
 800a026:	228a      	movs	r2, #138	@ 0x8a
 800a028:	601a      	str	r2, [r3, #0]
 800a02a:	f04f 30ff 	mov.w	r0, #4294967295
 800a02e:	4770      	bx	lr
 800a030:	700a      	strb	r2, [r1, #0]
 800a032:	2001      	movs	r0, #1
 800a034:	4770      	bx	lr
	...

0800a038 <fiprintf>:
 800a038:	b40e      	push	{r1, r2, r3}
 800a03a:	b503      	push	{r0, r1, lr}
 800a03c:	4601      	mov	r1, r0
 800a03e:	ab03      	add	r3, sp, #12
 800a040:	4805      	ldr	r0, [pc, #20]	@ (800a058 <fiprintf+0x20>)
 800a042:	f853 2b04 	ldr.w	r2, [r3], #4
 800a046:	6800      	ldr	r0, [r0, #0]
 800a048:	9301      	str	r3, [sp, #4]
 800a04a:	f7ff fcfb 	bl	8009a44 <_vfiprintf_r>
 800a04e:	b002      	add	sp, #8
 800a050:	f85d eb04 	ldr.w	lr, [sp], #4
 800a054:	b003      	add	sp, #12
 800a056:	4770      	bx	lr
 800a058:	2000201c 	.word	0x2000201c

0800a05c <__swhatbuf_r>:
 800a05c:	b570      	push	{r4, r5, r6, lr}
 800a05e:	460c      	mov	r4, r1
 800a060:	f9b1 100e 	ldrsh.w	r1, [r1, #14]
 800a064:	2900      	cmp	r1, #0
 800a066:	b096      	sub	sp, #88	@ 0x58
 800a068:	4615      	mov	r5, r2
 800a06a:	461e      	mov	r6, r3
 800a06c:	da0a      	bge.n	800a084 <__swhatbuf_r+0x28>
 800a06e:	89a1      	ldrh	r1, [r4, #12]
 800a070:	f011 0180 	ands.w	r1, r1, #128	@ 0x80
 800a074:	d113      	bne.n	800a09e <__swhatbuf_r+0x42>
 800a076:	f44f 6280 	mov.w	r2, #1024	@ 0x400
 800a07a:	2000      	movs	r0, #0
 800a07c:	6031      	str	r1, [r6, #0]
 800a07e:	602a      	str	r2, [r5, #0]
 800a080:	b016      	add	sp, #88	@ 0x58
 800a082:	bd70      	pop	{r4, r5, r6, pc}
 800a084:	466a      	mov	r2, sp
 800a086:	f000 f847 	bl	800a118 <_fstat_r>
 800a08a:	2800      	cmp	r0, #0
 800a08c:	dbef      	blt.n	800a06e <__swhatbuf_r+0x12>
 800a08e:	9901      	ldr	r1, [sp, #4]
 800a090:	f401 4170 	and.w	r1, r1, #61440	@ 0xf000
 800a094:	f5a1 5300 	sub.w	r3, r1, #8192	@ 0x2000
 800a098:	4259      	negs	r1, r3
 800a09a:	4159      	adcs	r1, r3
 800a09c:	e7eb      	b.n	800a076 <__swhatbuf_r+0x1a>
 800a09e:	2100      	movs	r1, #0
 800a0a0:	2240      	movs	r2, #64	@ 0x40
 800a0a2:	e7ea      	b.n	800a07a <__swhatbuf_r+0x1e>

0800a0a4 <__smakebuf_r>:
 800a0a4:	898b      	ldrh	r3, [r1, #12]
 800a0a6:	b573      	push	{r0, r1, r4, r5, r6, lr}
 800a0a8:	079e      	lsls	r6, r3, #30
 800a0aa:	4605      	mov	r5, r0
 800a0ac:	460c      	mov	r4, r1
 800a0ae:	d507      	bpl.n	800a0c0 <__smakebuf_r+0x1c>
 800a0b0:	f104 0347 	add.w	r3, r4, #71	@ 0x47
 800a0b4:	6023      	str	r3, [r4, #0]
 800a0b6:	6123      	str	r3, [r4, #16]
 800a0b8:	2301      	movs	r3, #1
 800a0ba:	6163      	str	r3, [r4, #20]
 800a0bc:	b002      	add	sp, #8
 800a0be:	bd70      	pop	{r4, r5, r6, pc}
 800a0c0:	ab01      	add	r3, sp, #4
 800a0c2:	466a      	mov	r2, sp
 800a0c4:	f7ff ffca 	bl	800a05c <__swhatbuf_r>
 800a0c8:	9e00      	ldr	r6, [sp, #0]
 800a0ca:	4628      	mov	r0, r5
 800a0cc:	4631      	mov	r1, r6
 800a0ce:	f7fe ff23 	bl	8008f18 <_malloc_r>
 800a0d2:	f9b4 300c 	ldrsh.w	r3, [r4, #12]
 800a0d6:	b938      	cbnz	r0, 800a0e8 <__smakebuf_r+0x44>
 800a0d8:	059a      	lsls	r2, r3, #22
 800a0da:	d4ef      	bmi.n	800a0bc <__smakebuf_r+0x18>
 800a0dc:	f023 0303 	bic.w	r3, r3, #3
 800a0e0:	f043 0302 	orr.w	r3, r3, #2
 800a0e4:	81a3      	strh	r3, [r4, #12]
 800a0e6:	e7e3      	b.n	800a0b0 <__smakebuf_r+0xc>
 800a0e8:	f043 0380 	orr.w	r3, r3, #128	@ 0x80
 800a0ec:	81a3      	strh	r3, [r4, #12]
 800a0ee:	9b01      	ldr	r3, [sp, #4]
 800a0f0:	6020      	str	r0, [r4, #0]
 800a0f2:	e9c4 0604 	strd	r0, r6, [r4, #16]
 800a0f6:	2b00      	cmp	r3, #0
 800a0f8:	d0e0      	beq.n	800a0bc <__smakebuf_r+0x18>
 800a0fa:	f9b4 100e 	ldrsh.w	r1, [r4, #14]
 800a0fe:	4628      	mov	r0, r5
 800a100:	f000 f81c 	bl	800a13c <_isatty_r>
 800a104:	2800      	cmp	r0, #0
 800a106:	d0d9      	beq.n	800a0bc <__smakebuf_r+0x18>
 800a108:	89a3      	ldrh	r3, [r4, #12]
 800a10a:	f023 0303 	bic.w	r3, r3, #3
 800a10e:	f043 0301 	orr.w	r3, r3, #1
 800a112:	81a3      	strh	r3, [r4, #12]
 800a114:	e7d2      	b.n	800a0bc <__smakebuf_r+0x18>
	...

0800a118 <_fstat_r>:
 800a118:	b538      	push	{r3, r4, r5, lr}
 800a11a:	4d07      	ldr	r5, [pc, #28]	@ (800a138 <_fstat_r+0x20>)
 800a11c:	2300      	movs	r3, #0
 800a11e:	4604      	mov	r4, r0
 800a120:	4608      	mov	r0, r1
 800a122:	4611      	mov	r1, r2
 800a124:	602b      	str	r3, [r5, #0]
 800a126:	f7f7 fc7b 	bl	8001a20 <_fstat>
 800a12a:	1c43      	adds	r3, r0, #1
 800a12c:	d102      	bne.n	800a134 <_fstat_r+0x1c>
 800a12e:	682b      	ldr	r3, [r5, #0]
 800a130:	b103      	cbz	r3, 800a134 <_fstat_r+0x1c>
 800a132:	6023      	str	r3, [r4, #0]
 800a134:	bd38      	pop	{r3, r4, r5, pc}
 800a136:	bf00      	nop
 800a138:	2000d45c 	.word	0x2000d45c

0800a13c <_isatty_r>:
 800a13c:	b538      	push	{r3, r4, r5, lr}
 800a13e:	4d06      	ldr	r5, [pc, #24]	@ (800a158 <_isatty_r+0x1c>)
 800a140:	2300      	movs	r3, #0
 800a142:	4604      	mov	r4, r0
 800a144:	4608      	mov	r0, r1
 800a146:	602b      	str	r3, [r5, #0]
 800a148:	f7f7 fc7a 	bl	8001a40 <_isatty>
 800a14c:	1c43      	adds	r3, r0, #1
 800a14e:	d102      	bne.n	800a156 <_isatty_r+0x1a>
 800a150:	682b      	ldr	r3, [r5, #0]
 800a152:	b103      	cbz	r3, 800a156 <_isatty_r+0x1a>
 800a154:	6023      	str	r3, [r4, #0]
 800a156:	bd38      	pop	{r3, r4, r5, pc}
 800a158:	2000d45c 	.word	0x2000d45c

0800a15c <abort>:
 800a15c:	b508      	push	{r3, lr}
 800a15e:	2006      	movs	r0, #6
 800a160:	f000 f834 	bl	800a1cc <raise>
 800a164:	2001      	movs	r0, #1
 800a166:	f7f7 fc0b 	bl	8001980 <_exit>

0800a16a <_malloc_usable_size_r>:
 800a16a:	f851 3c04 	ldr.w	r3, [r1, #-4]
 800a16e:	1f18      	subs	r0, r3, #4
 800a170:	2b00      	cmp	r3, #0
 800a172:	bfbc      	itt	lt
 800a174:	580b      	ldrlt	r3, [r1, r0]
 800a176:	18c0      	addlt	r0, r0, r3
 800a178:	4770      	bx	lr

0800a17a <_raise_r>:
 800a17a:	291f      	cmp	r1, #31
 800a17c:	b538      	push	{r3, r4, r5, lr}
 800a17e:	4605      	mov	r5, r0
 800a180:	460c      	mov	r4, r1
 800a182:	d904      	bls.n	800a18e <_raise_r+0x14>
 800a184:	2316      	movs	r3, #22
 800a186:	6003      	str	r3, [r0, #0]
 800a188:	f04f 30ff 	mov.w	r0, #4294967295
 800a18c:	bd38      	pop	{r3, r4, r5, pc}
 800a18e:	6bc2      	ldr	r2, [r0, #60]	@ 0x3c
 800a190:	b112      	cbz	r2, 800a198 <_raise_r+0x1e>
 800a192:	f852 3021 	ldr.w	r3, [r2, r1, lsl #2]
 800a196:	b94b      	cbnz	r3, 800a1ac <_raise_r+0x32>
 800a198:	4628      	mov	r0, r5
 800a19a:	f000 f831 	bl	800a200 <_getpid_r>
 800a19e:	4622      	mov	r2, r4
 800a1a0:	4601      	mov	r1, r0
 800a1a2:	4628      	mov	r0, r5
 800a1a4:	e8bd 4038 	ldmia.w	sp!, {r3, r4, r5, lr}
 800a1a8:	f000 b818 	b.w	800a1dc <_kill_r>
 800a1ac:	2b01      	cmp	r3, #1
 800a1ae:	d00a      	beq.n	800a1c6 <_raise_r+0x4c>
 800a1b0:	1c59      	adds	r1, r3, #1
 800a1b2:	d103      	bne.n	800a1bc <_raise_r+0x42>
 800a1b4:	2316      	movs	r3, #22
 800a1b6:	6003      	str	r3, [r0, #0]
 800a1b8:	2001      	movs	r0, #1
 800a1ba:	e7e7      	b.n	800a18c <_raise_r+0x12>
 800a1bc:	2100      	movs	r1, #0
 800a1be:	f842 1024 	str.w	r1, [r2, r4, lsl #2]
 800a1c2:	4620      	mov	r0, r4
 800a1c4:	4798      	blx	r3
 800a1c6:	2000      	movs	r0, #0
 800a1c8:	e7e0      	b.n	800a18c <_raise_r+0x12>
	...

0800a1cc <raise>:
 800a1cc:	4b02      	ldr	r3, [pc, #8]	@ (800a1d8 <raise+0xc>)
 800a1ce:	4601      	mov	r1, r0
 800a1d0:	6818      	ldr	r0, [r3, #0]
 800a1d2:	f7ff bfd2 	b.w	800a17a <_raise_r>
 800a1d6:	bf00      	nop
 800a1d8:	2000201c 	.word	0x2000201c

0800a1dc <_kill_r>:
 800a1dc:	b538      	push	{r3, r4, r5, lr}
 800a1de:	4d07      	ldr	r5, [pc, #28]	@ (800a1fc <_kill_r+0x20>)
 800a1e0:	2300      	movs	r3, #0
 800a1e2:	4604      	mov	r4, r0
 800a1e4:	4608      	mov	r0, r1
 800a1e6:	4611      	mov	r1, r2
 800a1e8:	602b      	str	r3, [r5, #0]
 800a1ea:	f7f7 fbb9 	bl	8001960 <_kill>
 800a1ee:	1c43      	adds	r3, r0, #1
 800a1f0:	d102      	bne.n	800a1f8 <_kill_r+0x1c>
 800a1f2:	682b      	ldr	r3, [r5, #0]
 800a1f4:	b103      	cbz	r3, 800a1f8 <_kill_r+0x1c>
 800a1f6:	6023      	str	r3, [r4, #0]
 800a1f8:	bd38      	pop	{r3, r4, r5, pc}
 800a1fa:	bf00      	nop
 800a1fc:	2000d45c 	.word	0x2000d45c

0800a200 <_getpid_r>:
 800a200:	f7f7 bba6 	b.w	8001950 <_getpid>

0800a204 <cosf>:
 800a204:	ee10 3a10 	vmov	r3, s0
 800a208:	4918      	ldr	r1, [pc, #96]	@ (800a26c <cosf+0x68>)
 800a20a:	f023 4200 	bic.w	r2, r3, #2147483648	@ 0x80000000
 800a20e:	428a      	cmp	r2, r1
 800a210:	d919      	bls.n	800a246 <cosf+0x42>
 800a212:	f1b2 4fff 	cmp.w	r2, #2139095040	@ 0x7f800000
 800a216:	d302      	bcc.n	800a21e <cosf+0x1a>
 800a218:	ee30 0a40 	vsub.f32	s0, s0, s0
 800a21c:	4770      	bx	lr
 800a21e:	b500      	push	{lr}
 800a220:	b083      	sub	sp, #12
 800a222:	4668      	mov	r0, sp
 800a224:	f000 f8f0 	bl	800a408 <__ieee754_rem_pio2f>
 800a228:	f000 0003 	and.w	r0, r0, #3
 800a22c:	2801      	cmp	r0, #1
 800a22e:	ed9d 0a00 	vldr	s0, [sp]
 800a232:	eddd 0a01 	vldr	s1, [sp, #4]
 800a236:	d00f      	beq.n	800a258 <cosf+0x54>
 800a238:	2802      	cmp	r0, #2
 800a23a:	d008      	beq.n	800a24e <cosf+0x4a>
 800a23c:	b988      	cbnz	r0, 800a262 <cosf+0x5e>
 800a23e:	f000 f819 	bl	800a274 <__kernel_cosf>
 800a242:	b003      	add	sp, #12
 800a244:	bd00      	pop	{pc}
 800a246:	eddf 0a0a 	vldr	s1, [pc, #40]	@ 800a270 <cosf+0x6c>
 800a24a:	f000 b813 	b.w	800a274 <__kernel_cosf>
 800a24e:	f000 f811 	bl	800a274 <__kernel_cosf>
 800a252:	eeb1 0a40 	vneg.f32	s0, s0
 800a256:	e7f4      	b.n	800a242 <cosf+0x3e>
 800a258:	f000 f88e 	bl	800a378 <__kernel_sinf>
 800a25c:	eeb1 0a40 	vneg.f32	s0, s0
 800a260:	e7ef      	b.n	800a242 <cosf+0x3e>
 800a262:	2001      	movs	r0, #1
 800a264:	f000 f888 	bl	800a378 <__kernel_sinf>
 800a268:	e7eb      	b.n	800a242 <cosf+0x3e>
 800a26a:	bf00      	nop
 800a26c:	3f490fd8 	.word	0x3f490fd8
 800a270:	00000000 	.word	0x00000000

0800a274 <__kernel_cosf>:
 800a274:	ee10 3a10 	vmov	r3, s0
 800a278:	f023 4300 	bic.w	r3, r3, #2147483648	@ 0x80000000
 800a27c:	f1b3 5f48 	cmp.w	r3, #838860800	@ 0x32000000
 800a280:	d22c      	bcs.n	800a2dc <__kernel_cosf+0x68>
 800a282:	eefd 7ac0 	vcvt.s32.f32	s15, s0
 800a286:	ee17 3a90 	vmov	r3, s15
 800a28a:	2b00      	cmp	r3, #0
 800a28c:	d060      	beq.n	800a350 <__kernel_cosf+0xdc>
 800a28e:	ee60 7a00 	vmul.f32	s15, s0, s0
 800a292:	ed9f 7a31 	vldr	s14, [pc, #196]	@ 800a358 <__kernel_cosf+0xe4>
 800a296:	ed9f 5a31 	vldr	s10, [pc, #196]	@ 800a35c <__kernel_cosf+0xe8>
 800a29a:	eddf 5a31 	vldr	s11, [pc, #196]	@ 800a360 <__kernel_cosf+0xec>
 800a29e:	ed9f 6a31 	vldr	s12, [pc, #196]	@ 800a364 <__kernel_cosf+0xf0>
 800a2a2:	eddf 6a31 	vldr	s13, [pc, #196]	@ 800a368 <__kernel_cosf+0xf4>
 800a2a6:	eea7 5a87 	vfma.f32	s10, s15, s14
 800a2aa:	ed9f 7a30 	vldr	s14, [pc, #192]	@ 800a36c <__kernel_cosf+0xf8>
 800a2ae:	eee7 5a85 	vfma.f32	s11, s15, s10
 800a2b2:	eea7 6aa5 	vfma.f32	s12, s15, s11
 800a2b6:	eea7 7a86 	vfma.f32	s14, s15, s12
 800a2ba:	eee7 6a87 	vfma.f32	s13, s15, s14
 800a2be:	ee67 6aa6 	vmul.f32	s13, s15, s13
 800a2c2:	ee60 0ac0 	vnmul.f32	s1, s1, s0
 800a2c6:	eeb6 7a00 	vmov.f32	s14, #96	@ 0x3f000000  0.5
 800a2ca:	eee7 0aa6 	vfma.f32	s1, s15, s13
 800a2ce:	eeb7 0a00 	vmov.f32	s0, #112	@ 0x3f800000  1.0
 800a2d2:	eed7 0a87 	vfnms.f32	s1, s15, s14
 800a2d6:	ee30 0a60 	vsub.f32	s0, s0, s1
 800a2da:	4770      	bx	lr
 800a2dc:	ee60 7a00 	vmul.f32	s15, s0, s0
 800a2e0:	ed9f 7a1d 	vldr	s14, [pc, #116]	@ 800a358 <__kernel_cosf+0xe4>
 800a2e4:	ed9f 5a1d 	vldr	s10, [pc, #116]	@ 800a35c <__kernel_cosf+0xe8>
 800a2e8:	eddf 5a1d 	vldr	s11, [pc, #116]	@ 800a360 <__kernel_cosf+0xec>
 800a2ec:	ed9f 6a1d 	vldr	s12, [pc, #116]	@ 800a364 <__kernel_cosf+0xf0>
 800a2f0:	eddf 6a1d 	vldr	s13, [pc, #116]	@ 800a368 <__kernel_cosf+0xf4>
 800a2f4:	4a1e      	ldr	r2, [pc, #120]	@ (800a370 <__kernel_cosf+0xfc>)
 800a2f6:	eea7 5a87 	vfma.f32	s10, s15, s14
 800a2fa:	4293      	cmp	r3, r2
 800a2fc:	ed9f 7a1b 	vldr	s14, [pc, #108]	@ 800a36c <__kernel_cosf+0xf8>
 800a300:	eee5 5a27 	vfma.f32	s11, s10, s15
 800a304:	eea5 6aa7 	vfma.f32	s12, s11, s15
 800a308:	eea6 7a27 	vfma.f32	s14, s12, s15
 800a30c:	eee7 6a27 	vfma.f32	s13, s14, s15
 800a310:	ee66 6aa7 	vmul.f32	s13, s13, s15
 800a314:	d9d5      	bls.n	800a2c2 <__kernel_cosf+0x4e>
 800a316:	4a17      	ldr	r2, [pc, #92]	@ (800a374 <__kernel_cosf+0x100>)
 800a318:	4293      	cmp	r3, r2
 800a31a:	d814      	bhi.n	800a346 <__kernel_cosf+0xd2>
 800a31c:	f103 437f 	add.w	r3, r3, #4278190080	@ 0xff000000
 800a320:	ee07 3a10 	vmov	s14, r3
 800a324:	eeb7 6a00 	vmov.f32	s12, #112	@ 0x3f800000  1.0
 800a328:	ee36 6a47 	vsub.f32	s12, s12, s14
 800a32c:	ee60 0ac0 	vnmul.f32	s1, s1, s0
 800a330:	eef6 5a00 	vmov.f32	s11, #96	@ 0x3f000000  0.5
 800a334:	ee97 7aa5 	vfnms.f32	s14, s15, s11
 800a338:	eee7 0aa6 	vfma.f32	s1, s15, s13
 800a33c:	ee37 7a60 	vsub.f32	s14, s14, s1
 800a340:	ee36 0a47 	vsub.f32	s0, s12, s14
 800a344:	4770      	bx	lr
 800a346:	eeb6 6a07 	vmov.f32	s12, #103	@ 0x3f380000  0.7187500
 800a34a:	eeb5 7a02 	vmov.f32	s14, #82	@ 0x3e900000  0.2812500
 800a34e:	e7ed      	b.n	800a32c <__kernel_cosf+0xb8>
 800a350:	eeb7 0a00 	vmov.f32	s0, #112	@ 0x3f800000  1.0
 800a354:	4770      	bx	lr
 800a356:	bf00      	nop
 800a358:	ad47d74e 	.word	0xad47d74e
 800a35c:	310f74f6 	.word	0x310f74f6
 800a360:	b493f27c 	.word	0xb493f27c
 800a364:	37d00d01 	.word	0x37d00d01
 800a368:	3d2aaaab 	.word	0x3d2aaaab
 800a36c:	bab60b61 	.word	0xbab60b61
 800a370:	3e999999 	.word	0x3e999999
 800a374:	3f480000 	.word	0x3f480000

0800a378 <__kernel_sinf>:
 800a378:	ee10 3a10 	vmov	r3, s0
 800a37c:	f023 4300 	bic.w	r3, r3, #2147483648	@ 0x80000000
 800a380:	f1b3 5f48 	cmp.w	r3, #838860800	@ 0x32000000
 800a384:	d204      	bcs.n	800a390 <__kernel_sinf+0x18>
 800a386:	eefd 7ac0 	vcvt.s32.f32	s15, s0
 800a38a:	ee17 3a90 	vmov	r3, s15
 800a38e:	b35b      	cbz	r3, 800a3e8 <__kernel_sinf+0x70>
 800a390:	ee60 7a00 	vmul.f32	s15, s0, s0
 800a394:	ed9f 7a15 	vldr	s14, [pc, #84]	@ 800a3ec <__kernel_sinf+0x74>
 800a398:	eddf 5a15 	vldr	s11, [pc, #84]	@ 800a3f0 <__kernel_sinf+0x78>
 800a39c:	ed9f 6a15 	vldr	s12, [pc, #84]	@ 800a3f4 <__kernel_sinf+0x7c>
 800a3a0:	eddf 6a15 	vldr	s13, [pc, #84]	@ 800a3f8 <__kernel_sinf+0x80>
 800a3a4:	eee7 5a87 	vfma.f32	s11, s15, s14
 800a3a8:	ed9f 7a14 	vldr	s14, [pc, #80]	@ 800a3fc <__kernel_sinf+0x84>
 800a3ac:	eea5 6aa7 	vfma.f32	s12, s11, s15
 800a3b0:	ee20 5a27 	vmul.f32	s10, s0, s15
 800a3b4:	eee6 6a27 	vfma.f32	s13, s12, s15
 800a3b8:	eea6 7aa7 	vfma.f32	s14, s13, s15
 800a3bc:	b930      	cbnz	r0, 800a3cc <__kernel_sinf+0x54>
 800a3be:	eddf 6a10 	vldr	s13, [pc, #64]	@ 800a400 <__kernel_sinf+0x88>
 800a3c2:	eee7 6a87 	vfma.f32	s13, s15, s14
 800a3c6:	eea6 0a85 	vfma.f32	s0, s13, s10
 800a3ca:	4770      	bx	lr
 800a3cc:	ee27 7a45 	vnmul.f32	s14, s14, s10
 800a3d0:	eef6 6a00 	vmov.f32	s13, #96	@ 0x3f000000  0.5
 800a3d4:	eea0 7aa6 	vfma.f32	s14, s1, s13
 800a3d8:	eddf 6a0a 	vldr	s13, [pc, #40]	@ 800a404 <__kernel_sinf+0x8c>
 800a3dc:	eed7 0a27 	vfnms.f32	s1, s14, s15
 800a3e0:	eee5 0a26 	vfma.f32	s1, s10, s13
 800a3e4:	ee30 0a60 	vsub.f32	s0, s0, s1
 800a3e8:	4770      	bx	lr
 800a3ea:	bf00      	nop
 800a3ec:	2f2ec9d3 	.word	0x2f2ec9d3
 800a3f0:	b2d72f34 	.word	0xb2d72f34
 800a3f4:	3638ef1b 	.word	0x3638ef1b
 800a3f8:	b9500d01 	.word	0xb9500d01
 800a3fc:	3c088889 	.word	0x3c088889
 800a400:	be2aaaab 	.word	0xbe2aaaab
 800a404:	3e2aaaab 	.word	0x3e2aaaab

0800a408 <__ieee754_rem_pio2f>:
 800a408:	b570      	push	{r4, r5, r6, lr}
 800a40a:	ee10 3a10 	vmov	r3, s0
 800a40e:	4a8b      	ldr	r2, [pc, #556]	@ (800a63c <__ieee754_rem_pio2f+0x234>)
 800a410:	f023 4400 	bic.w	r4, r3, #2147483648	@ 0x80000000
 800a414:	4294      	cmp	r4, r2
 800a416:	b086      	sub	sp, #24
 800a418:	4605      	mov	r5, r0
 800a41a:	d971      	bls.n	800a500 <__ieee754_rem_pio2f+0xf8>
 800a41c:	4a88      	ldr	r2, [pc, #544]	@ (800a640 <__ieee754_rem_pio2f+0x238>)
 800a41e:	4294      	cmp	r4, r2
 800a420:	461e      	mov	r6, r3
 800a422:	d824      	bhi.n	800a46e <__ieee754_rem_pio2f+0x66>
 800a424:	f023 4200 	bic.w	r2, r3, #2147483648	@ 0x80000000
 800a428:	2b00      	cmp	r3, #0
 800a42a:	eddf 7a86 	vldr	s15, [pc, #536]	@ 800a644 <__ieee754_rem_pio2f+0x23c>
 800a42e:	4986      	ldr	r1, [pc, #536]	@ (800a648 <__ieee754_rem_pio2f+0x240>)
 800a430:	f022 020f 	bic.w	r2, r2, #15
 800a434:	eeb0 7a40 	vmov.f32	s14, s0
 800a438:	f340 80e6 	ble.w	800a608 <__ieee754_rem_pio2f+0x200>
 800a43c:	428a      	cmp	r2, r1
 800a43e:	ee70 7a67 	vsub.f32	s15, s0, s15
 800a442:	bf09      	itett	eq
 800a444:	ed9f 7a81 	vldreq	s14, [pc, #516]	@ 800a64c <__ieee754_rem_pio2f+0x244>
 800a448:	eddf 6a81 	vldrne	s13, [pc, #516]	@ 800a650 <__ieee754_rem_pio2f+0x248>
 800a44c:	eddf 6a81 	vldreq	s13, [pc, #516]	@ 800a654 <__ieee754_rem_pio2f+0x24c>
 800a450:	ee77 7ac7 	vsubeq.f32	s15, s15, s14
 800a454:	ee37 7ae6 	vsub.f32	s14, s15, s13
 800a458:	ee77 7ac7 	vsub.f32	s15, s15, s14
 800a45c:	ed80 7a00 	vstr	s14, [r0]
 800a460:	ee77 7ae6 	vsub.f32	s15, s15, s13
 800a464:	edc0 7a01 	vstr	s15, [r0, #4]
 800a468:	2001      	movs	r0, #1
 800a46a:	b006      	add	sp, #24
 800a46c:	bd70      	pop	{r4, r5, r6, pc}
 800a46e:	4a7a      	ldr	r2, [pc, #488]	@ (800a658 <__ieee754_rem_pio2f+0x250>)
 800a470:	4294      	cmp	r4, r2
 800a472:	d953      	bls.n	800a51c <__ieee754_rem_pio2f+0x114>
 800a474:	f1b4 4fff 	cmp.w	r4, #2139095040	@ 0x7f800000
 800a478:	d249      	bcs.n	800a50e <__ieee754_rem_pio2f+0x106>
 800a47a:	15e2      	asrs	r2, r4, #23
 800a47c:	3a86      	subs	r2, #134	@ 0x86
 800a47e:	eba4 53c2 	sub.w	r3, r4, r2, lsl #23
 800a482:	ee07 3a90 	vmov	s15, r3
 800a486:	eebd 7ae7 	vcvt.s32.f32	s14, s15
 800a48a:	eddf 6a74 	vldr	s13, [pc, #464]	@ 800a65c <__ieee754_rem_pio2f+0x254>
 800a48e:	eeb8 7ac7 	vcvt.f32.s32	s14, s14
 800a492:	ee77 7ac7 	vsub.f32	s15, s15, s14
 800a496:	ed8d 7a03 	vstr	s14, [sp, #12]
 800a49a:	ee67 7aa6 	vmul.f32	s15, s15, s13
 800a49e:	eebd 7ae7 	vcvt.s32.f32	s14, s15
 800a4a2:	eeb8 7ac7 	vcvt.f32.s32	s14, s14
 800a4a6:	ee77 7ac7 	vsub.f32	s15, s15, s14
 800a4aa:	ed8d 7a04 	vstr	s14, [sp, #16]
 800a4ae:	ee67 7aa6 	vmul.f32	s15, s15, s13
 800a4b2:	eef5 7a40 	vcmp.f32	s15, #0.0
 800a4b6:	eef1 fa10 	vmrs	APSR_nzcv, fpscr
 800a4ba:	edcd 7a05 	vstr	s15, [sp, #20]
 800a4be:	f040 808e 	bne.w	800a5de <__ieee754_rem_pio2f+0x1d6>
 800a4c2:	eeb5 7a40 	vcmp.f32	s14, #0.0
 800a4c6:	eef1 fa10 	vmrs	APSR_nzcv, fpscr
 800a4ca:	f040 808a 	bne.w	800a5e2 <__ieee754_rem_pio2f+0x1da>
 800a4ce:	2301      	movs	r3, #1
 800a4d0:	4963      	ldr	r1, [pc, #396]	@ (800a660 <__ieee754_rem_pio2f+0x258>)
 800a4d2:	9101      	str	r1, [sp, #4]
 800a4d4:	2102      	movs	r1, #2
 800a4d6:	9100      	str	r1, [sp, #0]
 800a4d8:	a803      	add	r0, sp, #12
 800a4da:	4629      	mov	r1, r5
 800a4dc:	f000 f940 	bl	800a760 <__kernel_rem_pio2f>
 800a4e0:	2e00      	cmp	r6, #0
 800a4e2:	dac2      	bge.n	800a46a <__ieee754_rem_pio2f+0x62>
 800a4e4:	ed95 7a00 	vldr	s14, [r5]
 800a4e8:	edd5 7a01 	vldr	s15, [r5, #4]
 800a4ec:	eeb1 7a47 	vneg.f32	s14, s14
 800a4f0:	eef1 7a67 	vneg.f32	s15, s15
 800a4f4:	ed85 7a00 	vstr	s14, [r5]
 800a4f8:	edc5 7a01 	vstr	s15, [r5, #4]
 800a4fc:	4240      	negs	r0, r0
 800a4fe:	e7b4      	b.n	800a46a <__ieee754_rem_pio2f+0x62>
 800a500:	2200      	movs	r2, #0
 800a502:	ed85 0a00 	vstr	s0, [r5]
 800a506:	6042      	str	r2, [r0, #4]
 800a508:	2000      	movs	r0, #0
 800a50a:	b006      	add	sp, #24
 800a50c:	bd70      	pop	{r4, r5, r6, pc}
 800a50e:	ee70 7a40 	vsub.f32	s15, s0, s0
 800a512:	edc0 7a01 	vstr	s15, [r0, #4]
 800a516:	edc0 7a00 	vstr	s15, [r0]
 800a51a:	e7f5      	b.n	800a508 <__ieee754_rem_pio2f+0x100>
 800a51c:	f000 f8aa 	bl	800a674 <fabsf>
 800a520:	ed9f 7a50 	vldr	s14, [pc, #320]	@ 800a664 <__ieee754_rem_pio2f+0x25c>
 800a524:	ed9f 6a47 	vldr	s12, [pc, #284]	@ 800a644 <__ieee754_rem_pio2f+0x23c>
 800a528:	eef6 7a00 	vmov.f32	s15, #96	@ 0x3f000000  0.5
 800a52c:	eee0 7a07 	vfma.f32	s15, s0, s14
 800a530:	ed9f 7a47 	vldr	s14, [pc, #284]	@ 800a650 <__ieee754_rem_pio2f+0x248>
 800a534:	eefd 7ae7 	vcvt.s32.f32	s15, s15
 800a538:	eef8 6ae7 	vcvt.f32.s32	s13, s15
 800a53c:	ee17 0a90 	vmov	r0, s15
 800a540:	eea6 0ac6 	vfms.f32	s0, s13, s12
 800a544:	281f      	cmp	r0, #31
 800a546:	ee66 7a87 	vmul.f32	s15, s13, s14
 800a54a:	eeb1 6a66 	vneg.f32	s12, s13
 800a54e:	ee30 7a67 	vsub.f32	s14, s0, s15
 800a552:	dc1e      	bgt.n	800a592 <__ieee754_rem_pio2f+0x18a>
 800a554:	4a44      	ldr	r2, [pc, #272]	@ (800a668 <__ieee754_rem_pio2f+0x260>)
 800a556:	1e41      	subs	r1, r0, #1
 800a558:	f026 4300 	bic.w	r3, r6, #2147483648	@ 0x80000000
 800a55c:	f852 2021 	ldr.w	r2, [r2, r1, lsl #2]
 800a560:	f023 03ff 	bic.w	r3, r3, #255	@ 0xff
 800a564:	4293      	cmp	r3, r2
 800a566:	d014      	beq.n	800a592 <__ieee754_rem_pio2f+0x18a>
 800a568:	ed85 7a00 	vstr	s14, [r5]
 800a56c:	ee30 0a47 	vsub.f32	s0, s0, s14
 800a570:	2e00      	cmp	r6, #0
 800a572:	ee30 0a67 	vsub.f32	s0, s0, s15
 800a576:	ed85 0a01 	vstr	s0, [r5, #4]
 800a57a:	f6bf af76 	bge.w	800a46a <__ieee754_rem_pio2f+0x62>
 800a57e:	eeb1 7a47 	vneg.f32	s14, s14
 800a582:	eeb1 0a40 	vneg.f32	s0, s0
 800a586:	ed85 7a00 	vstr	s14, [r5]
 800a58a:	ed85 0a01 	vstr	s0, [r5, #4]
 800a58e:	4240      	negs	r0, r0
 800a590:	e76b      	b.n	800a46a <__ieee754_rem_pio2f+0x62>
 800a592:	ee17 3a10 	vmov	r3, s14
 800a596:	f3c3 53c7 	ubfx	r3, r3, #23, #8
 800a59a:	ebc3 53d4 	rsb	r3, r3, r4, lsr #23
 800a59e:	2b08      	cmp	r3, #8
 800a5a0:	ea4f 52e4 	mov.w	r2, r4, asr #23
 800a5a4:	dde0      	ble.n	800a568 <__ieee754_rem_pio2f+0x160>
 800a5a6:	ed9f 7a29 	vldr	s14, [pc, #164]	@ 800a64c <__ieee754_rem_pio2f+0x244>
 800a5aa:	ed9f 5a2a 	vldr	s10, [pc, #168]	@ 800a654 <__ieee754_rem_pio2f+0x24c>
 800a5ae:	eef0 5a40 	vmov.f32	s11, s0
 800a5b2:	eee6 5a07 	vfma.f32	s11, s12, s14
 800a5b6:	ee70 7a65 	vsub.f32	s15, s0, s11
 800a5ba:	eee6 7a07 	vfma.f32	s15, s12, s14
 800a5be:	eed6 7a85 	vfnms.f32	s15, s13, s10
 800a5c2:	ee35 7ae7 	vsub.f32	s14, s11, s15
 800a5c6:	ee17 3a10 	vmov	r3, s14
 800a5ca:	f3c3 53c7 	ubfx	r3, r3, #23, #8
 800a5ce:	1ad2      	subs	r2, r2, r3
 800a5d0:	2a19      	cmp	r2, #25
 800a5d2:	dc08      	bgt.n	800a5e6 <__ieee754_rem_pio2f+0x1de>
 800a5d4:	eeb0 0a65 	vmov.f32	s0, s11
 800a5d8:	ed85 7a00 	vstr	s14, [r5]
 800a5dc:	e7c6      	b.n	800a56c <__ieee754_rem_pio2f+0x164>
 800a5de:	2303      	movs	r3, #3
 800a5e0:	e776      	b.n	800a4d0 <__ieee754_rem_pio2f+0xc8>
 800a5e2:	2302      	movs	r3, #2
 800a5e4:	e774      	b.n	800a4d0 <__ieee754_rem_pio2f+0xc8>
 800a5e6:	ed9f 7a21 	vldr	s14, [pc, #132]	@ 800a66c <__ieee754_rem_pio2f+0x264>
 800a5ea:	ed9f 5a21 	vldr	s10, [pc, #132]	@ 800a670 <__ieee754_rem_pio2f+0x268>
 800a5ee:	eeb0 0a65 	vmov.f32	s0, s11
 800a5f2:	eea6 0a07 	vfma.f32	s0, s12, s14
 800a5f6:	ee75 7ac0 	vsub.f32	s15, s11, s0
 800a5fa:	eee6 7a07 	vfma.f32	s15, s12, s14
 800a5fe:	eed6 7a85 	vfnms.f32	s15, s13, s10
 800a602:	ee30 7a67 	vsub.f32	s14, s0, s15
 800a606:	e7af      	b.n	800a568 <__ieee754_rem_pio2f+0x160>
 800a608:	428a      	cmp	r2, r1
 800a60a:	ee70 7a27 	vadd.f32	s15, s0, s15
 800a60e:	bf09      	itett	eq
 800a610:	ed9f 7a0e 	vldreq	s14, [pc, #56]	@ 800a64c <__ieee754_rem_pio2f+0x244>
 800a614:	eddf 6a0e 	vldrne	s13, [pc, #56]	@ 800a650 <__ieee754_rem_pio2f+0x248>
 800a618:	eddf 6a0e 	vldreq	s13, [pc, #56]	@ 800a654 <__ieee754_rem_pio2f+0x24c>
 800a61c:	ee77 7a87 	vaddeq.f32	s15, s15, s14
 800a620:	ee37 7aa6 	vadd.f32	s14, s15, s13
 800a624:	ee77 7ac7 	vsub.f32	s15, s15, s14
 800a628:	ed80 7a00 	vstr	s14, [r0]
 800a62c:	ee77 7aa6 	vadd.f32	s15, s15, s13
 800a630:	edc0 7a01 	vstr	s15, [r0, #4]
 800a634:	f04f 30ff 	mov.w	r0, #4294967295
 800a638:	e717      	b.n	800a46a <__ieee754_rem_pio2f+0x62>
 800a63a:	bf00      	nop
 800a63c:	3f490fd8 	.word	0x3f490fd8
 800a640:	4016cbe3 	.word	0x4016cbe3
 800a644:	3fc90f80 	.word	0x3fc90f80
 800a648:	3fc90fd0 	.word	0x3fc90fd0
 800a64c:	37354400 	.word	0x37354400
 800a650:	37354443 	.word	0x37354443
 800a654:	2e85a308 	.word	0x2e85a308
 800a658:	43490f80 	.word	0x43490f80
 800a65c:	43800000 	.word	0x43800000
 800a660:	0801e79c 	.word	0x0801e79c
 800a664:	3f22f984 	.word	0x3f22f984
 800a668:	0801e71c 	.word	0x0801e71c
 800a66c:	2e85a300 	.word	0x2e85a300
 800a670:	248d3132 	.word	0x248d3132

0800a674 <fabsf>:
 800a674:	ee10 3a10 	vmov	r3, s0
 800a678:	f023 4300 	bic.w	r3, r3, #2147483648	@ 0x80000000
 800a67c:	ee00 3a10 	vmov	s0, r3
 800a680:	4770      	bx	lr
 800a682:	bf00      	nop

0800a684 <scalbnf>:
 800a684:	ee10 3a10 	vmov	r3, s0
 800a688:	f033 4100 	bics.w	r1, r3, #2147483648	@ 0x80000000
 800a68c:	461a      	mov	r2, r3
 800a68e:	d025      	beq.n	800a6dc <scalbnf+0x58>
 800a690:	f1b1 4fff 	cmp.w	r1, #2139095040	@ 0x7f800000
 800a694:	d21f      	bcs.n	800a6d6 <scalbnf+0x52>
 800a696:	f013 4fff 	tst.w	r3, #2139095040	@ 0x7f800000
 800a69a:	d120      	bne.n	800a6de <scalbnf+0x5a>
 800a69c:	eddf 7a29 	vldr	s15, [pc, #164]	@ 800a744 <scalbnf+0xc0>
 800a6a0:	4a29      	ldr	r2, [pc, #164]	@ (800a748 <scalbnf+0xc4>)
 800a6a2:	ee60 7a27 	vmul.f32	s15, s0, s15
 800a6a6:	4290      	cmp	r0, r2
 800a6a8:	ee17 3a90 	vmov	r3, s15
 800a6ac:	db31      	blt.n	800a712 <scalbnf+0x8e>
 800a6ae:	f24c 3c50 	movw	ip, #50000	@ 0xc350
 800a6b2:	f3c3 51c7 	ubfx	r1, r3, #23, #8
 800a6b6:	4560      	cmp	r0, ip
 800a6b8:	461a      	mov	r2, r3
 800a6ba:	f1a1 0119 	sub.w	r1, r1, #25
 800a6be:	dd14      	ble.n	800a6ea <scalbnf+0x66>
 800a6c0:	2b00      	cmp	r3, #0
 800a6c2:	eddf 7a22 	vldr	s15, [pc, #136]	@ 800a74c <scalbnf+0xc8>
 800a6c6:	ed9f 0a21 	vldr	s0, [pc, #132]	@ 800a74c <scalbnf+0xc8>
 800a6ca:	bfb8      	it	lt
 800a6cc:	eddf 7a20 	vldrlt	s15, [pc, #128]	@ 800a750 <scalbnf+0xcc>
 800a6d0:	ee27 0a80 	vmul.f32	s0, s15, s0
 800a6d4:	4770      	bx	lr
 800a6d6:	ee30 0a00 	vadd.f32	s0, s0, s0
 800a6da:	4770      	bx	lr
 800a6dc:	4770      	bx	lr
 800a6de:	f24c 3c50 	movw	ip, #50000	@ 0xc350
 800a6e2:	4560      	cmp	r0, ip
 800a6e4:	ea4f 51d1 	mov.w	r1, r1, lsr #23
 800a6e8:	dcea      	bgt.n	800a6c0 <scalbnf+0x3c>
 800a6ea:	4401      	add	r1, r0
 800a6ec:	29fe      	cmp	r1, #254	@ 0xfe
 800a6ee:	dce7      	bgt.n	800a6c0 <scalbnf+0x3c>
 800a6f0:	2900      	cmp	r1, #0
 800a6f2:	dc15      	bgt.n	800a720 <scalbnf+0x9c>
 800a6f4:	f111 0f16 	cmn.w	r1, #22
 800a6f8:	db19      	blt.n	800a72e <scalbnf+0xaa>
 800a6fa:	3119      	adds	r1, #25
 800a6fc:	f022 42ff 	bic.w	r2, r2, #2139095040	@ 0x7f800000
 800a700:	ea42 52c1 	orr.w	r2, r2, r1, lsl #23
 800a704:	ee07 2a90 	vmov	s15, r2
 800a708:	ed9f 0a12 	vldr	s0, [pc, #72]	@ 800a754 <scalbnf+0xd0>
 800a70c:	ee27 0a80 	vmul.f32	s0, s15, s0
 800a710:	4770      	bx	lr
 800a712:	eddf 7a11 	vldr	s15, [pc, #68]	@ 800a758 <scalbnf+0xd4>
 800a716:	ee07 3a10 	vmov	s14, r3
 800a71a:	ee27 0a27 	vmul.f32	s0, s14, s15
 800a71e:	4770      	bx	lr
 800a720:	f022 42ff 	bic.w	r2, r2, #2139095040	@ 0x7f800000
 800a724:	ea42 53c1 	orr.w	r3, r2, r1, lsl #23
 800a728:	ee00 3a10 	vmov	s0, r3
 800a72c:	4770      	bx	lr
 800a72e:	2b00      	cmp	r3, #0
 800a730:	eddf 7a09 	vldr	s15, [pc, #36]	@ 800a758 <scalbnf+0xd4>
 800a734:	ed9f 0a08 	vldr	s0, [pc, #32]	@ 800a758 <scalbnf+0xd4>
 800a738:	bfb8      	it	lt
 800a73a:	eddf 7a08 	vldrlt	s15, [pc, #32]	@ 800a75c <scalbnf+0xd8>
 800a73e:	ee27 0a80 	vmul.f32	s0, s15, s0
 800a742:	4770      	bx	lr
 800a744:	4c000000 	.word	0x4c000000
 800a748:	ffff3cb0 	.word	0xffff3cb0
 800a74c:	7149f2ca 	.word	0x7149f2ca
 800a750:	f149f2ca 	.word	0xf149f2ca
 800a754:	33000000 	.word	0x33000000
 800a758:	0da24260 	.word	0x0da24260
 800a75c:	8da24260 	.word	0x8da24260

0800a760 <__kernel_rem_pio2f>:
 800a760:	e92d 4ff0 	stmdb	sp!, {r4, r5, r6, r7, r8, r9, sl, fp, lr}
 800a764:	ed2d 8b04 	vpush	{d8-d9}
 800a768:	b0db      	sub	sp, #364	@ 0x16c
 800a76a:	461c      	mov	r4, r3
 800a76c:	4694      	mov	ip, r2
 800a76e:	9303      	str	r3, [sp, #12]
 800a770:	460a      	mov	r2, r1
 800a772:	4bba      	ldr	r3, [pc, #744]	@ (800aa5c <__kernel_rem_pio2f+0x2fc>)
 800a774:	9968      	ldr	r1, [sp, #416]	@ 0x1a0
 800a776:	f11c 0f04 	cmn.w	ip, #4
 800a77a:	f853 7021 	ldr.w	r7, [r3, r1, lsl #2]
 800a77e:	4682      	mov	sl, r0
 800a780:	f104 39ff 	add.w	r9, r4, #4294967295
 800a784:	f2c0 8256 	blt.w	800ac34 <__kernel_rem_pio2f+0x4d4>
 800a788:	f1bc 0303 	subs.w	r3, ip, #3
 800a78c:	bf48      	it	mi
 800a78e:	f10c 0304 	addmi.w	r3, ip, #4
 800a792:	10db      	asrs	r3, r3, #3
 800a794:	9302      	str	r3, [sp, #8]
 800a796:	3301      	adds	r3, #1
 800a798:	ea4f 0ec3 	mov.w	lr, r3, lsl #3
 800a79c:	ebac 030e 	sub.w	r3, ip, lr
 800a7a0:	9305      	str	r3, [sp, #20]
 800a7a2:	9b02      	ldr	r3, [sp, #8]
 800a7a4:	eb17 0009 	adds.w	r0, r7, r9
 800a7a8:	eba3 0309 	sub.w	r3, r3, r9
 800a7ac:	d416      	bmi.n	800a7dc <__kernel_rem_pio2f+0x7c>
 800a7ae:	3001      	adds	r0, #1
 800a7b0:	ed9f 7aab 	vldr	s14, [pc, #684]	@ 800aa60 <__kernel_rem_pio2f+0x300>
 800a7b4:	9c69      	ldr	r4, [sp, #420]	@ 0x1a4
 800a7b6:	4418      	add	r0, r3
 800a7b8:	a91e      	add	r1, sp, #120	@ 0x78
 800a7ba:	2b00      	cmp	r3, #0
 800a7bc:	bfa4      	itt	ge
 800a7be:	f854 5023 	ldrge.w	r5, [r4, r3, lsl #2]
 800a7c2:	ee07 5a90 	vmovge	s15, r5
 800a7c6:	f103 0301 	add.w	r3, r3, #1
 800a7ca:	bfac      	ite	ge
 800a7cc:	eef8 7ae7 	vcvtge.f32.s32	s15, s15
 800a7d0:	eef0 7a47 	vmovlt.f32	s15, s14
 800a7d4:	4283      	cmp	r3, r0
 800a7d6:	ece1 7a01 	vstmia	r1!, {s15}
 800a7da:	d1ee      	bne.n	800a7ba <__kernel_rem_pio2f+0x5a>
 800a7dc:	2f00      	cmp	r7, #0
 800a7de:	f2c0 82e2 	blt.w	800ada6 <__kernel_rem_pio2f+0x646>
 800a7e2:	9903      	ldr	r1, [sp, #12]
 800a7e4:	a81e      	add	r0, sp, #120	@ 0x78
 800a7e6:	eb00 0081 	add.w	r0, r0, r1, lsl #2
 800a7ea:	ea4f 0881 	mov.w	r8, r1, lsl #2
 800a7ee:	187e      	adds	r6, r7, r1
 800a7f0:	2300      	movs	r3, #0
 800a7f2:	ad46      	add	r5, sp, #280	@ 0x118
 800a7f4:	464c      	mov	r4, r9
 800a7f6:	eb0a 0181 	add.w	r1, sl, r1, lsl #2
 800a7fa:	f1b9 0f00 	cmp.w	r9, #0
 800a7fe:	f280 80c8 	bge.w	800a992 <__kernel_rem_pio2f+0x232>
 800a802:	3401      	adds	r4, #1
 800a804:	42b4      	cmp	r4, r6
 800a806:	f845 3b04 	str.w	r3, [r5], #4
 800a80a:	f100 0004 	add.w	r0, r0, #4
 800a80e:	d1f4      	bne.n	800a7fa <__kernel_rem_pio2f+0x9a>
 800a810:	f10d 0b28 	add.w	fp, sp, #40	@ 0x28
 800a814:	eb0b 0387 	add.w	r3, fp, r7, lsl #2
 800a818:	e9cd 2e06 	strd	r2, lr, [sp, #24]
 800a81c:	3b04      	subs	r3, #4
 800a81e:	ed9f 9a92 	vldr	s18, [pc, #584]	@ 800aa68 <__kernel_rem_pio2f+0x308>
 800a822:	eddf 8a90 	vldr	s17, [pc, #576]	@ 800aa64 <__kernel_rem_pio2f+0x304>
 800a826:	9805      	ldr	r0, [sp, #20]
 800a828:	9304      	str	r3, [sp, #16]
 800a82a:	eb0a 0408 	add.w	r4, sl, r8
 800a82e:	ae46      	add	r6, sp, #280	@ 0x118
 800a830:	eb0b 0887 	add.w	r8, fp, r7, lsl #2
 800a834:	9700      	str	r7, [sp, #0]
 800a836:	f8cd c020 	str.w	ip, [sp, #32]
 800a83a:	eb0d 0387 	add.w	r3, sp, r7, lsl #2
 800a83e:	2f00      	cmp	r7, #0
 800a840:	ed93 0a46 	vldr	s0, [r3, #280]	@ 0x118
 800a844:	ea4f 0587 	mov.w	r5, r7, lsl #2
 800a848:	dd15      	ble.n	800a876 <__kernel_rem_pio2f+0x116>
 800a84a:	1973      	adds	r3, r6, r5
 800a84c:	465a      	mov	r2, fp
 800a84e:	ee60 7a09 	vmul.f32	s15, s0, s18
 800a852:	eeb0 7a40 	vmov.f32	s14, s0
 800a856:	eefd 7ae7 	vcvt.s32.f32	s15, s15
 800a85a:	ed73 6a01 	vldmdb	r3!, {s13}
 800a85e:	eef8 7ae7 	vcvt.f32.s32	s15, s15
 800a862:	42b3      	cmp	r3, r6
 800a864:	eea7 7ae8 	vfms.f32	s14, s15, s17
 800a868:	ee37 0aa6 	vadd.f32	s0, s15, s13
 800a86c:	eebd 7ac7 	vcvt.s32.f32	s14, s14
 800a870:	eca2 7a01 	vstmia	r2!, {s14}
 800a874:	d1eb      	bne.n	800a84e <__kernel_rem_pio2f+0xee>
 800a876:	9001      	str	r0, [sp, #4]
 800a878:	f7ff ff04 	bl	800a684 <scalbnf>
 800a87c:	eef4 7a00 	vmov.f32	s15, #64	@ 0x3e000000  0.125
 800a880:	eeb0 8a40 	vmov.f32	s16, s0
 800a884:	ee20 0a27 	vmul.f32	s0, s0, s15
 800a888:	f000 fab0 	bl	800adec <floorf>
 800a88c:	eef2 7a00 	vmov.f32	s15, #32	@ 0x41000000  8.0
 800a890:	eea0 8a67 	vfms.f32	s16, s0, s15
 800a894:	9801      	ldr	r0, [sp, #4]
 800a896:	2800      	cmp	r0, #0
 800a898:	eefd 9ac8 	vcvt.s32.f32	s19, s16
 800a89c:	eef8 7ae9 	vcvt.f32.s32	s15, s19
 800a8a0:	ee38 8a67 	vsub.f32	s16, s16, s15
 800a8a4:	f340 8082 	ble.w	800a9ac <__kernel_rem_pio2f+0x24c>
 800a8a8:	1e79      	subs	r1, r7, #1
 800a8aa:	f1c0 0308 	rsb	r3, r0, #8
 800a8ae:	f85b e021 	ldr.w	lr, [fp, r1, lsl #2]
 800a8b2:	fa4e fc03 	asr.w	ip, lr, r3
 800a8b6:	fa0c f303 	lsl.w	r3, ip, r3
 800a8ba:	ebae 0e03 	sub.w	lr, lr, r3
 800a8be:	f1c0 0207 	rsb	r2, r0, #7
 800a8c2:	ee19 3a90 	vmov	r3, s19
 800a8c6:	fa4e f202 	asr.w	r2, lr, r2
 800a8ca:	4463      	add	r3, ip
 800a8cc:	2a00      	cmp	r2, #0
 800a8ce:	ee09 3a90 	vmov	s19, r3
 800a8d2:	f84b e021 	str.w	lr, [fp, r1, lsl #2]
 800a8d6:	f300 80af 	bgt.w	800aa38 <__kernel_rem_pio2f+0x2d8>
 800a8da:	eeb5 8a40 	vcmp.f32	s16, #0.0
 800a8de:	eef1 fa10 	vmrs	APSR_nzcv, fpscr
 800a8e2:	d174      	bne.n	800a9ce <__kernel_rem_pio2f+0x26e>
 800a8e4:	9b00      	ldr	r3, [sp, #0]
 800a8e6:	429f      	cmp	r7, r3
 800a8e8:	dd0a      	ble.n	800a900 <__kernel_rem_pio2f+0x1a0>
 800a8ea:	445d      	add	r5, fp
 800a8ec:	2300      	movs	r3, #0
 800a8ee:	f855 1d04 	ldr.w	r1, [r5, #-4]!
 800a8f2:	4545      	cmp	r5, r8
 800a8f4:	ea43 0301 	orr.w	r3, r3, r1
 800a8f8:	d1f9      	bne.n	800a8ee <__kernel_rem_pio2f+0x18e>
 800a8fa:	2b00      	cmp	r3, #0
 800a8fc:	f040 8102 	bne.w	800ab04 <__kernel_rem_pio2f+0x3a4>
 800a900:	9b00      	ldr	r3, [sp, #0]
 800a902:	3b01      	subs	r3, #1
 800a904:	f85b 2023 	ldr.w	r2, [fp, r3, lsl #2]
 800a908:	1c7b      	adds	r3, r7, #1
 800a90a:	469c      	mov	ip, r3
 800a90c:	2a00      	cmp	r2, #0
 800a90e:	f040 80f7 	bne.w	800ab00 <__kernel_rem_pio2f+0x3a0>
 800a912:	9a04      	ldr	r2, [sp, #16]
 800a914:	2101      	movs	r1, #1
 800a916:	f852 5d04 	ldr.w	r5, [r2, #-4]!
 800a91a:	3101      	adds	r1, #1
 800a91c:	2d00      	cmp	r5, #0
 800a91e:	d0fa      	beq.n	800a916 <__kernel_rem_pio2f+0x1b6>
 800a920:	4439      	add	r1, r7
 800a922:	9d02      	ldr	r5, [sp, #8]
 800a924:	9a03      	ldr	r2, [sp, #12]
 800a926:	eb05 0e03 	add.w	lr, r5, r3
 800a92a:	f10e 4e80 	add.w	lr, lr, #1073741824	@ 0x40000000
 800a92e:	9d69      	ldr	r5, [sp, #420]	@ 0x1a4
 800a930:	f10e 3eff 	add.w	lr, lr, #4294967295
 800a934:	443a      	add	r2, r7
 800a936:	eb05 0e8e 	add.w	lr, r5, lr, lsl #2
 800a93a:	ad1e      	add	r5, sp, #120	@ 0x78
 800a93c:	eb06 0783 	add.w	r7, r6, r3, lsl #2
 800a940:	eb05 0582 	add.w	r5, r5, r2, lsl #2
 800a944:	edde 7a01 	vldr	s15, [lr, #4]
 800a948:	eef8 7ae7 	vcvt.f32.s32	s15, s15
 800a94c:	f1b9 0f00 	cmp.w	r9, #0
 800a950:	f10e 0e04 	add.w	lr, lr, #4
 800a954:	ece5 7a01 	vstmia	r5!, {s15}
 800a958:	eddf 7a41 	vldr	s15, [pc, #260]	@ 800aa60 <__kernel_rem_pio2f+0x300>
 800a95c:	db09      	blt.n	800a972 <__kernel_rem_pio2f+0x212>
 800a95e:	462a      	mov	r2, r5
 800a960:	4653      	mov	r3, sl
 800a962:	ecf3 6a01 	vldmia	r3!, {s13}
 800a966:	ed32 7a01 	vldmdb	r2!, {s14}
 800a96a:	42a3      	cmp	r3, r4
 800a96c:	eee6 7a87 	vfma.f32	s15, s13, s14
 800a970:	d1f7      	bne.n	800a962 <__kernel_rem_pio2f+0x202>
 800a972:	f10c 0c01 	add.w	ip, ip, #1
 800a976:	458c      	cmp	ip, r1
 800a978:	ece7 7a01 	vstmia	r7!, {s15}
 800a97c:	dde2      	ble.n	800a944 <__kernel_rem_pio2f+0x1e4>
 800a97e:	460f      	mov	r7, r1
 800a980:	e75b      	b.n	800a83a <__kernel_rem_pio2f+0xda>
 800a982:	3401      	adds	r4, #1
 800a984:	42b4      	cmp	r4, r6
 800a986:	ece5 7a01 	vstmia	r5!, {s15}
 800a98a:	f100 0004 	add.w	r0, r0, #4
 800a98e:	f43f af3f 	beq.w	800a810 <__kernel_rem_pio2f+0xb0>
 800a992:	eddf 7a33 	vldr	s15, [pc, #204]	@ 800aa60 <__kernel_rem_pio2f+0x300>
 800a996:	4683      	mov	fp, r0
 800a998:	4653      	mov	r3, sl
 800a99a:	ecf3 6a01 	vldmia	r3!, {s13}
 800a99e:	ed3b 7a01 	vldmdb	fp!, {s14}
 800a9a2:	428b      	cmp	r3, r1
 800a9a4:	eee6 7a87 	vfma.f32	s15, s13, s14
 800a9a8:	d1f7      	bne.n	800a99a <__kernel_rem_pio2f+0x23a>
 800a9aa:	e7ea      	b.n	800a982 <__kernel_rem_pio2f+0x222>
 800a9ac:	f000 8091 	beq.w	800aad2 <__kernel_rem_pio2f+0x372>
 800a9b0:	eef6 7a00 	vmov.f32	s15, #96	@ 0x3f000000  0.5
 800a9b4:	eeb4 8ae7 	vcmpe.f32	s16, s15
 800a9b8:	eef1 fa10 	vmrs	APSR_nzcv, fpscr
 800a9bc:	f280 8129 	bge.w	800ac12 <__kernel_rem_pio2f+0x4b2>
 800a9c0:	eeb5 8a40 	vcmp.f32	s16, #0.0
 800a9c4:	eef1 fa10 	vmrs	APSR_nzcv, fpscr
 800a9c8:	f04f 0200 	mov.w	r2, #0
 800a9cc:	d08a      	beq.n	800a8e4 <__kernel_rem_pio2f+0x184>
 800a9ce:	4692      	mov	sl, r2
 800a9d0:	e9dd 2e06 	ldrd	r2, lr, [sp, #24]
 800a9d4:	f8dd c020 	ldr.w	ip, [sp, #32]
 800a9d8:	9701      	str	r7, [sp, #4]
 800a9da:	ebae 000c 	sub.w	r0, lr, ip
 800a9de:	eeb0 0a48 	vmov.f32	s0, s16
 800a9e2:	9f00      	ldr	r7, [sp, #0]
 800a9e4:	9200      	str	r2, [sp, #0]
 800a9e6:	f7ff fe4d 	bl	800a684 <scalbnf>
 800a9ea:	eddf 6a1e 	vldr	s13, [pc, #120]	@ 800aa64 <__kernel_rem_pio2f+0x304>
 800a9ee:	eeb4 0ae6 	vcmpe.f32	s0, s13
 800a9f2:	eef1 fa10 	vmrs	APSR_nzcv, fpscr
 800a9f6:	e9dd 2300 	ldrd	r2, r3, [sp]
 800a9fa:	eef0 7a40 	vmov.f32	s15, s0
 800a9fe:	f2c0 819c 	blt.w	800ad3a <__kernel_rem_pio2f+0x5da>
 800aa02:	ed9f 7a19 	vldr	s14, [pc, #100]	@ 800aa68 <__kernel_rem_pio2f+0x308>
 800aa06:	9905      	ldr	r1, [sp, #20]
 800aa08:	ee20 7a07 	vmul.f32	s14, s0, s14
 800aa0c:	3108      	adds	r1, #8
 800aa0e:	eebd 7ac7 	vcvt.s32.f32	s14, s14
 800aa12:	9105      	str	r1, [sp, #20]
 800aa14:	eeb8 7ac7 	vcvt.f32.s32	s14, s14
 800aa18:	1c5c      	adds	r4, r3, #1
 800aa1a:	eee7 7a66 	vfms.f32	s15, s14, s13
 800aa1e:	eebd 7ac7 	vcvt.s32.f32	s14, s14
 800aa22:	eefd 7ae7 	vcvt.s32.f32	s15, s15
 800aa26:	ee17 1a90 	vmov	r1, s15
 800aa2a:	f84b 1023 	str.w	r1, [fp, r3, lsl #2]
 800aa2e:	ee17 3a10 	vmov	r3, s14
 800aa32:	f84b 3024 	str.w	r3, [fp, r4, lsl #2]
 800aa36:	e07e      	b.n	800ab36 <__kernel_rem_pio2f+0x3d6>
 800aa38:	3301      	adds	r3, #1
 800aa3a:	2f00      	cmp	r7, #0
 800aa3c:	ee09 3a90 	vmov	s19, r3
 800aa40:	f340 819d 	ble.w	800ad7e <__kernel_rem_pio2f+0x61e>
 800aa44:	4659      	mov	r1, fp
 800aa46:	f04f 0e00 	mov.w	lr, #0
 800aa4a:	f851 3b04 	ldr.w	r3, [r1], #4
 800aa4e:	2b00      	cmp	r3, #0
 800aa50:	d039      	beq.n	800aac6 <__kernel_rem_pio2f+0x366>
 800aa52:	f5c3 7380 	rsb	r3, r3, #256	@ 0x100
 800aa56:	f841 3c04 	str.w	r3, [r1, #-4]
 800aa5a:	e00c      	b.n	800aa76 <__kernel_rem_pio2f+0x316>
 800aa5c:	0801eae0 	.word	0x0801eae0
 800aa60:	00000000 	.word	0x00000000
 800aa64:	43800000 	.word	0x43800000
 800aa68:	3b800000 	.word	0x3b800000
 800aa6c:	680b      	ldr	r3, [r1, #0]
 800aa6e:	f1c3 03ff 	rsb	r3, r3, #255	@ 0xff
 800aa72:	f841 3b04 	str.w	r3, [r1], #4
 800aa76:	f10e 0e01 	add.w	lr, lr, #1
 800aa7a:	4577      	cmp	r7, lr
 800aa7c:	dcf6      	bgt.n	800aa6c <__kernel_rem_pio2f+0x30c>
 800aa7e:	2301      	movs	r3, #1
 800aa80:	469e      	mov	lr, r3
 800aa82:	2800      	cmp	r0, #0
 800aa84:	dd0b      	ble.n	800aa9e <__kernel_rem_pio2f+0x33e>
 800aa86:	2801      	cmp	r0, #1
 800aa88:	f000 80bb 	beq.w	800ac02 <__kernel_rem_pio2f+0x4a2>
 800aa8c:	2802      	cmp	r0, #2
 800aa8e:	d106      	bne.n	800aa9e <__kernel_rem_pio2f+0x33e>
 800aa90:	1e79      	subs	r1, r7, #1
 800aa92:	f85b 3021 	ldr.w	r3, [fp, r1, lsl #2]
 800aa96:	f003 0c3f 	and.w	ip, r3, #63	@ 0x3f
 800aa9a:	f84b c021 	str.w	ip, [fp, r1, lsl #2]
 800aa9e:	2a02      	cmp	r2, #2
 800aaa0:	f47f af1b 	bne.w	800a8da <__kernel_rem_pio2f+0x17a>
 800aaa4:	eeb7 0a00 	vmov.f32	s0, #112	@ 0x3f800000  1.0
 800aaa8:	4673      	mov	r3, lr
 800aaaa:	ee30 8a48 	vsub.f32	s16, s0, s16
 800aaae:	2b00      	cmp	r3, #0
 800aab0:	f43f af13 	beq.w	800a8da <__kernel_rem_pio2f+0x17a>
 800aab4:	9209      	str	r2, [sp, #36]	@ 0x24
 800aab6:	9001      	str	r0, [sp, #4]
 800aab8:	f7ff fde4 	bl	800a684 <scalbnf>
 800aabc:	9801      	ldr	r0, [sp, #4]
 800aabe:	9a09      	ldr	r2, [sp, #36]	@ 0x24
 800aac0:	ee38 8a40 	vsub.f32	s16, s16, s0
 800aac4:	e709      	b.n	800a8da <__kernel_rem_pio2f+0x17a>
 800aac6:	f10e 0e01 	add.w	lr, lr, #1
 800aaca:	4577      	cmp	r7, lr
 800aacc:	dcbd      	bgt.n	800aa4a <__kernel_rem_pio2f+0x2ea>
 800aace:	469e      	mov	lr, r3
 800aad0:	e7d7      	b.n	800aa82 <__kernel_rem_pio2f+0x322>
 800aad2:	1e7b      	subs	r3, r7, #1
 800aad4:	f85b 2023 	ldr.w	r2, [fp, r3, lsl #2]
 800aad8:	11d2      	asrs	r2, r2, #7
 800aada:	2a00      	cmp	r2, #0
 800aadc:	f77f aefd 	ble.w	800a8da <__kernel_rem_pio2f+0x17a>
 800aae0:	ee19 3a90 	vmov	r3, s19
 800aae4:	2f00      	cmp	r7, #0
 800aae6:	f103 0301 	add.w	r3, r3, #1
 800aaea:	ee09 3a90 	vmov	s19, r3
 800aaee:	dca9      	bgt.n	800aa44 <__kernel_rem_pio2f+0x2e4>
 800aaf0:	2a02      	cmp	r2, #2
 800aaf2:	f47f aef2 	bne.w	800a8da <__kernel_rem_pio2f+0x17a>
 800aaf6:	eef7 7a00 	vmov.f32	s15, #112	@ 0x3f800000  1.0
 800aafa:	ee37 8ac8 	vsub.f32	s16, s15, s16
 800aafe:	e6ec      	b.n	800a8da <__kernel_rem_pio2f+0x17a>
 800ab00:	4619      	mov	r1, r3
 800ab02:	e70e      	b.n	800a922 <__kernel_rem_pio2f+0x1c2>
 800ab04:	463b      	mov	r3, r7
 800ab06:	4692      	mov	sl, r2
 800ab08:	e9dd 1205 	ldrd	r1, r2, [sp, #20]
 800ab0c:	1e5c      	subs	r4, r3, #1
 800ab0e:	f1a1 0008 	sub.w	r0, r1, #8
 800ab12:	f85b 1024 	ldr.w	r1, [fp, r4, lsl #2]
 800ab16:	9f00      	ldr	r7, [sp, #0]
 800ab18:	9005      	str	r0, [sp, #20]
 800ab1a:	b961      	cbnz	r1, 800ab36 <__kernel_rem_pio2f+0x3d6>
 800ab1c:	f103 4380 	add.w	r3, r3, #1073741824	@ 0x40000000
 800ab20:	3b01      	subs	r3, #1
 800ab22:	eb0b 0383 	add.w	r3, fp, r3, lsl #2
 800ab26:	4601      	mov	r1, r0
 800ab28:	f853 0d04 	ldr.w	r0, [r3, #-4]!
 800ab2c:	3c01      	subs	r4, #1
 800ab2e:	3908      	subs	r1, #8
 800ab30:	2800      	cmp	r0, #0
 800ab32:	d0f9      	beq.n	800ab28 <__kernel_rem_pio2f+0x3c8>
 800ab34:	9105      	str	r1, [sp, #20]
 800ab36:	9805      	ldr	r0, [sp, #20]
 800ab38:	9200      	str	r2, [sp, #0]
 800ab3a:	eeb7 0a00 	vmov.f32	s0, #112	@ 0x3f800000  1.0
 800ab3e:	f7ff fda1 	bl	800a684 <scalbnf>
 800ab42:	2c00      	cmp	r4, #0
 800ab44:	9a00      	ldr	r2, [sp, #0]
 800ab46:	eeb0 7a40 	vmov.f32	s14, s0
 800ab4a:	f2c0 8122 	blt.w	800ad92 <__kernel_rem_pio2f+0x632>
 800ab4e:	1c60      	adds	r0, r4, #1
 800ab50:	ad46      	add	r5, sp, #280	@ 0x118
 800ab52:	ed5f 6a3b 	vldr	s13, [pc, #-236]	@ 800aa68 <__kernel_rem_pio2f+0x308>
 800ab56:	0081      	lsls	r1, r0, #2
 800ab58:	eb0b 0380 	add.w	r3, fp, r0, lsl #2
 800ab5c:	eb05 0080 	add.w	r0, r5, r0, lsl #2
 800ab60:	ed73 7a01 	vldmdb	r3!, {s15}
 800ab64:	eef8 7ae7 	vcvt.f32.s32	s15, s15
 800ab68:	455b      	cmp	r3, fp
 800ab6a:	ee67 7a87 	vmul.f32	s15, s15, s14
 800ab6e:	ee27 7a26 	vmul.f32	s14, s14, s13
 800ab72:	ed60 7a01 	vstmdb	r0!, {s15}
 800ab76:	d1f3      	bne.n	800ab60 <__kernel_rem_pio2f+0x400>
 800ab78:	f10d 08c8 	add.w	r8, sp, #200	@ 0xc8
 800ab7c:	1f0e      	subs	r6, r1, #4
 800ab7e:	442e      	add	r6, r5
 800ab80:	46c6      	mov	lr, r8
 800ab82:	46a4      	mov	ip, r4
 800ab84:	2500      	movs	r5, #0
 800ab86:	2f00      	cmp	r7, #0
 800ab88:	db7d      	blt.n	800ac86 <__kernel_rem_pio2f+0x526>
 800ab8a:	f8df 925c 	ldr.w	r9, [pc, #604]	@ 800ade8 <__kernel_rem_pio2f+0x688>
 800ab8e:	eddf 7a95 	vldr	s15, [pc, #596]	@ 800ade4 <__kernel_rem_pio2f+0x684>
 800ab92:	4630      	mov	r0, r6
 800ab94:	2300      	movs	r3, #0
 800ab96:	e007      	b.n	800aba8 <__kernel_rem_pio2f+0x448>
 800ab98:	ecf9 6a01 	vldmia	r9!, {s13}
 800ab9c:	ecb0 7a01 	vldmia	r0!, {s14}
 800aba0:	429f      	cmp	r7, r3
 800aba2:	eee6 7a87 	vfma.f32	s15, s13, s14
 800aba6:	db03      	blt.n	800abb0 <__kernel_rem_pio2f+0x450>
 800aba8:	429d      	cmp	r5, r3
 800abaa:	f103 0301 	add.w	r3, r3, #1
 800abae:	daf3      	bge.n	800ab98 <__kernel_rem_pio2f+0x438>
 800abb0:	f10c 3cff 	add.w	ip, ip, #4294967295
 800abb4:	f1bc 3fff 	cmp.w	ip, #4294967295
 800abb8:	ecee 7a01 	vstmia	lr!, {s15}
 800abbc:	f105 0501 	add.w	r5, r5, #1
 800abc0:	f1a6 0604 	sub.w	r6, r6, #4
 800abc4:	d1e1      	bne.n	800ab8a <__kernel_rem_pio2f+0x42a>
 800abc6:	9b68      	ldr	r3, [sp, #416]	@ 0x1a0
 800abc8:	2b02      	cmp	r3, #2
 800abca:	dc6a      	bgt.n	800aca2 <__kernel_rem_pio2f+0x542>
 800abcc:	2b00      	cmp	r3, #0
 800abce:	dc36      	bgt.n	800ac3e <__kernel_rem_pio2f+0x4de>
 800abd0:	d10e      	bne.n	800abf0 <__kernel_rem_pio2f+0x490>
 800abd2:	eddf 7a84 	vldr	s15, [pc, #528]	@ 800ade4 <__kernel_rem_pio2f+0x684>
 800abd6:	4441      	add	r1, r8
 800abd8:	ed31 7a01 	vldmdb	r1!, {s14}
 800abdc:	4588      	cmp	r8, r1
 800abde:	ee77 7a87 	vadd.f32	s15, s15, s14
 800abe2:	d1f9      	bne.n	800abd8 <__kernel_rem_pio2f+0x478>
 800abe4:	4653      	mov	r3, sl
 800abe6:	2b00      	cmp	r3, #0
 800abe8:	f040 80c6 	bne.w	800ad78 <__kernel_rem_pio2f+0x618>
 800abec:	edc2 7a00 	vstr	s15, [r2]
 800abf0:	ee19 3a90 	vmov	r3, s19
 800abf4:	f003 0007 	and.w	r0, r3, #7
 800abf8:	b05b      	add	sp, #364	@ 0x16c
 800abfa:	ecbd 8b04 	vpop	{d8-d9}
 800abfe:	e8bd 8ff0 	ldmia.w	sp!, {r4, r5, r6, r7, r8, r9, sl, fp, pc}
 800ac02:	1e79      	subs	r1, r7, #1
 800ac04:	f85b 3021 	ldr.w	r3, [fp, r1, lsl #2]
 800ac08:	f003 0c7f 	and.w	ip, r3, #127	@ 0x7f
 800ac0c:	f84b c021 	str.w	ip, [fp, r1, lsl #2]
 800ac10:	e745      	b.n	800aa9e <__kernel_rem_pio2f+0x33e>
 800ac12:	ee19 3a90 	vmov	r3, s19
 800ac16:	2f00      	cmp	r7, #0
 800ac18:	f103 0301 	add.w	r3, r3, #1
 800ac1c:	ee09 3a90 	vmov	s19, r3
 800ac20:	bfc8      	it	gt
 800ac22:	2202      	movgt	r2, #2
 800ac24:	f73f af0e 	bgt.w	800aa44 <__kernel_rem_pio2f+0x2e4>
 800ac28:	eef7 7a00 	vmov.f32	s15, #112	@ 0x3f800000  1.0
 800ac2c:	ee37 8ac8 	vsub.f32	s16, s15, s16
 800ac30:	2202      	movs	r2, #2
 800ac32:	e652      	b.n	800a8da <__kernel_rem_pio2f+0x17a>
 800ac34:	2300      	movs	r3, #0
 800ac36:	f04f 0e08 	mov.w	lr, #8
 800ac3a:	9302      	str	r3, [sp, #8]
 800ac3c:	e5ae      	b.n	800a79c <__kernel_rem_pio2f+0x3c>
 800ac3e:	eddd 7a32 	vldr	s15, [sp, #200]	@ 0xc8
 800ac42:	ed9f 7a68 	vldr	s14, [pc, #416]	@ 800ade4 <__kernel_rem_pio2f+0x684>
 800ac46:	4441      	add	r1, r8
 800ac48:	ed71 6a01 	vldmdb	r1!, {s13}
 800ac4c:	4588      	cmp	r8, r1
 800ac4e:	ee37 7a26 	vadd.f32	s14, s14, s13
 800ac52:	d1f9      	bne.n	800ac48 <__kernel_rem_pio2f+0x4e8>
 800ac54:	4653      	mov	r3, sl
 800ac56:	2b00      	cmp	r3, #0
 800ac58:	f040 8084 	bne.w	800ad64 <__kernel_rem_pio2f+0x604>
 800ac5c:	ee77 7ac7 	vsub.f32	s15, s15, s14
 800ac60:	ed82 7a00 	vstr	s14, [r2]
 800ac64:	b164      	cbz	r4, 800ac80 <__kernel_rem_pio2f+0x520>
 800ac66:	a933      	add	r1, sp, #204	@ 0xcc
 800ac68:	2301      	movs	r3, #1
 800ac6a:	ecb1 7a01 	vldmia	r1!, {s14}
 800ac6e:	3301      	adds	r3, #1
 800ac70:	429c      	cmp	r4, r3
 800ac72:	ee77 7a87 	vadd.f32	s15, s15, s14
 800ac76:	daf8      	bge.n	800ac6a <__kernel_rem_pio2f+0x50a>
 800ac78:	4653      	mov	r3, sl
 800ac7a:	b10b      	cbz	r3, 800ac80 <__kernel_rem_pio2f+0x520>
 800ac7c:	eef1 7a67 	vneg.f32	s15, s15
 800ac80:	edc2 7a01 	vstr	s15, [r2, #4]
 800ac84:	e7b4      	b.n	800abf0 <__kernel_rem_pio2f+0x490>
 800ac86:	f10c 3cff 	add.w	ip, ip, #4294967295
 800ac8a:	2300      	movs	r3, #0
 800ac8c:	f1bc 3fff 	cmp.w	ip, #4294967295
 800ac90:	f84e 3b04 	str.w	r3, [lr], #4
 800ac94:	f105 0501 	add.w	r5, r5, #1
 800ac98:	f1a6 0604 	sub.w	r6, r6, #4
 800ac9c:	f47f af73 	bne.w	800ab86 <__kernel_rem_pio2f+0x426>
 800aca0:	e791      	b.n	800abc6 <__kernel_rem_pio2f+0x466>
 800aca2:	9b68      	ldr	r3, [sp, #416]	@ 0x1a0
 800aca4:	2b03      	cmp	r3, #3
 800aca6:	d1a3      	bne.n	800abf0 <__kernel_rem_pio2f+0x490>
 800aca8:	2c00      	cmp	r4, #0
 800acaa:	f000 808c 	beq.w	800adc6 <__kernel_rem_pio2f+0x666>
 800acae:	eb08 0584 	add.w	r5, r8, r4, lsl #2
 800acb2:	ed95 7a00 	vldr	s14, [r5]
 800acb6:	00a0      	lsls	r0, r4, #2
 800acb8:	462b      	mov	r3, r5
 800acba:	4629      	mov	r1, r5
 800acbc:	ed71 7a01 	vldmdb	r1!, {s15}
 800acc0:	eef0 6a47 	vmov.f32	s13, s14
 800acc4:	ee37 7a27 	vadd.f32	s14, s14, s15
 800acc8:	4588      	cmp	r8, r1
 800acca:	ee77 7ac7 	vsub.f32	s15, s15, s14
 800acce:	ed81 7a00 	vstr	s14, [r1]
 800acd2:	ee77 7aa6 	vadd.f32	s15, s15, s13
 800acd6:	edc1 7a01 	vstr	s15, [r1, #4]
 800acda:	d1ef      	bne.n	800acbc <__kernel_rem_pio2f+0x55c>
 800acdc:	2c01      	cmp	r4, #1
 800acde:	d072      	beq.n	800adc6 <__kernel_rem_pio2f+0x666>
 800ace0:	ed95 7a00 	vldr	s14, [r5]
 800ace4:	f108 0104 	add.w	r1, r8, #4
 800ace8:	ed73 7a01 	vldmdb	r3!, {s15}
 800acec:	eef0 6a47 	vmov.f32	s13, s14
 800acf0:	ee37 7a27 	vadd.f32	s14, s14, s15
 800acf4:	4299      	cmp	r1, r3
 800acf6:	ee77 7ac7 	vsub.f32	s15, s15, s14
 800acfa:	ed83 7a00 	vstr	s14, [r3]
 800acfe:	ee77 7aa6 	vadd.f32	s15, s15, s13
 800ad02:	edc3 7a01 	vstr	s15, [r3, #4]
 800ad06:	d1ef      	bne.n	800ace8 <__kernel_rem_pio2f+0x588>
 800ad08:	1d03      	adds	r3, r0, #4
 800ad0a:	eddf 7a36 	vldr	s15, [pc, #216]	@ 800ade4 <__kernel_rem_pio2f+0x684>
 800ad0e:	4443      	add	r3, r8
 800ad10:	f108 0808 	add.w	r8, r8, #8
 800ad14:	ed33 7a01 	vldmdb	r3!, {s14}
 800ad18:	4598      	cmp	r8, r3
 800ad1a:	ee77 7a87 	vadd.f32	s15, s15, s14
 800ad1e:	d1f9      	bne.n	800ad14 <__kernel_rem_pio2f+0x5b4>
 800ad20:	4653      	mov	r3, sl
 800ad22:	eddd 6a32 	vldr	s13, [sp, #200]	@ 0xc8
 800ad26:	ed9d 7a33 	vldr	s14, [sp, #204]	@ 0xcc
 800ad2a:	b973      	cbnz	r3, 800ad4a <__kernel_rem_pio2f+0x5ea>
 800ad2c:	edc2 6a00 	vstr	s13, [r2]
 800ad30:	ed82 7a01 	vstr	s14, [r2, #4]
 800ad34:	edc2 7a02 	vstr	s15, [r2, #8]
 800ad38:	e75a      	b.n	800abf0 <__kernel_rem_pio2f+0x490>
 800ad3a:	eefd 7ac0 	vcvt.s32.f32	s15, s0
 800ad3e:	461c      	mov	r4, r3
 800ad40:	ee17 1a90 	vmov	r1, s15
 800ad44:	f84b 1023 	str.w	r1, [fp, r3, lsl #2]
 800ad48:	e6f5      	b.n	800ab36 <__kernel_rem_pio2f+0x3d6>
 800ad4a:	eef1 6a66 	vneg.f32	s13, s13
 800ad4e:	eeb1 7a47 	vneg.f32	s14, s14
 800ad52:	eef1 7a67 	vneg.f32	s15, s15
 800ad56:	edc2 6a00 	vstr	s13, [r2]
 800ad5a:	ed82 7a01 	vstr	s14, [r2, #4]
 800ad5e:	edc2 7a02 	vstr	s15, [r2, #8]
 800ad62:	e745      	b.n	800abf0 <__kernel_rem_pio2f+0x490>
 800ad64:	eef1 6a47 	vneg.f32	s13, s14
 800ad68:	ee77 7ac7 	vsub.f32	s15, s15, s14
 800ad6c:	edc2 6a00 	vstr	s13, [r2]
 800ad70:	2c00      	cmp	r4, #0
 800ad72:	f47f af78 	bne.w	800ac66 <__kernel_rem_pio2f+0x506>
 800ad76:	e781      	b.n	800ac7c <__kernel_rem_pio2f+0x51c>
 800ad78:	eef1 7a67 	vneg.f32	s15, s15
 800ad7c:	e736      	b.n	800abec <__kernel_rem_pio2f+0x48c>
 800ad7e:	2801      	cmp	r0, #1
 800ad80:	d015      	beq.n	800adae <__kernel_rem_pio2f+0x64e>
 800ad82:	2802      	cmp	r0, #2
 800ad84:	f47f aeb4 	bne.w	800aaf0 <__kernel_rem_pio2f+0x390>
 800ad88:	f00e 033f 	and.w	r3, lr, #63	@ 0x3f
 800ad8c:	f84b 3021 	str.w	r3, [fp, r1, lsl #2]
 800ad90:	e6ae      	b.n	800aaf0 <__kernel_rem_pio2f+0x390>
 800ad92:	9b68      	ldr	r3, [sp, #416]	@ 0x1a0
 800ad94:	2b02      	cmp	r3, #2
 800ad96:	dc12      	bgt.n	800adbe <__kernel_rem_pio2f+0x65e>
 800ad98:	2b00      	cmp	r3, #0
 800ad9a:	dc17      	bgt.n	800adcc <__kernel_rem_pio2f+0x66c>
 800ad9c:	f47f af28 	bne.w	800abf0 <__kernel_rem_pio2f+0x490>
 800ada0:	eddf 7a10 	vldr	s15, [pc, #64]	@ 800ade4 <__kernel_rem_pio2f+0x684>
 800ada4:	e71e      	b.n	800abe4 <__kernel_rem_pio2f+0x484>
 800ada6:	9b03      	ldr	r3, [sp, #12]
 800ada8:	ea4f 0883 	mov.w	r8, r3, lsl #2
 800adac:	e530      	b.n	800a810 <__kernel_rem_pio2f+0xb0>
 800adae:	f00e 037f 	and.w	r3, lr, #127	@ 0x7f
 800adb2:	2a02      	cmp	r2, #2
 800adb4:	f84b 3021 	str.w	r3, [fp, r1, lsl #2]
 800adb8:	f47f ad8f 	bne.w	800a8da <__kernel_rem_pio2f+0x17a>
 800adbc:	e69b      	b.n	800aaf6 <__kernel_rem_pio2f+0x396>
 800adbe:	9b68      	ldr	r3, [sp, #416]	@ 0x1a0
 800adc0:	2b03      	cmp	r3, #3
 800adc2:	f47f af15 	bne.w	800abf0 <__kernel_rem_pio2f+0x490>
 800adc6:	eddf 7a07 	vldr	s15, [pc, #28]	@ 800ade4 <__kernel_rem_pio2f+0x684>
 800adca:	e7a9      	b.n	800ad20 <__kernel_rem_pio2f+0x5c0>
 800adcc:	4653      	mov	r3, sl
 800adce:	eddd 7a32 	vldr	s15, [sp, #200]	@ 0xc8
 800add2:	b11b      	cbz	r3, 800addc <__kernel_rem_pio2f+0x67c>
 800add4:	f04f 4300 	mov.w	r3, #2147483648	@ 0x80000000
 800add8:	6013      	str	r3, [r2, #0]
 800adda:	e74f      	b.n	800ac7c <__kernel_rem_pio2f+0x51c>
 800addc:	2300      	movs	r3, #0
 800adde:	6013      	str	r3, [r2, #0]
 800ade0:	e74e      	b.n	800ac80 <__kernel_rem_pio2f+0x520>
 800ade2:	bf00      	nop
 800ade4:	00000000 	.word	0x00000000
 800ade8:	0801eab4 	.word	0x0801eab4

0800adec <floorf>:
 800adec:	ee10 2a10 	vmov	r2, s0
 800adf0:	f3c2 53c7 	ubfx	r3, r2, #23, #8
 800adf4:	3b7f      	subs	r3, #127	@ 0x7f
 800adf6:	2b16      	cmp	r3, #22
 800adf8:	f022 4100 	bic.w	r1, r2, #2147483648	@ 0x80000000
 800adfc:	dc1b      	bgt.n	800ae36 <floorf+0x4a>
 800adfe:	2b00      	cmp	r3, #0
 800ae00:	4610      	mov	r0, r2
 800ae02:	db1e      	blt.n	800ae42 <floorf+0x56>
 800ae04:	491a      	ldr	r1, [pc, #104]	@ (800ae70 <floorf+0x84>)
 800ae06:	4119      	asrs	r1, r3
 800ae08:	420a      	tst	r2, r1
 800ae0a:	d023      	beq.n	800ae54 <floorf+0x68>
 800ae0c:	eddf 7a19 	vldr	s15, [pc, #100]	@ 800ae74 <floorf+0x88>
 800ae10:	ee70 7a27 	vadd.f32	s15, s0, s15
 800ae14:	eef5 7ac0 	vcmpe.f32	s15, #0.0
 800ae18:	eef1 fa10 	vmrs	APSR_nzcv, fpscr
 800ae1c:	dd1a      	ble.n	800ae54 <floorf+0x68>
 800ae1e:	2a00      	cmp	r2, #0
 800ae20:	da04      	bge.n	800ae2c <floorf+0x40>
 800ae22:	f44f 0200 	mov.w	r2, #8388608	@ 0x800000
 800ae26:	fa42 f303 	asr.w	r3, r2, r3
 800ae2a:	4418      	add	r0, r3
 800ae2c:	ea20 0301 	bic.w	r3, r0, r1
 800ae30:	ee00 3a10 	vmov	s0, r3
 800ae34:	4770      	bx	lr
 800ae36:	f1b1 4fff 	cmp.w	r1, #2139095040	@ 0x7f800000
 800ae3a:	d30b      	bcc.n	800ae54 <floorf+0x68>
 800ae3c:	ee30 0a00 	vadd.f32	s0, s0, s0
 800ae40:	4770      	bx	lr
 800ae42:	eddf 7a0c 	vldr	s15, [pc, #48]	@ 800ae74 <floorf+0x88>
 800ae46:	ee70 7a27 	vadd.f32	s15, s0, s15
 800ae4a:	eef5 7ac0 	vcmpe.f32	s15, #0.0
 800ae4e:	eef1 fa10 	vmrs	APSR_nzcv, fpscr
 800ae52:	dc00      	bgt.n	800ae56 <floorf+0x6a>
 800ae54:	4770      	bx	lr
 800ae56:	2a00      	cmp	r2, #0
 800ae58:	db02      	blt.n	800ae60 <floorf+0x74>
 800ae5a:	ed9f 0a07 	vldr	s0, [pc, #28]	@ 800ae78 <floorf+0x8c>
 800ae5e:	4770      	bx	lr
 800ae60:	b911      	cbnz	r1, 800ae68 <floorf+0x7c>
 800ae62:	ed9f 0a06 	vldr	s0, [pc, #24]	@ 800ae7c <floorf+0x90>
 800ae66:	4770      	bx	lr
 800ae68:	eebf 0a00 	vmov.f32	s0, #240	@ 0xbf800000 -1.0
 800ae6c:	e7f2      	b.n	800ae54 <floorf+0x68>
 800ae6e:	bf00      	nop
 800ae70:	007fffff 	.word	0x007fffff
 800ae74:	7149f2ca 	.word	0x7149f2ca
 800ae78:	00000000 	.word	0x00000000
 800ae7c:	80000000 	.word	0x80000000

0800ae80 <_init>:
 800ae80:	b5f8      	push	{r3, r4, r5, r6, r7, lr}
 800ae82:	bf00      	nop
 800ae84:	bcf8      	pop	{r3, r4, r5, r6, r7}
 800ae86:	bc08      	pop	{r3}
 800ae88:	469e      	mov	lr, r3
 800ae8a:	4770      	bx	lr

0800ae8c <_fini>:
 800ae8c:	b5f8      	push	{r3, r4, r5, r6, r7, lr}
 800ae8e:	bf00      	nop
 800ae90:	bcf8      	pop	{r3, r4, r5, r6, r7}
 800ae92:	bc08      	pop	{r3}
 800ae94:	469e      	mov	lr, r3
 800ae96:	4770      	bx	lr
